Hc:_glClearStencil
aKg:_UInt16_System_IConvertible_ToChar_m2096055221_AdjustorThunk
N9f:_Array_TrueForAll_TisRuntimeObject_m1084992726_gshared
oYj:__ZN6il2cpp2vm5Array13GetByteLengthEP11Il2CppArray
rNi:_Array_InternalArray__set_Item_TisDateTime_t3738529785_m1331437427_gshared
c6i:_KeyBuilder_get_Rng_m3373220441
tTa:__Z30GetIntermediateRendererManagerv
Vya:__Z21SourceMipLevelForBlitiiii
VXa:__ZN31CanvasBatchIntermediateRenderer15AddAsRenderNodeER15RenderNodeQueueRK20DeprecatedSourceData
pHg:_TimeSpan_get_Hours_m550761902
UVd:_UnmanagedMemoryStream_Write_m930787521
r7i:_AnalyticsEventTracker_SendEvent_m1365958832
Vr:__ZN11UnityEngine9Animation28GenericAnimationBindingCacheD2Ev
LYi:_X509Store_LoadCrl_m1881903843
SPi:_Array_Sort_TisUICharInfo_t75501106_TisUICharInfo_t75501106_m722747892_gshared
T7a:__ZNSt3__26vectorI13dynamic_arrayI8Vector2fLj4EENS_9allocatorIS3_EEEC2INS_11__wrap_iterIPS3_EEEET_SB_RKS5_PNS_9enable_ifIXaasr21__is_forward_iteratorISB_EE5valuesr16is_constructibleIS3_NS_15iterator_traitsISB_E9referenceEEE5valueEvE4typeE
g_b:__Z18RestoreRenderStateR20CameraRenderOldStateR17ShaderPassContext
CAb:__Z18Transfer_BlittableI18StreamedBinaryReadILb1EELb1E5RectTIfEEvRK29SerializationCommandArgumentsR31RuntimeSerializationCommandInfo
uwb:__Z18Transfer_BlittableI24GenerateTypeTreeTransferLb0E11ColorRGBA32EvRK29SerializationCommandArgumentsR31RuntimeSerializationCommandInfo
nFb:__Z25scripting_class_from_name17ScriptingImagePtrPKcS1_
Mcg:_Array_InternalArray__IndexOf_TisKeyValuePair_2_t3699644050_m1021241249_gshared
SIj:__ZN14dense_hash_mapI10KeyWrapperINSt3__24pairIPK12PropertyInfoP11Il2CppClassEEEj17ReflectionMapHashIS8_ENS9_14EqualsComparerINS1_8equal_toIS8_EEEENS1_9allocatorINS2_IKS9_jEEEEE15set_deleted_keyERSH_
OGb:__Z29scripting_class_enum_basetype17ScriptingClassPtr
hMc:__ZN16PhysicsManager2D7RaycastERK3RayfiR12RaycastHit2D
n3e:_InternalEnumerator_1_get_Current_m1477715453_gshared
Rnb:__ZNK20LocalFileSystemPosix6ParentERK13FileEntryDataRN4core12basic_stringIcNS3_20StringStorageDefaultIcEEEE
Evg:_RectTransform_GetWorldCorners_m3553547973
vvh:_Collection_1_System_Collections_IList_Remove_m1476284619_gshared
WXd:_MonoType_IsPrimitiveImpl_m2401722705
ULf:_SHA1CryptoServiceProvider__ctor_m4195188793
Wkg:_CSSMeasureFunc_BeginInvoke_m3802154595
Czd:_Dropdown_Hide_m504034854
FMa:__ZN17PersistentManager22CheckInstanceIDsLoadedEPii
Q4a:__ZN9Texture2D25CreateScaledAndPaddedDataEPP17SharedTextureDataS2_
Qzg:_Vector2_get_up_m2647420593
zwa:__ZN7ApiGLES17CopyBufferSubDataEjjlll
Pfg:_Array_InternalArray__ICollection_CopyTo_TisUInt64_t4134040092_m691431926_gshared
HCf:_IPAddress_ToString_m1181734207
XCg:_StringBuilder_Append_m1965104174
OAc:__ZN5Unity9rapidjson15GenericDocumentINS0_4UTF8IcEE13JSONAllocatorS4_E11ParseStreamILj1ES3_NS0_25GenericInsituStringStreamIS3_EEEERS5_RT1_
vUg:_EqualityComparer_1__cctor_m3766928733_gshared
nSb:__ZN25CameraStackRenderingState20GetOrCreateBuiltinRTE24BuiltinRenderTextureTypeii17DepthBufferFormat19RenderTextureFormatj22RenderTextureReadWrite14VRTextureUsagei
QNh:_UnityAction_1_Invoke_m610765085_gshared
QO:__ZN11AudioModule26SetDefaultMicrophoneDriverEPv
jxe:_Kernel_modInverse_m652700340
l9a:__ZNK14Texture2DArray26CanReuploadDataToGfxDeviceEv
CWb:__ZN17PrePassRenderLoop14RenderBasePassEP13RenderTextureRK14LightingLayersR13dynamic_arrayI16RenderObjectDataLj4EERbR10MinMaxAABB
Dyc:__ZN5IMGUI18RepaintModalWindowER8GUIState
T4:__ZNK15dense_hashtableINSt3__24pairIKN9ShaderLab7Program23ShaderKeywordSetAndHashEPKNS2_10SubProgramEEES4_NS3_24ShaderKeywordHashFunctorEN14dense_hash_mapIS4_S8_SA_NS0_8equal_toIS4_EE13stl_allocatorIS9_L18MemLabelIdentifier67ELi16EEE9SelectKeyESD_SG_E23find_position_with_hashERS5_j
l4f:_CompareInfo_Finalize_m404687489
W7a:__Z23SetSpriteMeshIndexCountP14SharedMeshDataj
TEg:_UTF8Decoder_GetChars_m1236346907
eyg:_TouchScreenKeyboard_Open_m231964201
Y$a:__ZN7Texture13SetFilterModeEi
QZj:__ZN6il2cpp8metadata13GenericMethod9GetMethodEPK19Il2CppGenericMethod
Iq:__ZNSt3__26vectorIN4core12basic_stringIcNS1_20StringStorageDefaultIcEEEENS_9allocatorIS5_EEE7reserveEj
gje:_Default_SelectProperty_m1220817815
NIe:_RemotingConfiguration_IsRemotelyActivatedClientType_m4117048589
Gvg:_Transform_TransformPoint_m226827784
sqa:__ZN13GfxDeviceGLES11SetViewportERK5RectTIiE
Yd:_emscripten_glDepthRange
UHe:_SslStreamBase_BeginNegotiateHandshake_m4180435790
v0b:__ZNSt3__26vectorINS_4pairIN4core12basic_stringIcNS2_20StringStorageDefaultIcEEEES6_EE13stl_allocatorIS7_L18MemLabelIdentifier38ELi16EEE12__move_rangeEPS7_SC_SC_
Cja:__Z14resize_trimmedINSt3__26vectorIN9ShaderLab20SerializedSubProgram12UAVParameterENS0_9allocatorIS4_EEEEEvRT_j
gBc:__ZN5Unity9rapidjson13GenericReaderINS0_4UTF8IcEES3_13JSONAllocatorE11ParseObjectILj1ENS0_25GenericInsituStringStreamIS3_EENS0_15GenericDocumentIS3_S4_S4_EEEEvRT0_RT1_
Wtd:_StandaloneInputModule_GetRawMoveVector_m2737091079
ahc:__ZN13BuildSettings34ConvertScenePathToDisplayScenePathERKN4core12basic_stringIcNS0_20StringStorageDefaultIcEEEE
hJi:__ZL62Selectable_t3250028441_CustomAttributesCacheGenerator_m_ColorsP21CustomAttributesCache
lIe:_SslStreamBase_EndWrite_m4073224031
p2:__ZNSt3__218__insertion_sort_3IRNS_6__lessI14ObjectLoadDataS2_EEPS2_EEvT0_S6_T_
pya:__ZN4crndL20crnd_default_reallocEPvjPjbS0_
Kbk:__ZNSt3__212basic_stringIcNS_11char_traitsIcEENS_9allocatorIcEEEC2ERKS5_
M8a:__ZN18SpriteAtlasManager19AddRequestingSpriteE4PPtrI6SpriteE
npc:__Z33Texture_CUSTOM_Internal_GetHeightP12Il2CppObject
jef:_ValueCollection_System_Collections_ICollection_get_SyncRoot_m3381653267_gshared
lZb:__ZN23ScriptableRenderContextC2Ev
qCd:_GridLayoutGroup_get_spacing_m2409263614
FRh:_List_1_CheckIndex_m581273900_gshared
E3c:_UNITY_FT_Stream_GetChar
bBb:__Z18Transfer_BlittableI18StreamedBinaryReadILb1EELb1EdEvRK29SerializationCommandArgumentsR31RuntimeSerializationCommandInfo
WGb:__Z26BuildSerializationCacheFor17ScriptingClassPtrRb
zEa:__ZN7ApiGLES15BlitFramebufferEN2gl6HandleILNS0_10ObjectTypeE9EEENS0_15FramebufferReadES3_S3_iiiiiiiiNS0_15FramebufferTypeE
Hch:__Z112RuntimeInvoker_RuntimeObject_RuntimeObject_RuntimeObject_RuntimeObject_RuntimeObject_RuntimeObject_RuntimeObjectPFvvEPK10MethodInfoPvPS4_
C2e:_InternalEnumerator_1_System_Collections_IEnumerator_get_Current_m3553395619_AdjustorThunk
M1d:_Array_SetValue_m3998268557
yHc:__ZN8JSONRead8TransferI8Vector4fEEvRT_PKc17TransferMetaFlagsb
Mwd:_ColorBlock_set_highlightedColor_m2089444414_AdjustorThunk
pvg:_RectTransform_INTERNAL_set_anchoredPosition_m939517950
FEe:_Context_EndSwitchingSecurityParameters_m4148956166
I_c:_otv_PairPos_validate
xw:__ZN7mecanim9animation14CopyHumanPosesEPKNS0_18AnimationNodeStateEPS1_RKNS_6bitsetILj83EEE
Yyj:__ZN6il2cpp6icalls8mscorlib6SystemL8IsStaticEPK12PropertyInfo
lIb:__Z9InitInputv
sxb:__Z29Transfer_Blittable_ArrayFieldI24GenerateTypeTreeTransfer11ColorRGBA32EvRT_R9ArrayInfoRK23StaticTransferFieldInfo
nEj:__ZN6il2cpp2gc19AppendOnlyGCHashMapINSt3__24pairIPK10MethodInfoP11Il2CppClassEEP22Il2CppReflectionMethod17ReflectionMapHashIS9_ENS2_8equal_toIS9_EEE3AddERKS9_SB_
Wob:__ZN16MemoryFileSystem6DeleteER13FileEntryDatab
r7g:__Z81RuntimeInvoker_Void_t1185182177_RuntimeObject_Int64_t3736567304_Int32_t2950945753PFvvEPK10MethodInfoPvPS4_
PSh:_List_1_set_Item_m1979164443_gshared
lza:__ZL21BlitScaleStbImageImplRK14ImageReferenceRS_NS_10ColorSpaceE
p4d:_Boolean_System_IConvertible_ToUInt16_m3465173538_AdjustorThunk
bPc:__ZNSt3__26__sortIR31RayHitsByInverseDepthComparitorP12RaycastHit2DEEvT0_S5_T_
cgf:_InputField_get_keyboardType_m1248105267
lsb:__Z29Transfer_Blittable_ArrayFieldI14SafeBinaryReadyEvRT_R9ArrayInfoRK23StaticTransferFieldInfo
ttc:_UNITY_png_icc_set_sRGB
FM:__ZN20SoundChannelInstance15setChannelGroupEPN4FMOD12ChannelGroupE
hZi:_Match__ctor_m2425511580
Jxf:_KeyPairPersistence_Remove_m1876145547
vc:invoke_vifffii
FPj:__ZN6il2cpp2vm9Exception27RaiseNullReferenceExceptionEv
vPa:__ZNK25MultiBlocksMemoryFileData5CloneEv
w3j:_GC_add_ext_descriptor
ECj:__ZNK15dense_hashtableINSt3__24pairIK10KeyWrapperINS1_IPK14Il2CppAssemblyP11Il2CppClassEEEjEES9_17ReflectionMapHashIS8_EN14dense_hash_mapIS9_jSD_NS9_14EqualsComparerINS0_8equal_toIS8_EEEENS0_9allocatorISB_EEE9SelectKeyESI_SK_E23find_position_with_hashERSA_j
YRi:_LayoutGroup_SetProperty_TisSingle_t1397266774_m793506911_gshared
CGd:_CryptoConfig_CreateFromName_m1538277313
Pdk:dynCall_iiiiiiiiiiii
ngf:_InputField_set_caretPositionInternal_m3823580651
Qpf:_Selectable_set_interactable_m3105888815
fYa:__ZL26KeywordSetToStringDontSortRKNSt3__26vectorIN4core12basic_stringIcNS1_20StringStorageDefaultIcEEEENS_9allocatorIS5_EEEERS5_
chd:__Z54Register_UnityEngine_Analytics_CustomEventData_AddCharv
dBa:__ZN6prcoreL17RemapGenericFloatI16TexFormatRGFloat17TexFormatRGBAHalfEEvPKNS_9InnerInfoE
OG:__ZN12AudioManager22CreateFMODSoundFromWWWEP10IWWWStream15FMOD_SOUND_TYPE17FMOD_SOUND_FORMATjjbbP10SampleClip
Rac:__ZNK32RendererMaterialAnimationBinding15GenerateBindingERKN4core12basic_stringIcNS0_20StringStorageDefaultIcEEEEbRN11UnityEngine9Animation14GenericBindingE
hue:_TargetException__ctor_m4172127019
mWh:_List_1_CheckCollection_m274117203_gshared
KDi:__ZL70EventSystem_t1003666588_CustomAttributesCacheGenerator_m_FirstSelectedP21CustomAttributesCache
L_:__ZN8Remapper23GetOrGenerateInstanceIDERK26SerializedObjectIdentifier
yxd:_ColorTween_get_startColor_m3792586410_AdjustorThunk
$a:invoke_iiiiiifffiiifii
o4g:__Z85RuntimeInvoker_Void_t1185182177_Int32_t2950945753_Int32_t2950945753_Int32_t2950945753PFvvEPK10MethodInfoPvPS4_
Xge:_CustomInfo__ctor_m426096741
pqd:_EventSystem_ToString_m3779610692
f8a:__ZN6Sprite8TransferI24GenerateTypeTreeTransferEEvRT_
tqc:__Z48Register_UnityEngine_Transform_SetAsFirstSiblingv
r2a:__ZNK18DelayedCallManager22GetTypeVirtualInternalEv
i8a:__ZN7SubMesh8TransferI24GenerateTypeTreeTransferEEvRT_
Zzj:_NativeTypeAttribute__ctor_m133676646
nyh:_Collection_1_System_Collections_IList_Contains_m296643274_gshared
QPd:_DirectoryInfo__ctor_m126519516
Iqe:_MethodBase_GetMethodFromIntPtr_m3014201362
Rhc:__ZN9Transform23SetSiblingIndexInternalEib
dde:_Enumerator_MoveNext_m635366482
C_d:_X509Extension_Equals_m1222951829
Ru:__ZN7mecanim5human12HumanPoseSubERNS0_9HumanPoseERKS1_S4_
NTj:__ZN6il2cpp8metadata15GenericMetadata15GetGenericClassEiPK17Il2CppGenericInst
Mqb:__Z18Transfer_BlittableI14SafeBinaryReadLb0E10Matrix4x4fEvRK29SerializationCommandArgumentsR31RuntimeSerializationCommandInfo
lGb:__Z24GetFixedBehaviourManagerv
Uxj:__ZN6il2cpp2vm10ThreadPool4WaitEP17Il2CppAsyncResultPPv
Ozf:_PKCS12_Encrypt_m2617413749
vYi:_X509Crl_VerifySignature_m1377612461
X8j:_vfprintf
azc:__ZN10GUIManager12AddGUIScriptER8ListNodeI13MonoBehaviourE
sde:_Stack_Clear_m2010200235
mXc:_cf2_getVStore
fsd:_PointerEventData_set_pointerPressRaycast_m1363193059
jQb:__ZN20DynamicPropertySheetD0Ev
xwe:_SafeHandle_Dispose_m4229010569
z0b:__ZN14SafeBinaryRead17RegisterConverterEPKcS1_PFbPvRS_E
Avi:__ZL77RuntimePlatform_t4159857903_CustomAttributesCacheGenerator_OSXDashboardPlayerP21CustomAttributesCache
m9:__ZN35RegisterRuntimeInitializeAndCleanup8RegisterEPFvPvES2_iS0_
$Vi:_SubjectAltNameExtension_get_IPAddresses_m1641002124
Ome:_FieldBuilder_SetValue_m828035213
Qgg:_Array_InternalArray__Insert_TisSingle_t1397266774_m3161726127_gshared
yuc:_UNITY_png_create_read_struct
xqc:__Z21Object_CUSTOM_DestroyP12Il2CppObjectf
fpa:__ZN8Material26ResetAllCachedMaterialDataEP6Shader
jbh:__Z63RuntimeInvoker_Void_t1185182177_RuntimeObject_Int16_t2552820387PFvvEPK10MethodInfoPvPS4_
Q3c:_UNITY_TT_Get_MM_Var
WSe:_ObjectManager_AddFixup_m2154325362
L4e:_Comparer_1__cctor_m3761458313_gshared
KYf:_DateTimeOffset_CompareTo_m1350732322_AdjustorThunk
ba:invoke_diddi
Pbd:__ZNK2UI6Canvas13GetRenderModeEv
Pmg:_PersistentCall__ctor_m1217622171
Qbg:_Array_compare_TisCustomAttributeTypedArgument_t2723150157_m1384644047_gshared
tzf:_StrongName_get_TokenAlgorithm_m1794722022
Xpb:__Z18Transfer_BlittableI14SafeBinaryReadLb0EiEvRK29SerializationCommandArgumentsR31RuntimeSerializationCommandInfo
Gwj:__ZN6il2cpp2vm13MetadataCache30GetPropertyDefinitionFromIndexEi
k6i:_SymmetricTransform_Transform_m1683494363
Bkd:__ZN22BaseUnityConnectClient17InitializeSessionERKN4core12basic_stringIcNS0_20StringStorageDefaultIcEEEES6_N19CloudServiceHandler13InitModeFlagsE
V8h:__ZL56KeyCollection_t4251528776_CustomAttributesCacheGeneratorP21CustomAttributesCache
lhh:__Z74RuntimeInvoker_RuntimeObject_Int32_t2950945753_RuntimeObject_RuntimeObjectPFvvEPK10MethodInfoPvPS4_
a0h:_List_1_get_Item_m200663048_gshared
_jk:_emscripten_glDeleteBuffers__wrapper
wjc:__ZN13MonoBehaviour34StopCoroutineFromEnumeratorManagedE18ScriptingObjectPtr
Qwc:_alloc_sarray
BIc:__ZN11UnityEngine9Analytics18SceneLoadTimeEvent12SetSceneLoadERKN4core12basic_stringIcNS2_20StringStorageDefaultIcEEEEiyyyy
mib:__ZN30RuntimeInitializeOnLoadManager8TransferI18StreamedBinaryReadILb0EEEEvRT_
WXf:_DateTimeOffset__ctor_m2084804982
d0c:_UNITY_tt_face_load_pclt
Uic:__ZL34GetComponentsImplementationRecurseILb1ELi0ELi2EEbR10GameObjectbRK17CompareParametersRK39GetComponentsImplementation_ReturnValue
WRc:__ZN10ClipperLib7Clipper24InsertLocalMinimaIntoAELEx
vpg:_Material_GetTexture_m3545614349
a2g:__Z64RuntimeInvoker_RuntimeObject_Int32_t2950945753_Int16_t2552820387PFvvEPK10MethodInfoPvPS4_
rVg:_EqualityComparer_1__cctor_m4244842342_gshared
GPb:__ZNK6Camera18WorldToScreenPointERK8Vector3fPb
Iwg:_SendMouseEvents_DoSendMouseEvents_m2140870850
Ffd:__ZN14UnityAnalyticsD0Ev
h_i:_PatternCompiler_EmitJump_m3915926156
IDa:__Z18IsCompressedFormat14GraphicsFormat
kv:__ZN7mecanim9animation19AdjustPoseForMotionERKNS0_14AvatarConstantERKNS0_14SkeletonTQSMapERKN4math4trsXERNS_10ValueArrayERNS_8skeleton13SkeletonPoseTIS8_EESG_
tse:_MonoMethod_GetBaseDefinition_m2844667474
_qc:__Z43LineRenderer_CUSTOM_set_startColor_InjectedP12Il2CppObjectRK10ColorRGBAf
NZ:__ZNSt3__227__insertion_sort_incompleteIRPFbRKN18AwakeFromLoadQueue4ItemES4_EPS2_EEbT0_S9_T_
Ivi:__ZL73RuntimePlatform_t4159857903_CustomAttributesCacheGenerator_MetroPlayerARMP21CustomAttributesCache
hPd:_InvalidOperationException__ctor_m1685032583
Guj:__ZN14dense_hash_mapI10KeyWrapperIN6il2cpp5utils13dynamic_arrayIPK10Il2CppTypeLj4EEEEPFvvENS1_8metadata19Il2CppSignatureHashENS8_14EqualsComparerINSB_22Il2CppSignatureCompareEEENSt3__29allocatorINSG_4pairIKS8_SA_EEEEE15set_deleted_keyERSJ_
kIg:_TimeSpan_op_Subtraction_m3592306516
pXg:_EqualityComparer_1_System_Collections_IEqualityComparer_GetHashCode_m1517903420_gshared
H5a:__ZN26EnlightenSystemInformation8TransferI14SafeBinaryReadEEvRT_
rhb:__ZN24GenerateTypeTreeTransfer8TransferINSt3__26vectorIN15ResourceManager10DependencyE13stl_allocatorIS4_L18MemLabelIdentifier52ELi16EEEEEEvRT_PKc17TransferMetaFlags
jlj:_CanvasRenderer_SplitUIVertexStreams_m2753637362
bjh:__Z119RuntimeInvoker_Void_t1185182177_RuntimeObject_Single_t1397266774_Single_t1397266774_SByte_t1669577662_Int32_t2950945753PFvvEPK10MethodInfoPvPS4_
Tld:__ZN11UnityEngine15PlatformWrapper20SetPlayerPrefsUInt64ERKN4core12basic_stringIcNS1_20StringStorageDefaultIcEEEEy
wcb:__ZN12MeshRendererD0Ev
bQ:__ZN12AudioManager35GetCurrentSpatializerDefinitionNameEv
Fnj:_CustomEventData_InternalDestroy_m2184675245
Kh:_utime
B0i:_BalancingGroup_Compile_m2575117193
bC:__Z28SetExposedSkeletonTransformsRKN7mecanim9animation14AvatarConstantERKN11UnityEngine9Animation30AnimatorGenericBindingConstantERKNS_8skeleton13SkeletonPoseTIN4math4trsXEEERKNSA_INSB_7affineXEEERNS5_21AvatarBindingConstantEy
LBj:__ZNSt3__26vectorIN6il2cpp2vm17TypeNameParseInfoENS_9allocatorIS3_EEE8allocateEj
cZi:_Mark_get_Index_m3048692661_AdjustorThunk
Fn:FUNCTION_TABLE_viiiiif
l4e:_DefaultComparer_Compare_m3931992727_gshared
Kn:FUNCTION_TABLE_viiiiii
e3e:_InternalEnumerator_1_System_Collections_IEnumerator_get_Current_m1847780851_AdjustorThunk
a5i:_GUILayoutUtility_get_spaceStyle_m3392862907
XMd:_Int32_System_IConvertible_ToType_m3009233912_AdjustorThunk
XXf:_DateTimeOffset__ctor_m74032857
DD:__ZN7mecanim9animation22DestroyAvatarWorkspaceEPNS0_15AvatarWorkspaceERNS_6memory9AllocatorE
dJg:_Type_type_is_assignable_from_m76737532
GWb:__ZN15LightmapSTCacheC2ER13BatchRendererR15RenderLoopStats
k2a:__ZN14PlayableOutput17SetSourcePlayableEP8Playable
eib:__ZNSt3__26vectorIN4core12basic_stringIcNS1_20StringStorageDefaultIcEEEE13stl_allocatorIS5_L18MemLabelIdentifier13ELi16EEE8__appendEj
TC:__ZN7mecanim9animation29MotionOutputGetDeltaTransformEPKNS0_12MotionOutputE
yIh:_ReadOnlyCollection_1_System_Collections_Generic_ICollectionU3CTU3E_Add_m2369252587_gshared
AIc:__ZN27PerformanceReportingManager21OnSceneTimingCallbackERK15SceneLoadTimingRKN4core12basic_stringIcNS3_20StringStorageDefaultIcEEEE
Rpc:__Z43Transform_CUSTOM_INTERNAL_get_localRotationP12Il2CppObjectP11Quaternionf
S4f:_CultureInfo_get_Parent_m672689885
Q3j:__ZN6il2cpp6icalls8mscorlib6System10Reflection4Emit13ModuleBuilder13RegisterTokenEP29Il2CppReflectionModuleBuilderP12Il2CppObjecti
uFf:_X509Certificate2_GetValueAsString_m1348462142
cik:_glGetShaderInfoLog__wrapper
FSe:_ObjectReader_ReadObjectGraph_m340866276
ni:_emscripten_glGetTexParameteriv
Qhd:__ZN11UnityEngine7Connect15DeviceInfoEvent7GFXInfoD2Ev
Ajk:_glGenTextures__wrapper
Zja:__ZN9ShaderLab20SerializedSubProgram14ConstantBufferaSERKS1_
k7b:__Z13RegisterClassI4MeshEvv
Ryi:__ZL74SharedBetweenAnimatorsAttribute_t2857104338_CustomAttributesCacheGeneratorP21CustomAttributesCache
J$a:__ZN8PlayableD0Ev
Gg:emscriptenWebGLGetBufferBinding
rI:__ZN12AudioManager8TransferI19StreamedBinaryWriteILb0EEEEvRT_
rqf:_Slider_UpdateCachedReferences_m3259451627
$He:_SslStreamBase_get_KeyExchangeStrength_m217695965
F9g:__Z50RuntimeInvoker_Double_t594665363_Double_t594665363PFvvEPK10MethodInfoPvPS4_
TBb:__ZN18StreamedBinaryReadILb1EE21TransferSTLStyleArrayI13dynamic_arrayI11ColorRGBA32Lj4EEEEvRT_17TransferMetaFlags
xMj:__ZN15dense_hashtableINSt3__24pairIK10KeyWrapperINS1_IP11Il2CppClassjEEES4_EES6_N6il2cpp8metadata14ArrayClassHashEN14dense_hash_mapIS6_S4_SB_NS6_14EqualsComparerINSA_17ArrayClassCompareEEENS0_9allocatorIS8_EEE9SelectKeyESF_SH_E6insertERKS8_
Zzd:_U3CShowU3Ec__AnonStorey1_U3CU3Em__0_m2340880019
rUf:_ASCIIEncoding_GetString_m58523364
Wwg:_Shader__ctor_m837260462
oVi:_TlsStream_Flush_m3793197834
znb:__ZN22LocalFileSystemHandler9MakeLocalER13FileEntryDatab
m$j:__ZN6il2cpp2vm8Profiler10AllocationEP12Il2CppObjectP11Il2CppClass
aHi:__ZL61Graphic_t1660335611_CustomAttributesCacheGenerator_m_MaterialP21CustomAttributesCache
l8c:__ZNSt3__23mapIN20TextRenderingPrivate7FontRefENS1_6OSFontENS_4lessIS2_EENS_9allocatorINS_4pairIKS2_S3_EEEEEixERS8_
mha:__Z13FormatOrderedPKcz
tzj:__ZN6il2cpp2vm8basepathEPKc
eGf:_X509Chain_GetAuthorityKeyIdentifier_m614536199
L5c:__ZN14SafeBinaryRead21TransferSTLStyleArrayI10vector_mapINSt3__24pairIttEEfN20TextRenderingPrivate8FontImpl14KerningCompareENS2_9allocatorINS3_IS4_fEEEEEEEvRT_17TransferMetaFlags
sDe:_TlsServerFinished__ctor_m1445633918
sLd:_NumberFormatter_FastIntegerToString_m390846811
Jvi:__ZL68RuntimePlatform_t4159857903_CustomAttributesCacheGenerator_WP8PlayerP21CustomAttributesCache
rWb:__ZN25DeferredRenderLoopScratchD0Ev
nx:__ZN27AnimationLayerMixerPlayable14SetInputWeightEif
Krd:_PhysicsRaycaster_Raycast_m776323695
ozg:_UnityException__ctor_m1456865679
Nu:__ZN7mecanim9animation17EvaluateHumanPoseERKNS0_18ClipMuscleConstantERKNS0_15ClipMuscleInputEPKfRKNS0_12MotionOutputERNS_5human9HumanPoseE
_xf:_PKCS1_Encrypt_v15_m1016948107
hja:__ZN15dense_hashtableINSt3__24pairIKiN4core17string_with_labelILi1EEEEEi18SInt32HashFunctionN14dense_hash_mapIiS5_S7_NS0_8equal_toIiEE13stl_allocatorIS6_L18MemLabelIdentifier1ELi16EEE9SelectKeyESA_SD_E9copy_fromERKSG_j
Gje:_CustomAttributeNamedArgument_GetHashCode_m2317130892
Ogb:__ZN15ResourceManagerD0Ev
hRe:_WellKnownClientTypeEntry_ToString_m1119458503
e5:__ZN22CreateGpuProgramOutputD2Ev
e$h:_List_1_get_Item_m1378751541_gshared
WLf:_SHA1CryptoServiceProvider_Finalize_m1793183797
YYg:_HashSet_1_System_Collections_Generic_ICollectionU3CTU3E_CopyTo_m408073502_gshared
$ze:_EncryptedPrivateKeyInfo_get_EncryptedData_m491452551
Kmb:__ZN12HandlerChain4OpenER13FileEntryData14FilePermission16FileAutoBehavior
fph:__Z72RuntimeInvoker_Void_t1185182177_Int32_t2950945753_RaycastHit_t1056001966PFvvEPK10MethodInfoPvPS4_
rEj:__ZN15dense_hashtableINSt3__24pairIK10KeyWrapperINS1_IPK10MethodInfoP11Il2CppClassEEEjEES9_17ReflectionMapHashIS8_EN14dense_hash_mapIS9_jSD_NS9_14EqualsComparerINS0_8equal_toIS8_EEEENS0_9allocatorISB_EEE9SelectKeyESI_SK_E6insertERKSB_
MIc:__ZN27PerformanceReportingManager29OnSceneLoadedAfterAwakeStaticEPS_iR18AwakeFromLoadQueueN19RuntimeSceneManager11LoadingModeE
GEg:_UTF8Encoding_GetCharCount_m2272165989
K1d:_Array_SetValue_m394135409
J1:__ZN14FileCacherReadD2Ev
Mjb:__ZN13RendererScene23UpdatePreviousFrameDataEii
oTf:_String_Remove_m562998446
Clc:__Z50Register_UnityEngine_CullingGroup_FinalizerFailurev
JOf:_SecurityPermission_IsSubsetOf_m545000671
ukb:__ZN27UnloadUnusedAssetsOperationD0Ev
Jbk:__ZNKSt3__221__basic_string_commonILb1EE20__throw_out_of_rangeEv
llg:_Cursor_get_lockState_m2828192107
GAj:_UpdatedEventHandler_Invoke_m1320302085
eG:__ZN9AudioClip23VirtualRedirectTransferER18StreamedBinaryReadILb0EE
B$h:_List_1_AddEnumerable_m2724989594_gshared
Zhh:__Z82RuntimeInvoker_Vector2_t2156229523_Vector2_t2156229523_RuntimeObject_RuntimeObjectPFvvEPK10MethodInfoPvPS4_
pIa:__ZN18GlslGpuProgramGLESC2ERK13dynamic_arrayIhLj1EER22CreateGpuProgramOutput
Lrc:__Z70Register_UnityEngine_Playables_PlayableHandle_GetPlayableType_Injectedv
Uye:_ARC4Managed_TransformBlock_m1687647868
Pj:_glCopyTexSubImage2D
tzg:_UnitySynchronizationContext_ExecuteTasks_m1310741010
CKf:_RIPEMD160Managed_CompressFinal_m497690796
P$b:__ZN18ScreenManagerWebGL13SetShowCursorEb
MLb:__ZN13DrawImmediateC2ER9GfxDevice
g9j:_frexp
Iqb:__Z18Transfer_BlittableI14SafeBinaryReadLb0E5RectTIfEEvRK29SerializationCommandArgumentsR31RuntimeSerializationCommandInfo
sOd:_NumberFormatter_NumberToString_m2562899600
Q_c:_otv_u_C_x_Ox
Vxa:__ZN18AsyncUploadManager19AsyncResourceUploadER9GfxDeviceii9TextureID
fva:__ZN14GfxContextGLES14GetFramebufferEv
pkk:_emscripten_glGenVertexArrays__wrapper
qNg:_Version_Clone_m1749041863
Qza:__ZN6prcoreL21CreateRemapAnyBlitterE13TextureFormatS0_
xAe:_RSAManaged_ExportParameters_m1754454264
Pgc:__ZN17AnimationCurveTplIfE16StripInvalidKeysEv
D4d:_Boolean_Equals_m535526264_AdjustorThunk
Wbd:__ZNK2UI6Canvas17GetSortingLayerIDEv
oPc:__ZN14Raycast2DQuery8RunQueryEb
c7b:__Z13RegisterClassI17GlobalGameManagerEvv
Y6:__ZN8Renderer24SetupNewRendererForSceneEv
_Ig:_Type_internal_from_name_m1721940673
S2f:_Environment_get_TickCount_m2088073110
cOe:_RemotingServices_GetMethodBaseFromName_m3194612939
IFc:__Z35Transfer_Blittable_FixedBufferFieldI8JSONReadtEvRK29SerializationCommandArgumentsR31RuntimeSerializationCommandInfo
Idc:__ZN14PlayableOutput6HandleEv
E7a:__ZNK6Sprite22GetTypeVirtualInternalEv
pod:__ZN13RuntimeStaticINSt3__26vectorI23UnityVRDeviceDefinition13stl_allocatorIS2_L18MemLabelIdentifier90ELi16EEEELb0EE13StaticDestroyEPv
En:FUNCTION_TABLE_iiiiiiiiiiiiii
H$c:_UNITY_tt_get_cmap_info
uxb:__Z29Transfer_Blittable_ArrayFieldI24GenerateTypeTreeTransfer5RectTIiEEvRT_R9ArrayInfoRK23StaticTransferFieldInfo
MYa:__ZN16ReflectionProbes8ScheduleEN18ReflectionProbeJob7JobTypeEP15ReflectionProbei
wDe:_ClientSessionInfo_KeepAlive_m1020179566
ecd:__ZN13dynamic_arrayIN2UI13UIInstructionELj4EE12emplace_backEv
kNa:__Z18IsDirectoryCreatedRKN4core12basic_stringIcNS_20StringStorageDefaultIcEEEE
wOf:_String_FormatHelper_m3913915042
Vad:__ZN2UI13CanvasManagerD2Ev
lje:_ConstructorInfo__cctor_m1016079270
Rrj:__ZN15dense_hashtableINSt3__24pairIK10KeyWrapperIPKcEP11Il2CppClassEES5_N6il2cpp5utils11StringUtils12StringHasherIS4_EEN14dense_hash_mapIS5_S8_SE_NS5_14EqualsComparerINSB_13VmStringUtils21CaseSensitiveComparerEEENS0_9allocatorIS9_EEE9SelectKeyESJ_SL_E15set_deleted_keyERKS9_
I$d:_AttrListImpl_get_Names_m977594476
O7c:_UNITY_FT_GlyphLoader_Done
$te:_Pointer_Box_m389276611
IPc:__ZN19OverlapPointQuery2D14InitializeAABBER6b2AABB
G0f:_StackTrace_get_FrameCount_m344690939
HVd:_UnexceptionalStreamWriter_Write_m363195622
j8c:__ZN20TextRenderingPrivate25ReadFontFileAndAddToCacheERKN4core12basic_stringIcNS0_20StringStorageDefaultIcEEEE
I0c:_tt_cmap14_char_var_index
soj:_Physics2D_Raycast_m1700114981
ahf:_Selectable_OnPointerDown_m1086067264
T4c:_psh_globals_new
rzd:_Dropdown_SetupTemplate_m628218778
ZEg:_Thread_GetCompressedStack_m2923422412
t9d:_SynchronizedArrayListWrapper_CopyTo_m4207791406
tEf:_X509BasicConstraintsExtension_ToString_m1809935297
Epa:__ZN9GfxDevice20SetMaxBufferedFramesEi
ycj:_TweenRunner_1_StartTween_m1055628540_gshared
xJc:__ZN10Collider2D19WakeAllBodyContactsEv
KRi:_GameObject_GetComponents_TisRuntimeObject_m1246177135_gshared
dek:dynCall_vdd
sWd:_MethodAccessException__ctor_m3542088436
U1b:__Z23ConvertIntegerToTypePtrIsEbPvR14SafeBinaryRead
JLc:__ZN12b2MouseJoint11ShiftOriginERK6b2Vec2
GUg:_EqualityComparer_1_System_Collections_IEqualityComparer_GetHashCode_m2230215241_gshared
oKi:__ZL60ContentSizeFitter_t3850442145_CustomAttributesCacheGeneratorP21CustomAttributesCache
Bbe:_Hashtable_Contains_m2145146412
Ppi:__ZL64UnmarshalledAttribute_t1517743549_CustomAttributesCacheGeneratorP21CustomAttributesCache
Sfc:__ZN4Mesh24UpdateSubMeshVertexRangeEi
hLd:_Int32_FindCurrency_m3541026887
iKf:_Interval_CompareTo_m3282557545
olk:_pthread_cond_wait__wrapper
EVb:__ZNK14RenderSettings19GetFlatAmbientColorEv
qza:__ZN6prcoreL10inner_flipILj4EEEvPhS1_j
wfb:__ZN18StreamedBinaryReadILb0EE21TransferSTLStyleArrayI10vector_mapIPKN5Unity4TypeE7Hash128NSt3__24lessIS6_EENS8_9allocatorINS8_4pairIS6_S7_EEEEEEEvRT_17TransferMetaFlags
kz:__ZNK27StateMachineBehaviourPlayer15IsSenderEnabledEv
RJd:_RijndaelManagedTransform_TransformBlock_m1610137419
oqc:__Z40Register_UnityEngine_Transform_SetParentv
t9a:__ZN14Texture2DArray17UploadToGfxDeviceEv
_J:__Z14FMODMemoryFreePvjPKc
Img:_NetFxCoreExtensions_GetMethodInfo_m444570327
JTb:__Z14SetSHConstantsR13BatchRendererR17ShaderPassContextRK20SphericalHarmonicsL2b
c6d:_Char_System_IConvertible_ToDecimal_m3534906463
TXc:_cf2_glyphpath_moveTo
LQc:__ZNK13BoxCollider2D22GetTypeVirtualInternalEv
xxg:_StackTraceUtility_SetProjectFolder_m830524047
Nv:__ZN7mecanim23TransformValueArrayLoopEiiiRKN4math4trsXES3_RNS_10ValueArrayEf
LDe:_ClientSessionInfo_Finalize_m2165787049
Xyc:__ZN5IMGUI14GUIWindowStateD2Ev
ICe:_ClientContext_Clear_m1774063253
cgc:__ZN4Mesh17SetIndicesComplexEPKvjj16GfxPrimitiveTypeij
mXf:_DateTime_AddSeconds_m332574389_AdjustorThunk
hzg:_RequestAtlasCallback_Invoke_m378128467
k5d:_Byte_System_IConvertible_ToSByte_m1869482168
G7g:__Z99RuntimeInvoker_RuntimeObject_RuntimeObject_RuntimeObject_StreamingContext_t3711869237_RuntimeObjectPFvvEPK10MethodInfoPvPS4_
A7i:_AnalyticsEventTracker_Awake_m2780522130
dC:__ZN7mecanim5human10RetargetToEPKNS0_5HumanEPKNS0_9HumanPoseES6_RKN4math4trsXEPS4_PNS_8skeleton13SkeletonPoseTIS8_EESF_
Fv:__ZN7mecanim9animation8SeekClipERKNS0_12StreamedClipERNS0_18StreamedClipMemoryEf
Sng:_GameObject_Internal_AddComponentWithType_m3797731663
wm:_emscripten_glIsTexture
bl:_emscripten_glHint
E6i:_Check_SourceAndPredicate_m2332465641
hUc:__ZZN10Collider2D15InitializeClassEvEN30FunctorImpl_98kDidAddComponent4CallEPviR11MessageData
dhh:__Z67RuntimeInvoker_Boolean_t97287965_TextGenerationSettings_t1351628751PFvvEPK10MethodInfoPvPS4_
C3c:_ft_var_readpackeddeltas
NPf:_String_op_Inequality_m215368492
yAb:__Z35Transfer_Blittable_FixedBufferFieldI18StreamedBinaryReadILb1EEtEvRK29SerializationCommandArgumentsR31RuntimeSerializationCommandInfo
iLg:_UInt32_System_IConvertible_ToInt64_m2261037378
zm:_SDL_UpperBlit
IYa:__Z35GetTextureDecodeValuesWithIntensity16TextureUsageMode17TextureColorSpace10ColorSpacef
L8f:_Array_InternalArray__ICollection_Remove_TisChar_t3634460470_m4143749387_gshared
_Lb:__ZN15dense_hashtableINSt3__24pairIK9TextureIDiEES2_14GfxGenericHashIS2_EN14GfxDoubleCacheIS2_iS6_NS0_8equal_toIS2_EEN31GfxDoubleCacheConcurrencyPolicy11LocklessGetE42GfxDoubleCacheDefaultEmptyDeletedGeneratorIS2_EE9SelectKeyES9_13stl_allocatorIS4_L18MemLabelIdentifier24ELi16EEE14squash_deletedEv
LIj:__ZN15dense_hashtableINSt3__24pairIK10KeyWrapperINS1_IPK9EventInfoP11Il2CppClassEEEjEES9_17ReflectionMapHashIS8_EN14dense_hash_mapIS9_jSD_NS9_14EqualsComparerINS0_8equal_toIS8_EEEENS0_9allocatorISB_EEE9SelectKeyESI_SK_E15set_deleted_keyERKSB_
ELc:__ZNK12b2MouseJoint10GetAnchorAEv
CBg:_Encoding_GetBytes_m3823106599
GWf:_GregorianCalendar__ctor_m979779718
_Ge:_SslClientStream__ctor_m2402546929
tGb:__ZN14SafeBinaryRead20OverrideRootTypeNameEPKc
HAf:_DictionaryNodeEnumerator_get_Entry_m2309234501
N1:__ZN14FileCacherRead16UnlockCacheBlockEj
raa:__ZN10InstancingL21OnGraphicsCapsChangedEv
ZGg:_WaitHandle_get_Handle_m3260446580
uPh:_Enumerator_VerifyState_m1745883925_AdjustorThunk
Tc:_emscripten_glUniform1f
yce:_SortedList__ctor_m1261191695
s6b:__ZN13dynamic_arrayIS_I8Vector2fLj4EELj4EE18resize_initializedEjRKS1_12ResizePolicy
r8c:__Z20ParseImageParametersR11UTF16StringRiRN20TextRenderingPrivate16TextFormatChangeE
dKi:__ZL55CanvasScaler_t2767979955_CustomAttributesCacheGeneratorP21CustomAttributesCache
Yc:_emscripten_glUniform1i
Svb:__Z18Transfer_BlittableI24GenerateTypeTreeTransferLb1EN4math12int3_storageEEvRK29SerializationCommandArgumentsR31RuntimeSerializationCommandInfo
Umf:__Z14bankers_roundff
bla:__ZN9ShaderLab16SerializedTagMapaSERKS0_
yS:__ZN11UnityEngine15CloudWebService16SessionContainer20RestoreSessionHeaderERKN4core12basic_stringIcNS2_20StringStorageDefaultIcEEEES8_RNS0_13SessionHeaderE
G5j:__ZN6il2cpp2os12Cryptography23GetCryptographyProviderEv
rD:__ZN11UnityEngine9Animation27CreateAvatarBindingConstantER9TransformPKN7mecanim9animation14AvatarConstantERNS3_6memory9AllocatorE
W6g:__Z151RuntimeInvoker_RuntimeObject_Int32_t2950945753_RuntimeObject_ObjectU5BU5DU26_t712384779_RuntimeObject_RuntimeObject_RuntimeObject_ObjectU26_t2146539884PFvvEPK10MethodInfoPvPS4_
Kjc:__ZN9BlobWriteC2ER13dynamic_arrayIhLj16EE24TransferInstructionFlags19BuildTargetPlatform
bwd:_CanvasUpdateRegistry__ctor_m2005397069
$$:__ZN14MessageHandler3GetEv
xre:_MonoMethodInfo_GetCallingConvention_m3156036493
Bxa:__ZN10DynamicVBO9DrawChunkERK21DynamicVBOChunkHandle17ShaderChannelMaskS3_P17VertexDeclarationPKNS_10DrawParamsEi
vjf:_LayoutGroup_SetLayoutInputForAxis_m2458344630
kd:_emscripten_glAttachShader
n4b:__Z16tesedgeIntersectP10TESSvertexS0_S0_S0_S0_
Dpa:__ZN9GfxDevice13SetActiveTierE12GraphicsTier
TDd:_Image__cctor_m1927508576
tla:__ZNSt3__26vectorIN4core12basic_stringIcNS1_20StringStorageDefaultIcEEEENS_9allocatorIS5_EEE6assignIPS5_EENS_9enable_ifIXaasr21__is_forward_iteratorIT_EE5valuesr16is_constructibleIS5_NS_15iterator_traitsISC_E9referenceEEE5valueEvE4typeESC_SC_
D5j:__ZN6il2cpp6icalls8mscorlib6System21CurrentSystemTimeZone15GetTimeZoneDataEiPP11Il2CppArrayS6_
pqb:__Z18Transfer_BlittableI14SafeBinaryReadLb0E11QuaternionfEvRK29SerializationCommandArgumentsR31RuntimeSerializationCommandInfo
IQc:__ZN13BoxCollider2D16CheckConsistencyEv
EDb:__Z18Transfer_BlittableI18StreamedBinaryReadILb0EELb1E12PropertyNameEvRK29SerializationCommandArgumentsR31RuntimeSerializationCommandInfo
bX:_tlsf_walk_heap
L6g:__Z49RuntimeInvoker_Void_t1185182177_OpCode_t123070264PFvvEPK10MethodInfoPvPS4_
Ege:_Convert_ToUInt32_m3592050311
ob:invoke_vif
zRi:_Component_GetComponents_TisRuntimeObject_m2416546752_gshared
pb:invoke_vid
$bk:__ZNSt3__212basic_stringIcNS_11char_traitsIcEENS_9allocatorIcEEE6insertEjPKc
rb:invoke_vii
fPb:__ZNK12ImageFilters8DoRenderER17ShaderPassContextP13RenderTextureS3_RKNSt3__26vectorI11ImageFilterNS4_9allocatorIS6_EEEE
YLa:__ZN12TLSAllocatorI14StackAllocatorE16ThreadInitializeEP13BaseAllocator
j8g:__Z82RuntimeInvoker_Boolean_t97287965_SByte_t1669577662_RuntimeObject_SByte_t1669577662PFvvEPK10MethodInfoPvPS4_
cqa:__ZN9GfxDevice32UpdateStereoViewProjectionMatrixE21MonoOrStereoscopicEye
Wdd:__Z41CanvasRenderer_CUSTOM_DisableRectClippingP12Il2CppObject
DXd:_MonoType_GetConstructorImpl_m441167626
zyd:_DefaultControls_CreateRawImage_m4219873755
Oth:_Collection_1_IsFixedSize_m3709118201_gshared
gQa:__ZN25SingleBlockMemoryFileDataD0Ev
dMa:__ZNSt3__26vectorI14ConstantStringNS_9allocatorIS1_EEE6assignINS_11__wrap_iterIPS1_EEEENS_9enable_ifIXaasr21__is_forward_iteratorIT_EE5valuesr16is_constructibleIS1_NS_15iterator_traitsISA_E9referenceEEE5valueEvE4typeESA_SA_
tS:__ZN11UnityEngine15CloudWebService16SessionContainer21ConvertFromFolderTimeERKN4core12basic_stringIcNS2_20StringStorageDefaultIcEEEEPjPt
iGd:_CodeAccessPermission_Equals_m1555575992
asb:__ZNSt3__26vectorI8GUIStyle13stl_allocatorIS1_L18MemLabelIdentifier1ELi16EEE7reserveEj
COj:__ZN6il2cpp6icalls8mscorlib6System9Threading6Thread27GetSerializedCurrentCultureEP12Il2CppThread
gEe:_Context_set_ReadSequenceNumber_m2154909392
MJd:_RijndaelTransform_SubByte_m3037693507
Hjg:_Camera_ScreenToWorldPoint_m3978588570
I3b:__Z31CalculateHierarchyTransformType23TransformAccessReadOnly
z7b:__Z13RegisterClassI11TimeManagerEvv
RJ:__ZN4FMOD8ChannelI11setPositionEjj
wog:_Input_INTERNAL_CALL_GetTouch_m3481893561
z1j:_GC_set_fl_marks
Thb:__ZNSt3__26vectorIN30RuntimeInitializeOnLoadManager15ClassMethodInfoE13stl_allocatorIS2_L18MemLabelIdentifier13ELi16EEE7reserveEj
fqa:__ZN9GfxDevice17SetStereoViewportE15StereoscopicEyeRK5RectTIiE
Jga:__ZN17BaseObjectManager13StaticDestroyEPv
Wkj:_CanvasRenderer_INTERNAL_CALL_GetColor_m597074473
X4e:_Comparer_1__cctor_m3891417387_gshared
rEg:_UTF7Decoder_GetChars_m3413809261
dme:_EnumBuilder_GetEvent_m4074915332
Jh:_sysconf
Hyg:_Vector3_get_forward_m3100859705
JI:__ZN4FMOD6Reverb13setPropertiesEPK22FMOD_REVERB_PROPERTIES
SQb:__ZN9DepthPass13PrepareSubsetEjRK10RenderNodeifRK17ShaderReplaceData
vSf:_String_IndexOf_m3406607758
gka:__ZN9ShaderLab20SerializedSubProgram16TextureParameter8TransferI14SafeBinaryReadEEvRT_
jgc:__Z35SetMeshComponentFromArrayFromScriptR4Mesh30InternalScriptingShaderChannel34InternalScriptingVertexChannelTypei17ScriptingArrayPtri
reg:_Array_InternalArray__ICollection_Add_TisCustomAttributeNamedArgument_t287865710_m4157175270_gshared
Bq:__ZN4core20StringStorageDefaultIcE6assignEPKcj
nMg:_UInt64_System_IConvertible_ToUInt64_m2135047981_AdjustorThunk
Cxe:_BigInteger_ModPow_m3776562770
ZUj:__ZN15dense_hashtableINSt3__24pairIK10KeyWrapperIP12Il2CppObjectEN6il2cpp2gc9CachedCCWEEES5_NS7_5utils11PointerHashIS3_EEN14dense_hash_mapIS5_S9_SD_NS5_14EqualsComparerINS0_8equal_toIS4_EEEENS0_9allocatorISA_EEE9SelectKeyESI_SK_E3endEv
fGe:_RecordProtocol_ProcessChangeCipherSpec_m15839975
G7d:_ArrayList_IndexOf_m305368842
TZb:__ZN6Camera6SetFarEf
zRe:_FormatterConverter_ToBoolean_m1680758923
GAa:__ZN6prcoreL12RemapGenericI17TexFormatABGR888817TexFormatARGB8888EEvPKNS_9InnerInfoE
cRa:__ZN11GameManager17MainThreadCleanupEv
MBh:_ReadOnlyCollection_1__ctor_m1345363288_gshared
Bfd:__Z50Register_UnityEngine_UISystemProfilerApi_EndSamplev
Ob:invoke_vffff
poj:_Physics2D_Raycast_m2082490717
TQc:__ZN10Collider2D12AddToManagerEv
ySe:_SerializationCallbacks_GetSerializationCallbacks_m2939476649
hbe:_Hashtable__cctor_m4112166779
l2c:_UNITY_tt_slot_init
$Mb:__ZZ23InitPlayerLoopCallbacksvEN41PostLateUpdateUpdateResolutionRegistrator7ForwardEv
pFb:__Z25scripting_array_class_get17ScriptingClassPtrj
KDc:__ZL22Transfer_ManagedObjectI9JSONWriteLb1EEvRK29SerializationCommandArgumentsR31RuntimeSerializationCommandInfo
OF:__ZNK10SampleClip22GetTypeVirtualInternalEv
ora:__ZN9GfxDevice20DestroyRenderSurfaceER12ObjectHandleI17RenderSurface_TagP17RenderSurfaceBaseE
mde:_Stack__ctor_m2602729586
W5b:__ZL24PrepareSpriteRenderNodesILb1EEvR35RenderNodeQueuePrepareThreadContext
uKa:__ZN9GfxDevice22UpdateComputeResourcesEjPK9TextureIDPK16TextureDimensionPKijPKjjPK15ComputeBufferIDS7_PK20ComputeBufferCounterjSC_S2_S5_S9_SF_
C2:__ZN12_GLOBAL__N_15qAsinEff
gXe:_InternalEnumerator_1_System_Collections_IEnumerator_get_Current_m2629988057_AdjustorThunk
ZLa:__ZN12TLSAllocatorI14StackAllocatorE13ThreadCleanupEv
ZQg:_Dictionary_2_get_Item_m2136868513_gshared
g$j:__ZThn4_N6il2cpp2vm13ComObjectBase16MarshalInterfaceEP13Il2CppIStreamRK10Il2CppGuidPvjS7_j
_ee:_Convert_ToDouble_m996590115
bIb:__Z27FindActiveTransformWithPathPKc
ZFh:_ReadOnlyCollection_1_System_Collections_IList_Remove_m4169110229_gshared
OKg:_UInt16_ToString_m3020002356
Tjf:_LayoutRebuilder_LayoutComplete_m68578143
O4i:_GUIStyle_get_fixedWidth_m2576616348
gMf:_SHA1Internal_Initialize_m499810128
XY:__ZNK6Camera7GetNearEv
Vme:_GenericTypeParameterBuilder_GetConstructorImpl_m863833310
r9e:_Enumerator_get_Current_m3687673883_AdjustorThunk
BDa:__ZN7ApiGLES11UnmapBufferEjN2gl12BufferTargetE
u$j:__ZN6il2cpp5utilsL24Utf32CharToSurrogatePairEjRA2_Ds
m4a:__Z25GetNextAllowedTextureSizeib13TextureFormat
VHb:__ZN20LocalFileSystemWebGL4CopyER13FileEntryDataS1_
aV:__ZN19CloudServiceHandler6RetainEv
DCh:_ReadOnlyCollection_1_System_Collections_IList_IndexOf_m198887188_gshared
b0j:__GLOBAL__sub_I_Assembly_cpp_39422
Gzc:__Z36Event_CUSTOM_Internal_SetNativeEventPv
JDg:_UTF32Encoding_GetBytes_m3180303867
l4:__ZN12BaseRenderer20FlattenToRenderQueueER15RenderNodeQueueRK20DeprecatedSourceData
lEh:_ReadOnlyCollection_1_System_Collections_IList_Clear_m2007013334_gshared
Jkb:__Z34scripting_liveness_calculation_endPv
TWj:__ZN6il2cpp2os6ThreadC2Ev
ZYf:_DateTimeOffset_get_UtcDateTime_m1021718282_AdjustorThunk
av:__ZN21AnimationClipPlayable22ProcessAnimationNoClipEPK35AnimationPlayableEvaluationConstantPK32AnimationPlayableEvaluationInputP33AnimationPlayableEvaluationOutput
dAf:_HybridDictionary_get_Count_m1166314536
jVi:_TlsStream_Write_m1412844442
kFc:__Z18Transfer_BlittableI8JSONReadLb0E8Vector3fEvRK29SerializationCommandArgumentsR31RuntimeSerializationCommandInfo
UMj:__ZN6il2cpp2vm6Thread6DetachEP12Il2CppThread
MVi:_GeneralNames_get_DNSNames_m3788548987
g5c:_Render_Single_Pass
vVc:__GLOBAL__sub_I_runtime_dynamics_2_cpp
xD:__ZN7mecanim8skeleton30SkeletonBuildReverseIndexArrayEPiPKiPKNS0_8SkeletonES6_
Lxc:__Z19GetGUIBlendMaterialv
hWd:_Math_Round_m3018379666
IXj:__ZN6il2cpp2os10ThreadImpl5SleepEjb
mBh:_ReadOnlyCollection_1_System_Collections_Generic_IListU3CTU3E_set_Item_m519295790_gshared
FCh:_ReadOnlyCollection_1_System_Collections_IList_Remove_m1965826685_gshared
UDc:__ZN9JSONWrite8TransferI13GUIStyleStateEEvRT_PKc17TransferMetaFlags
$$f:_Delegate_CreateDelegate_m1051651521
T9f:_PlayableHandle_IsPlayableOfType_TisRuntimeObject_m503495943_AdjustorThunk
Qjk:_glBindSampler__wrapper
VQa:__ZNSt3__26vectorIN20ArchiveStorageHeader12StorageBlockE13stl_allocatorIS2_L18MemLabelIdentifier55ELi16EEE8__appendEj
Rf:_emscripten_set_mouseup_callback
Wpg:_Mathf_Clamp_m3350697880
w8g:__Z165RuntimeInvoker_Void_t1185182177_UInt32U26_t3735378166_Int32_t2950945753_UInt32U26_t3735378166_Int32_t2950945753_Int32_t2950945753_Int32_t2950945753_Int32_t2950945753PFvvEPK10MethodInfoPvPS4_
dSh:_List_1_System_Collections_IList_Remove_m3140917266_gshared
T_i:_CompositeExpression__ctor_m2434860303
vHf:_X509ChainElementCollection_System_Collections_IEnumerable_GetEnumerator_m3829089536
T$b:__ZNK18ScreenManagerWebGL8GetWidthEv
LF:__ZN10SampleClipD2Ev
NLh:_Predicate_1_Invoke_m2389850270_gshared
ckb:__Z13GetGISettingsv
t5b:__ZN19SpriteMeshGenerator7contourERNSt3__26vectorINS_6vertexENS0_9allocatorIS2_EEEERiRf
MU:__ZN11UnityEngine15CloudWebService20WebRequestRestClientC2Ev
EZc:_cff_cmap_unicode_init
X7f:_Array_InternalArray__ICollection_Contains_TisRuntimeObject_m4067783231_gshared
w3h:_Collection_1_IsValidItem_m3080586124_gshared
Dwd:_ClipperRegistry_Register_m2407166513
Aak:_readlink
mGj:__ZN15dense_hashtableINSt3__24pairIK10KeyWrapperINS1_IPK9EventInfoP11Il2CppClassEEEjEES9_17ReflectionMapHashIS8_EN14dense_hash_mapIS9_jSD_NS9_14EqualsComparerINS0_8equal_toIS8_EEEENS0_9allocatorISB_EEE9SelectKeyESI_SK_E12resize_deltaEjj
sre:_MonoCMethod_Invoke_m2700167622
dce:_KeyMarker__cctor_m2590194914
F5j:__ZN6il2cpp8metadata14Il2CppTypeHash4HashEPK10Il2CppType
Q6e:_Enumerator_Reset_m627751027_AdjustorThunk
xwc:_consume_markers
Edb:__ZNK6Sprite9GetBoundsE8Vector2fbb
sUa:__ZNK19RenderEventsContext21CleanupCommandBuffersEv
fkj:_TextGenerator_PopulateWithErrors_m1222498386
hFh:_ReadOnlyCollection_1_System_Collections_Generic_ICollectionU3CTU3E_Clear_m2102011098_gshared
iva:__ZN11ContextGLES6CreateEi
AVh:_List_1_set_Capacity_m3382070520_gshared
rif:_U3CMouseDragOutsideRectU3Ec__Iterator1_Dispose_m267465418
Z_f:_Decimal_CompareTo_m3502307243_AdjustorThunk
sEb:__Z19TransferField_ArrayI18StreamedBinaryReadILb0EE27Converter_SimpleNativeClassI17AnimationCurveTplIfEEEvRK23StaticTransferFieldInfoR31RuntimeSerializationCommandInfoRT0_
ALa:__ZN14StackAllocator16FrameMaintenanceEb
iUc:__ZZN10Collider2D15InitializeClassEvEN33FunctorImpl_99kDidRemoveComponent4CallEPviR11MessageData
Tmf:_Scrollbar_get_value_m760470106
aZ:__ZNK10GameObject20QueryComponentByTypeEPKN5Unity4TypeE
m_f:_Decimal_System_IConvertible_ToInt32_m1488426794_AdjustorThunk
KWd:_MonoCustomAttrs_IsUserCattrProvider_m2878058089
IHi:__ZL71InputField_t3762917431_CustomAttributesCacheGenerator_m_HideMobileInputP21CustomAttributesCache
y3a:__ZN11TextureData5ResetEv
kmc:__Z53Register_UnityEngine_GameObject_get_activeInHierarchyv
INf:_ToBase64Transform_InternalTransformFinalBlock_m360524956
P$d:_ActivationContext_Dispose_m2038725770
r$:__ZL30InitializeCoreScriptingClassesv
Og:_glBlitFramebuffer
Ptb:__Z35Transfer_Blittable_SingleValueFieldI14SafeBinaryReadhEvRT_R17GeneralMonoObjectRK23StaticTransferFieldInfo
Iec:__ZN12CachedWriter15CompleteWritingEv
D2a:__ZNK12CubemapArray22GetTypeVirtualInternalEv
bo:FUNCTION_TABLE_vif
co:FUNCTION_TABLE_vid
fo:FUNCTION_TABLE_vii
Ukb:__Z40scripting_liveness_calculation_from_root18ScriptingObjectPtrPv
A$a:__ZN7Texture23VirtualRedirectTransferER24GenerateTypeTreeTransfer
h7c:_UNITY_FT_Set_Transform
aUj:__ZN6il2cpp8metadata15GenericMetadata20RegisterGenericClassEP18Il2CppGenericClass
tjk:_glDeleteFramebuffers__wrapper
T4g:__Z220RuntimeInvoker_Boolean_t97287965_RuntimeObject_Int32U26_t1369213839_Int32_t2950945753_Int32_t2950945753_Int32_t2950945753_RuntimeObject_SByte_t1669577662_Int32_t2950945753_ContractionU26_t961830454_ContextU26_t3937453398PFvvEPK10MethodInfoPvPS4_
MXc:_cff_blend_build_vector
xDf:_WebHeaderCollection_ToString_m1263025316
nbc:__ZZN12MeshRenderer15InitializeClassEvEN29FunctorImpl_134kDidDeleteMesh4CallEPviR11MessageData
Ate:_GetterAdapter_Invoke_m3767885970
BWh:_List_1__ctor_m747758800_gshared
TTf:_String_CreateString_m2818852475
A6b:__Z22GenerateBoxTilingShapeP22GenerateTilingAreaInfo
J5a:__ZN28EnlightenRendererInformation8TransferI14SafeBinaryReadEEvRT_
slj:_CanvasRenderer_get_hasMoved_m2236392341
Drg:_MessageEvent__ctor_m1231650089
via:__ZNK15Lz4Decompressor16DecompressMemoryEPKvPjPvS2_
D0c:_UNITY_tt_face_build_cmaps
WTa:__Z11IsCoroutine18ScriptingMethodPtrRK22CommonScriptingClasses
h6b:__ZN4core8hash_mapINS_12basic_stringIcNS_20StringStorageDefaultIcEEEE10vector_setI4PPtrI11SpriteAtlasENSt3__24lessIS8_EE13stl_allocatorIS8_L18MemLabelIdentifier81ELi16EEENS_4hashIS4_EENS9_8equal_toIS4_EEEixERKS4_
Fh:_glGetAttribLocation
A1a:__Z35UnityPropertySheet_MakeSortedColorsRKNSt3__23mapIN9ShaderLab16FastPropertyNameE10ColorRGBAfNS_4lessIS2_EENS_9allocatorINS_4pairIKS2_S3_EEEEEER10vector_mapIS2_S3_S5_NS6_INS7_IS2_S3_EEEEE
Z$c:_UNITY_tt_face_load_os2
htb:__Z29Transfer_Blittable_ArrayFieldI14SafeBinaryRead8Vector4fEvRT_R9ArrayInfoRK23StaticTransferFieldInfo
_ie:_Default_check_arguments_m3882727959
LEg:_UTF8Encoding_GetMaxCharCount_m3762459613
jke:_ModuleBuilder_RegisterToken_m4166846047
SMb:__ZZ23InitPlayerLoopCallbacksvEN51PostLateUpdateUpdateCustomRenderTexturesRegistrator7ForwardEv
amf:_RawImage_OnPopulateMesh_m1115858855
Pwj:__ZN6il2cpp2vm13MetadataCache25GetStringLiteralFromIndexEi
p0d:_Hashtable_ToPrime_m33531354
yv:__ZN7mecanim9animation12EvaluateClipEPKNS0_4ClipEPKNS0_9ClipInputEPNS0_10ClipMemoryEPNS0_10ClipOutputE
Tyh:_Collection_1_IsSynchronized_m1117613618_gshared
kaf:_KeyCollection_System_Collections_Generic_ICollectionU3CTKeyU3E_Remove_m2555909644_gshared
TJg:_TypeInitializationException__ctor_m3546444694
Yhc:__ZNK9Transform16GetLocalRotationEv
kU:__ZN11UnityEngine15CloudWebService23WebRequestUploadHandler17ConsumeUploadDataEj
wjh:__Z68RuntimeInvoker_Void_t1185182177_Single_t1397266774_SByte_t1669577662PFvvEPK10MethodInfoPvPS4_
CSd:_MemoryStream_set_Position_m3169779190
LYb:__ZN13RenderManager29SetCurrentCameraAndStackStateEP6CameraP25CameraStackRenderingState
ord:_ExecuteEvents_get_scrollHandler_m2659345019
RSa:__ZNSt3__26__treeINS_12__value_typeIjN4core12basic_stringIcNS2_20StringStorageDefaultIcEEEEEENS_19__map_value_compareIjS7_NS_4lessIjEELb1EEE13stl_allocatorIS7_L18MemLabelIdentifier7ELi16EEE7destroyEPNS_11__tree_nodeIS7_PvEE
FMj:__ZN15dense_hashtableINSt3__24pairIK10KeyWrapperINS1_IP11Il2CppClassjEEES4_EES6_N6il2cpp8metadata14ArrayClassHashEN14dense_hash_mapIS6_S4_SB_NS6_14EqualsComparerINSA_17ArrayClassCompareEEENS0_9allocatorIS8_EEE9SelectKeyESF_SH_E12resize_deltaEjj
ci:_JS_WebRequest_Release
TS:__ZN11UnityEngine15CloudWebService14DataErrorEventD0Ev
ubk:_dispose_chunk
uQj:__ZN6il2cpp6icalls8mscorlib6System4Type20internal_from_handleEi
fLe:_Context__ctor_m254302079
YTj:__ZN6il2cpp8metadata15GenericMetadata7InflateEPK19Il2CppGenericMethodPK20Il2CppGenericContext
_4a:__ZN19ShaderPropertySheet16SetArrayPropertyEN9ShaderLab16FastPropertyNameENS_12PropertyTypeEPKvj
Bnf:_Selectable_FindSelectable_m2348614027
$zd:_DropdownItem_OnPointerEnter_m1492957598
Jad:__ZN2UI11CanvasGroup23VirtualRedirectTransferER19StreamedBinaryWriteILb0EE
dzc:__ZN8GUIState8EndOnGUIEv
s2c:_UNITY_TT_Get_VMetrics
W8d:_SimpleEnumerator__cctor_m2844299657
WVd:_LocalDataStoreSlot__ctor_m4104083971
qGh:_ReadOnlyCollection_1_System_Collections_Generic_IListU3CTU3E_RemoveAt_m3849058645_gshared
Jdj:_AudioSource_ReadExtensionName_m725112169
MXi:_X509CertificateEnumerator_System_Collections_IEnumerator_Reset_m2039524926
Fbh:__Z128RuntimeInvoker_Void_t1185182177_RuntimeObject_BooleanU26_t4125257963_SByte_t1669577662_Int32U26_t1369213839_Int32U26_t1369213839PFvvEPK10MethodInfoPvPS4_
$xa:__ZN7Texture21GetMasterTextureLimitEv
A_b:__Z12CanAddScriptR10GameObject17ScriptingClassPtrPS1_S2_
mJj:__ZN6il2cpp2vm10Reflection12HasAttributeEP12Il2CppObjectP11Il2CppClass
nJh:_Comparison_1_BeginInvoke_m3263247262_gshared
Naa:__ZN9ShaderLabL25StaticInitializeShaderLabEPv
U:Math_max
OJj:_il2cpp_class_get_methods
Rwg:_HitInfo_SendMessage_m1343099429_AdjustorThunk
Vvb:__Z18Transfer_BlittableI24GenerateTypeTreeTransferLb0EN4math12int2_storageEEvRK29SerializationCommandArgumentsR31RuntimeSerializationCommandInfo
F0f:_StackTrace_get_trace_m1194606084
uRf:_Single_CompareTo_m2785801815_AdjustorThunk
$Wj:__ZN6il2cpp2os6Thread16GetCurrentThreadEv
ghg:_Array_InternalArray__Insert_TisUILineInfo_t4195266810_m3191124053_gshared
Mcc:__ZN10GameObject13ComponentPair15SetComponentPtrEPN5Unity9ComponentE
Mhk:_glBlitFramebuffer__wrapper
l7b:__Z13RegisterClassI10MeshFilterEvv
Ayg:_Transform_INTERNAL_set_position_m3627767375
XSa:__ZN10TagManager8TransferI19StreamedBinaryWriteILb0EEEEvRT_
nkb:__ZN11PreloadData23VirtualRedirectTransferER18StreamedBinaryReadILb0EE
Usg:_PropertyNameUtils_PropertyNameFromString_Injected_m1259736140
a6d:_Char_System_IConvertible_ToDateTime_m3564102661
C7a:__ZN6Sprite17MainThreadCleanupEv
Vhk:_glBlendFuncSeparate__wrapper
wL:__ZN10AudioMixer14UpdateMuteSoloEv
iSa:__ZN9Transform35SetLocalPositionWithoutNotificationERKN4math7_float3Ey
mbh:__Z69RuntimeInvoker_UInt64_t4134040092_Int32_t2950945753_SByte_t1669577662PFvvEPK10MethodInfoPvPS4_
dj:_JS_Eval_ClearTimeout
_mk:_glDepthFunc__wrapper
Cmf:_Raycast2DCallback_Invoke_m1500574149
LCa:__ZN7ApiGLES16SetPatchVerticesEi
X0i:_CharacterClass_Compile_m3296067317
SYj:__ZN6il2cpp2gc16GarbageCollector16InvokeFinalizersEv
j5d:_Byte_System_IConvertible_ToInt64_m285584218_AdjustorThunk
lug:_Rect_get_size_m477575021_AdjustorThunk
npj:__ZN6il2cpp2vm5Class20FromGenericParameterEPK22Il2CppGenericParameter
zV:__ZN19CloudServiceHandler11FlushEventsEv
$fa:__ZN15GlobalCallbacksC2Ev
XLc:__ZN7b2World10CreateBodyEPK9b2BodyDef
S5e:_Comparer_1_System_Collections_IComparer_Compare_m2016223770_gshared
Dah:__Z74RuntimeInvoker_DateTime_t3738529785_DateTime_t3738529785_Int32_t2950945753PFvvEPK10MethodInfoPvPS4_
w8c:_UNITY_FT_New_Memory_Face
tvh:_Collection_1_System_Collections_IList_IndexOf_m3271188411_gshared
A6c:__ZN20TextRenderingPrivate21TextMeshGeneratorImpl5FlushEv
oSd:_MonoIO_GetFileStat_m678141354
o_c:_UNITY_FT_Load_Sfnt_Table
Fyd:__Z15CastclassSealedP12Il2CppObjectP11Il2CppClass
O_f:_Decimal_IsZero_m4250358244_AdjustorThunk
IVd:_UnmanagedMemoryStream_get_CanRead_m3770815400
sZb:__ZN16ReflectionProbes40UpdateRealtimeReflectionProbesTimeslicedEv
E_f:_Decimal_u64_m3374804932
kKg:_UInt16_System_IConvertible_ToInt32_m1950778303_AdjustorThunk
Chb:__ZNK30RuntimeInitializeOnLoadManager22GetTypeVirtualInternalEv
_tj:__ZN15dense_hashtableINSt3__24pairIK10KeyWrapperIN6il2cpp5utils13dynamic_arrayIPK10Il2CppTypeLj4EEEEPFvvEEESA_NS3_8metadata19Il2CppSignatureHashEN14dense_hash_mapISA_SD_SG_NSA_14EqualsComparerINSF_22Il2CppSignatureCompareEEENS0_9allocatorISE_EEE9SelectKeyESK_SM_E12resize_deltaEjj
vac:__ZN16ReflectionProbes15InitializeClassEv
iEh:_ReadOnlyCollection_1_System_Collections_ICollection_CopyTo_m2527663815_gshared
_Qi:_Dictionary_2_Do_ICollectionCopyTo_TisKeyValuePair_2_t3699644050_m4159638770_gshared
VRj:__ZN6il2cpp2vm5Image9GetCorlibEv
lAg:_Vector3_get_left_m2428419009
BA:__ZN8Animator13BatchedFKPassERK13dynamic_arrayIP14PlayableOutputLj4EE
o2j:_GC_reclaim_uninit
brd:_ExecuteEvents_Execute_m113814934
wca:__ZN13RuntimeStaticINSt3__23mapIN4core12basic_stringIcNS2_20StringStorageDefaultIcEEEES6_NS0_4lessIS6_EE13stl_allocatorINS0_4pairIKS6_S6_EEL18MemLabelIdentifier13ELi16EEEELb0EE13StaticDestroyEPv
vOi:_Array_qsort_TisColor32_t2600501292_m1362211604_gshared
Z5e:_Enumerator_System_Collections_IEnumerator_get_Current_m2979767597_AdjustorThunk
hJd:_MD5CryptoServiceProvider_ProcessFinalBlock_m2241588515
Lof:_ScrollRect_GetBounds_m449872505
ck:_glIsVertexArray
__d:_SmallXmlParser_Read_m3485223434
YKd:_Int16_Parse_m2276856944
fa:invoke_fff
oak:_mbsinit
y9f:_Array_InternalArray__ICollection_Remove_TisContactPoint2D_t3390240644_m284878234_gshared
wgk:b14
U9c:__ZN2UI6Canvas17MainThreadCleanupEv
oAa:__ZN6prcoreL12RemapGenericI17TexFormatARGB155517TexFormatRGBA8888EEvPKNS_9InnerInfoE
krj:__ZN13Il2CppHashMapIPK19Il2CppGenericMethodPK26Il2CppGenericMethodIndicesN6il2cpp8metadata23Il2CppGenericMethodHashENS7_26Il2CppGenericMethodCompareENSt3__29allocatorINSA_4pairIK10KeyWrapperIS2_ES5_EEEEEC2EjRKS8_RKS9_
Ppe:_TypeBuilder_HasElementTypeImpl_m1871001960
zQf:_SecurityFrame__ctor_m2140076703_AdjustorThunk
cUg:_DefaultComparer_Equals_m2458578172_gshared
nEa:__ZN7ApiGLES13CreateProgramEv
Y6e:_Enumerator_VerifyState_m4003066746_gshared
oya:__ZN4crnd12crn_unpackerD2Ev
qk:_emscripten_glTexImage2D
M4e:_Comparer_1_System_Collections_IComparer_Compare_m2537217645_gshared
f$:__ZN18ScriptingArguments9AddStringEPKc
I2j:_setup_header
$6d:_Char_ToString_m3588025615
Qwf:_CryptoConvert_ToCapiKeyBlob_m3371450375
wza:__ZL23stbir__resize_arbitraryPvPKviiiS_iiiffffPfiij14stbir_datatype12stbir_filterS4_10stbir_edgeS5_16stbir_colorspace
s5b:__ZN19SpriteMeshGenerator4maskC2EP11ColorRGBA32iihj
nwb:__Z18Transfer_BlittableI24GenerateTypeTreeTransferLb1E8Vector4fEvRK29SerializationCommandArgumentsR31RuntimeSerializationCommandInfo
Agk:b18
Bk:_pthread_detach
exj:__ZN6il2cpp2vm19SocketPollingThread7RunLoopEv
HAd:_FontUpdateTracker_UntrackText_m1981515690
RLi:__ZL64AnalyticsEventTracker_t2285229262_CustomAttributesCacheGeneratorP21CustomAttributesCache
qdc:__ZN15DirectorManager20ScheduleGraphDestroyERK14HPlayableGraph
fFb:__ZNSt3__213__stable_sortIRN10vector_mapI17ScriptingClassPtrPKN5Unity4TypeENS_4lessIS2_EENS_9allocatorINS_4pairIS2_S6_EEEEE13value_compareENS_11__wrap_iterIPSB_EEEEvT0_SJ_T_NS_15iterator_traitsISJ_E15difference_typeEPNSM_10value_typeEi
ztf:_SimpleCollator_FillSurrogateSortKeyRaw_m725998232
NYh:_List_1_AddEnumerable_m1284696147_gshared
KCf:_IPAddress_Equals_m1823478787
YLe:_Context_CreateNewContext_m3053563976
Wla:__ZN9ShaderLab25SerializedTextureProperty8TransferI24GenerateTypeTreeTransferEEvRT_
eHj:__ZN6il2cpp2gc19AppendOnlyGCHashMapINSt3__24pairIPK14Il2CppAssemblyP11Il2CppClassEEP24Il2CppReflectionAssembly17ReflectionMapHashIS9_ENS2_8equal_toIS9_EEEC2Ev
_yb:__Z18Transfer_BlittableI19StreamedBinaryWriteILb0EELb0EdEvRK29SerializationCommandArgumentsR31RuntimeSerializationCommandInfo
Zla:__ZN11NamedObject8TransferI18StreamedBinaryReadILb0EEEEvRT_
Emg:_InvokableCall_remove_Delegate_m1376110510
Abe:_Hashtable_Clear_m3112193608
tEg:_UTF8Encoding_InternalGetByteCount_m771565606
iGc:__Z18Transfer_BlittableI8JSONReadLb1EyEvRK29SerializationCommandArgumentsR31RuntimeSerializationCommandInfo
WTh:_List_1_System_Collections_IList_Remove_m3654336679_gshared
tsi:__ZL51GUILayer_t2783472903_CustomAttributesCacheGeneratorP21CustomAttributesCache
Yk:_emscripten_glMatrixMode
Tsc:_unity_z_inflate
kt:__ZN8Animator23VirtualRedirectTransferER18StreamedBinaryReadILb0EE
O6f:_Guid__ctor_m3562600567_AdjustorThunk
aWf:_DateTime_System_IConvertible_ToInt16_m3239820399
nS:__ZN11UnityEngine15CloudWebService14DataDispatcher16PrepareDataBlockERNS0_16SessionContainerE
WIa:__ZN18GfxFramebufferGLES5ClearE13GfxClearFlagsRK10ColorRGBAffib
Udg:_MonoProperty_StaticGetterAdapterFrame_TisRuntimeObject_m4131530968_gshared
JDb:__ZL26Transfer_SimpleNativeClassI18StreamedBinaryReadILb0EE10RectOffsetLb0EEvRK29SerializationCommandArgumentsR31RuntimeSerializationCommandInfo
VZe:_InternalEnumerator_1_get_Current_m2316281569_gshared
BQb:__ZL12DepthPassJobPN21GfxDeviceAsyncCommand10ArgScratchEPKNS_3ArgE
ika:__ZNSt3__26vectorIN9ShaderLab20SerializedSubProgram16TextureParameterENS_9allocatorIS3_EEE6assignINS_11__wrap_iterIPS3_EEEENS_9enable_ifIXaasr21__is_forward_iteratorIT_EE5valuesr16is_constructibleIS3_NS_15iterator_traitsISC_E9referenceEEE5valueEvE4typeESC_SC_
DBc:__ZN5Unity9rapidjson6WriterI16TempBufferWriterNS0_4UTF8IcEES4_13JSONAllocatorE11WriteDoubleEd
$Fg:_Thread_SetCachedCurrentUICulture_m1729523031
Sdd:__Z55Register_UnityEngine_CanvasGroup_get_ignoreParentGroupsv
M7b:__Z13RegisterClassI19LowerResBlitTextureEvv
HCe:_ClientContext_set_ClientHelloProtocol_m4189379912
$m:FUNCTION_TABLE_iiiiiiiiiiii
qYh:_List_1_get_Item_m1686506901_gshared
hVa:__ZN16GraphicsSettingsD0Ev
n:cttz_i8
AXc:_UNITY_FT_GlyphLoader_Add
dej:_AudioListener_INTERNAL_CALL_ReadExtensionPropertyName_m330480156
oge:_Convert_ToUInt16_m867476252
Vl:_emscripten_glViewport
n6b:__Z21GenerateTilingAreaJobP22GenerateTilingAreaInfoj
V_j:__ZN6il2cpp6icalls8mscorlib6System15MonoCustomAttrs17IsDefinedInternalEP12Il2CppObjectP20Il2CppReflectionType
yw:__ZN7mecanim9animation16CopyMotionOutputEPKNS0_18AnimationNodeStateEPS1_bbRKNS_6bitsetILj83EEE
YYc:_cff_parse_font_bbox
Isf:_MSCompatUnicodeTable_Category_m1834196420
Tfb:__ZN14PlayerSettings23VirtualRedirectTransferER18StreamedBinaryReadILb0EE
u1f:_Double_CompareTo_m3151899116
P7j:__ZN6il2cpp2os5Event5ResetEv
OVb:__Z26CombineDepthNormalsTextureRK17RenderLoopContextR13dynamic_arrayI16RenderObjectDataLj4EE
q0c:_tt_name_ascii_from_other
C9i:_ToggleGroup__ctor_m3308114662
JTj:__ZN6il2cpp8metadata15GenericMetadata17InflateParametersEPK13ParameterInfohPK20Il2CppGenericContextb
iTa:__ZN6Camera13AwakeFromLoadE17AwakeFromLoadMode
WPi:_Array_Sort_TisUILineInfo_t4195266810_m3737783007_gshared
nsg:_PlayableAsset_Internal_CreatePlayable_m2550417712
sVi:_TlsStream_Write_m188217214
IIb:__Z25SetNeedToPerformRenderingb
aMg:_UInt64_System_IConvertible_ToInt32_m949522652_AdjustorThunk
vRa:__ZN10GameObjectD2Ev
QQb:__ZN14qsort_internal30FindAndMovePivotToLastPositionIP15RODataDepthPassi17ROSorterDepthPassEEvT_S4_T0_T1_
BYb:__ZN12CullingGroup10SendEventsEPK17CullingGroupEventj
Dsd:_PointerInputModule__ctor_m3728889932
mY:__ZThn32_NK8Renderer8GetLayerEv
Q$g:_Enumerator_System_Collections_IEnumerator_Reset_m2915500989_gshared
bZc:_cff_parse_vsindex
iLd:_Int32_ValidDigit_m1059003769
hmk:_emscripten_glTexParameterfv__wrapper
bjf:_LayoutGroup_get_rectTransform_m442863741
wqb:__Z18Transfer_BlittableI14SafeBinaryReadLb1E9BoundsIntEvRK29SerializationCommandArgumentsR31RuntimeSerializationCommandInfo
Shk:b63
FKj:_il2cpp_method_get_param_count
zhc:__ZN10systeminfo19ISOToSystemLanguageERN4core12basic_stringIcNS0_20StringStorageDefaultIcEEEE
YFj:__ZNK15dense_hashtableINSt3__24pairIK10KeyWrapperINS1_IPK12PropertyInfoP11Il2CppClassEEEjEES9_17ReflectionMapHashIS8_EN14dense_hash_mapIS9_jSD_NS9_14EqualsComparerINS0_8equal_toIS8_EEEENS0_9allocatorISB_EEE9SelectKeyESI_SK_E3endEv
PMg:_UnauthorizedAccessException__ctor_m40101894
t4c:_ps_dimension_done
I9c:__Z46Register_UnityEngine_TextGenerator_Dispose_cppv
z1f:_Double_Parse_m4153729520
Qbj:_IndexedSet_1_AddUnique_m861843892_gshared
o5a:__ZN16LightmapSettings8TransferI14SafeBinaryReadEEvRT_
vpa:__ZN17BufferManagerGLES13ReleaseBufferEP14DataBufferGLES
GBe:_CipherSuite_Write_m1172814058
SUd:_SynchronizedWriter_Write_m301917713
F9:__ZN9profiling6MarkerC2EPKc13ProfilerGroupNS0_5FlagsE
fGc:__Z18Transfer_BlittableI8JSONReadLb1EjEvRK29SerializationCommandArgumentsR31RuntimeSerializationCommandInfo
nke:_ConstructorBuilder_get_IsCompilerContext_m3364441562
Elg:_Debug_LogWarning_m3752629331
CIh:_ReadOnlyCollection_1_System_Collections_Generic_IListU3CTU3E_RemoveAt_m4037795630_gshared
O8g:__Z117RuntimeInvoker_Void_t1185182177_RuntimeObject_Int32_t2950945753_Int32_t2950945753_Int32_t2950945753_Int32_t2950945753PFvvEPK10MethodInfoPvPS4_
xvd:_U3COnFinishSubmitU3Ec__Iterator0_Reset_m3632769946
vp:stackSave
JU:__ZN5Unity9rapidjson15GenericDocumentINS0_4UTF8IcEE13JSONAllocatorNS0_12CrtAllocatorEE6StringEPKcjb
Axd:_ColorTween_get_targetColor_m1724075482_AdjustorThunk
O4c:_ps_dimension_end
xrc:__Z41Register_UnityEngine_Mesh_Internal_Createv
bdb:__ZN14SpriteRenderer23VirtualRedirectTransferER24GenerateTypeTreeTransfer
HTj:__ZNK15dense_hashtableI10KeyWrapperIP18Il2CppGenericClassES3_N6il2cpp8metadata22Il2CppGenericClassHashEN14dense_hash_setIS3_S6_NS3_14EqualsComparerINS5_25Il2CppGenericClassCompareEEENSt3__29allocatorIS3_EEE8IdentityESA_SD_E12test_deletedERK30dense_hashtable_const_iteratorIS3_S3_S6_SF_SA_SD_E
zPc:__ZNSt3__27__sort3IRN18Overlap2DQueryBase29ColliderHitsByDepthComparitorEPP10Collider2DEEjT0_S7_S7_T_
Jde:_Console_Open_m3077673205
TXi:_X509StoreManager_get_CurrentUser_m4040993045
_Zb:__ZN6Camera9SetAspectEf
Tcg:_Array_InternalArray__IndexOf_TisDateTime_t3738529785_m2463359116_gshared
xa:invoke_viiffiii
UZj:__ZN15dense_hashtableINSt3__24pairIK10KeyWrapperIPK19Il2CppGenericMethodEP10MethodInfoEES6_N6il2cpp8metadata23Il2CppGenericMethodHashEN14dense_hash_mapIS6_S9_SD_NS6_14EqualsComparerINSC_26Il2CppGenericMethodCompareEEENS0_9allocatorISA_EEE9SelectKeyESH_SJ_E12resize_deltaEjj
ynk:_emscripten_glBindVertexArray__wrapper
zWj:__ZN6il2cpp6icalls8mscorlib6System4Enum19get_underlying_typeEP20Il2CppReflectionType
F1i:_Parser_IsECMAScript_m674158805
qSa:__ZN9Transform37InitializeTransformHierarchyRecursiveER18TransformHierarchyRii
KIa:__ZN26SinglePassStereoSupportExt23SetupStereoMatrixParamsE21MonoOrStereoscopicEye24BuiltinShaderMatrixParamRK10Matrix4x4f
jak:_fscanf
qnd:__ZNK25UnityWebRequestJavaScript16GetUploadedBytesEv
pQ:__Z46AudioListener_CUSTOM_GetNumExtensionPropertiesP12Il2CppObject
pyj:__ZN6il2cpp6icalls8mscorlib6SystemL16CheckMemberMatchI9FieldInfoNS_5utils10functional6FilterINSt3__212basic_stringIcNS8_11char_traitsIcEENS8_9allocatorIcEEEENS5_13VmStringUtils23CaseInsensitiveComparerEEEEEbPKT_PK11Il2CppClassSN_iRKT0_
edg:_Array_InternalArray__IndexOf_TisMonoResource_t4103430009_m1351751258_gshared
WUj:__ZN6il2cpp2gc16GarbageCollector12RunFinalizerEPvS2_
t3f:_FieldAccessException__ctor_m3583219052
gqc:__Z57Register_UnityEngine_Transform_INTERNAL_set_localPositionv
zta:__ZN13GfxDeviceGLES26SetRandomWriteTargetBufferEi15ComputeBufferID
H2j:_GC_split_block
aPi:_Array_Resize_TisUICharInfo_t75501106_m3903846016_gshared
GMb:__ZZ23InitPlayerLoopCallbacksvEN49EarlyUpdateResetFrameStatsAfterPresentRegistrator7ForwardEv
Mak:_poll
axc:_jpeg_open_backing_store
pFh:_ReadOnlyCollection_1_System_Collections_IEnumerable_GetEnumerator_m1671097018_gshared
AMg:_UInt64_ToString_m1529093114_AdjustorThunk
vJi:__ZL85Selectable_t3250028441_CustomAttributesCacheGenerator_Selectable_IsPressed_m907486548P21CustomAttributesCache
Awe:_TypeLibImportClassAttribute__ctor_m2302178978
huf:_Escape_t3294788190_marshal_pinvoke
qpg:_Material__ctor_m1662457592
xhf:_InputField_OnUpdateSelected_m1118869681
ZRj:__ZN6il2cpp2vmL36AddNestedTypesToNametoClassHashTableEP40Il2CppNameToTypeDefinitionIndexHashTablePKcRKNSt3__212basic_stringIcNS5_11char_traitsIcEENS5_9allocatorIcEEEEP11Il2CppClass
yya:__ZN4crnd12crn_unpacker11unpack_dxt1EPPhjjj
ihc:__ZNK11ICallString6ToUTF8Ev
tpj:__ZN15dense_hashtableINSt3__24pairIK10KeyWrapperIPK22Il2CppGenericParameterEP11Il2CppClassEES6_N6il2cpp5utils11PointerHashIS4_EEN14dense_hash_mapIS6_S9_SE_NS6_14EqualsComparerINS0_8equal_toIS5_EEEENS0_9allocatorISA_EEE9SelectKeyESJ_SL_E15insert_noresizeERKSA_
ccf:_Transform_1_Invoke_m2468053724_gshared
RQb:__ZNSt3__211__sift_downIR17ROSorterDepthPassP15RODataDepthPassEEvT0_S5_T_NS_15iterator_traitsIS5_E15difference_typeES5_
Z0a:__ZN18UnityPropertySheet11UnityTexEnvC2Ev
J0d:_ArgumentException__ctor_m3200406061
VA:__ZN8Animator17ApplyOnAnimatorIKEiRNS_11AnimatorJobE
Y1:__ZN12FileAccessor4ReadEyyPvPy
g_h:_List_1_set_Capacity_m2777925136_gshared
WIc:__ZN11UnityEngine9Analytics18RenderingInfoEvent13SetFrameStatsERK13dynamic_arrayIjLj4EEjjj
BZb:__ZN13RenderTexture9SetHeightEi
Ju:__ZN7mecanim9animation17ClearMotionOutputEPNS0_18AnimationNodeStateE
sCe:_CipherSuiteCollection_get_IsFixedSize_m3127823890
m3e:_InternalEnumerator_1_System_Collections_IEnumerator_get_Current_m3537550566_gshared
Smf:_Scrollbar_UpdateVisuals_m2492252165
JWi:_PKCS12_get_Keys_m2165478388
POj:__ZN6il2cpp6icalls8mscorlib6System2IO6MonoIO17GetFileAttributesEP12Il2CppStringPi
yId:_HMACMD5__ctor_m3008609295
QXf:_DateTime__ParseAmPm_m3478436123
uYf:_DateTime_ToString_m2992030064_AdjustorThunk
j1c:_tt_cmap8_char_index
q4b:__Z14tessMeshDeleteP8TESSmeshP12TESShalfEdge
G$:__Z24scripting_class_get_name17ScriptingClassPtr
yTd:_Stream_WriteByte_m1519852120
$9i:_VerticalLayoutGroup_CalculateLayoutInputHorizontal_m1404590745
eda:__ZN13RuntimeStaticI15GUIEventManagerLb0EE13StaticDestroyEPv
wXd:_ShortComparer_Compare_m1881262465
nsb:__Z29Transfer_Blittable_ArrayFieldI14SafeBinaryReadjEvRT_R9ArrayInfoRK23StaticTransferFieldInfo
oe:_emscripten_set_keydown_callback
ZAg:_EncoderReplacementFallback__ctor_m1483565116
wJf:_Interpreter_IsWordChar_m2858055765
xbe:_Hashtable_CopyTo_m2905447224
e2:__ZN12FileAccessorC2Ev
ZRf:_String_System_IConvertible_ToDouble_m3740733360
Ny:__ZThn152_NK26AnimatorControllerPlayable25GetStateMachineBehavioursEv
Lbj:_EventFunction_1_Invoke_m2429482587_gshared
GTa:__ZN6Camera8TransferI19StreamedBinaryWriteILb0EEEEvRT_
RTc:__ZN23ColliderTilingExtensionC2Ev
Ezj:__ZN6il2cpp2vm7Runtime12GetConfigDirEv
o$g:_Enumerator_MoveNext_m1177880931_AdjustorThunk
sqf:_Slider_UpdateVisuals_m3662961057
dkj:_TextGenerator_Populate_m194003733
qle:_DerivedType_get_FullName_m1025358827
EGd:_CryptoConfig_MapNameToOID_m2044758263
MHi:__ZL70InputField_t3762917431_CustomAttributesCacheGenerator_m_OnValueChangedP21CustomAttributesCache
AJb:__ZN13RenderManager22OnWindowSizeHasChangedEv
YGb:__Z39WriteQueueForTransferSignatureIntoCacheRK31TransferFunctionScriptingTraitsRK24TransferRequestSignature17ScriptingClassPtrR23CachedSerializationDataRb
hjb:__ZN13RenderManager18UpdateAllRenderersEv
mCg:_Encoding_get_UTF8UnmarkedUnsafe_m320312322
iGg:_Thread_Thread_free_internal_m333849022
VCc:__Z35Transfer_Blittable_FixedBufferFieldI9JSONWritexEvRK29SerializationCommandArgumentsR31RuntimeSerializationCommandInfo
RYi:_CostDelegate_BeginInvoke_m2828452701
Ehd:__ZN22BaseUnityConnectClient30OnEnteringStatePausedOrStoppedEv
oSc:__ZN10ClipperLib7Clipper18SwapPositionsInAELEPNS_5TEdgeES2_
txh:_Collection_1_ConvertItem_m1556170494_gshared
Xu:__ZN7mecanim5human12HumanPoseAddERNS0_9HumanPoseERKS1_S4_
oWf:_DateTime_ToUniversalTime_m1945318289
V7d:_ArrayList_ToArray_m3827492363
Kqf:_Slider_get_stepSize_m1423227661
vMg:_UInt64_Parse_m819899889
mNf:_SymmetricAlgorithm_set_IV_m3196220308
Ine:_GenericTypeParameterBuilder_GetHashCode_m852224381
Age:_Convert_ToUInt32_m1453583008
o4f:_CompareInfo_Compare_m894311506
_Ra:__Z24MergeTransformComponentsR9TransformS0_b
rtj:__ZNK15dense_hashtableI10KeyWrapperIPK19Il2CppGenericMethodES4_N6il2cpp8metadata23Il2CppGenericMethodHashEN14dense_hash_setIS4_S7_NS4_14EqualsComparerINS6_26Il2CppGenericMethodCompareEEENSt3__29allocatorIS4_EEE8IdentityESB_SE_E10test_emptyEj
mpd:_EventSystem_UpdateModules_m3643806022
fmj:_AnimationOffsetPlayable__cctor_m1029460816
X_j:__ZN6il2cpp2vm13ComObjectBase19GetRuntimeClassNameEPP15Il2CppHString__
ak:_emscripten_glVertexAttribPointer
QWa:__ZNK20IntermediateRenderer12GetSceneMaskEv
LJb:__ZN14PreloadManager26UpdatePreloadingSingleStepENS_21UpdatePreloadingFlagsEi
ypf:_ScrollRect_SetLayoutHorizontal_m3078869633
Ysf:_SimpleCollator__ctor_m1587210019
goc:__Z57Register_UnityEngine_RectTransform_INTERNAL_set_anchorMinv
wge:_Convert_ToUInt16_m1480956416
Xza:__ZN6prcoreL25inner_stretch_i8_bilinearEPKNS_9InnerInfoE
Bkb:__ZL30RegisterFilteredObjectCallbackPP12Il2CppObjectiPv
_Hh:_ReadOnlyCollection_1_System_Collections_Generic_IListU3CTU3E_RemoveAt_m3317217538_gshared
qzi:__ZL54AudioSource_t3935305588_CustomAttributesCacheGeneratorP21CustomAttributesCache
bKb:__Z19InitializeGfxDevicev
JS:__ZN11UnityEngine15CloudWebService16SessionContainer24GetSessionHeaderJsonDataERKN4core12basic_stringIcNS2_20StringStorageDefaultIcEEEERNS2_13StringBuilderE
Vke:_DerivedType_GetEvent_m4157575360
Sca:__ZN13RuntimeStaticI21AssetReferenceStorageLb0EE13StaticDestroyEPv
HFd:_SByte_System_IConvertible_ToType_m4075253447_AdjustorThunk
xhg:_Array_InternalArray__set_Item_TisKeyValuePair_2_t2530217319_m258011711_gshared
Ejh:__Z72RuntimeInvoker_Bounds_t2266837910_RuntimeObject_Matrix4x4U26_t3606180965PFvvEPK10MethodInfoPvPS4_
KWj:__ZN6il2cpp6icalls8mscorlib6System9AppDomain22InternalGetProcessGuidEP12Il2CppString
hXc:_cf2_builder_moveTo
C2g:__Z48RuntimeInvoker_RuntimeObject_Decimal_t2948259380PFvvEPK10MethodInfoPvPS4_
uOa:__ZNK17FileSystemHandler10IsReadOnlyERK13FileEntryData
Kwb:__Z18Transfer_BlittableI24GenerateTypeTreeTransferLb1EjEvRK29SerializationCommandArgumentsR31RuntimeSerializationCommandInfo
rpj:__ZN6il2cpp2os12FastAutoLockD2Ev
P7:__ZN11ColorRGBA328TransferI14SafeBinaryReadEEvRT_
qZc:_cff_vstore_done
Qdh:__Z68RuntimeInvoker_Void_t1185182177_UInt16_t2177724958_SByte_t1669577662PFvvEPK10MethodInfoPvPS4_
shb:__ZN15ResourceManager10Dependency8TransferI24GenerateTypeTreeTransferEEvRT_
XId:_MACTripleDES_HashFinal_m3613553534
RLg:_UInt64_System_IConvertible_ToChar_m2074245892
xEg:_UTF8Encoding_InternalGetBytes_m1965760031
Tf:_emscripten_glClearDepth
Tbc:__ZNK8GUILayer22GetTypeVirtualInternalEv
u6a:__ZN14SafeBinaryRead21TransferSTLStyleArrayINSt3__26vectorIN15QualitySettings14QualitySettingENS1_9allocatorIS4_EEEEEEvRT_17TransferMetaFlags
U9e:_KeyCollection__ctor_m2388548663_gshared
rfb:__ZNSt3__26vectorINS_4pairIPKN5Unity4TypeE7Hash128EENS_9allocatorIS7_EEE8__appendEj
ezf:_ContentInfo__ctor_m1888388023
tZc:_cff_font_load
oXj:__GLOBAL__sub_I_LibraryLoader_cpp
iic:__Z13IsPathCreatedRKN4core12basic_stringIcNS_20StringStorageDefaultIcEEEE
Glg:_Debug_LogWarningFormat_m2535776735
Cza:__ZL22stbir__encode_scanlineP11stbir__infoiPvPfiii
Mve:_ExternalException__ctor_m2877839282
lWc:__ZN20QuadTreeNodeRenderer13StaticDestroyEPv
FT:__ZN11UnityEngine15CloudWebService20WebRequestRestClient5AbortEv
R$i:_Regex_Matches_m2080913806
K8b:__ZN9Transform12CleanupClassEv
dxg:_Sprite_get_rect_m2575211689
Gpg:_Mathf_Sin_m3411839043
z8c:_UNITY_FT_Set_Pixel_Sizes
she:_OperatingSystem_Clone_m1122165140
rTi:_GameObject_AddComponent_TisRuntimeObject_m3469369570_gshared
dla:__ZNSt3__26vectorIN9ShaderLab19SerializedSubShaderENS_9allocatorIS2_EEE26__swap_out_circular_bufferERNS_14__split_bufferIS2_RS4_EE
AA:__ZN11UnityEngine9Animation33SetGenericTransformPropertyValuesERKNS0_30AnimatorGenericBindingConstantERKN7mecanim10ValueArrayEP9Transformy
TMj:__ZN6il2cpp2vmL24thread_cleanup_on_cancelEPv
oWh:_List_1_RemoveAll_m3165362277_gshared
SIg:_Type_type_is_subtype_of_m1406623598
YEg:_Thread_get_CurrentThread_m4142136012
gXa:__Z30ProcessDynamicBatchGeometryJobP25DynamicVBOGeometryJobDataj
lRb:__ZNSt3__27__sort4IRNS_6__lessI11CulledLightS2_EEPS2_EEjT0_S6_S6_S6_T_
bBj:__ZN6il2cpp2vm14TypeNameParser26ParseArrayModifierOptionalEv
B_:__Z26scripting_object_get_class18ScriptingObjectPtr
SNj:__ZN6il2cpp6icalls8mscorlib6System10Reflection8Assembly13get_code_baseEP24Il2CppReflectionAssemblyb
cib:__ZNSt3__26vectorIN4core12basic_stringIcNS1_20StringStorageDefaultIcEEEE13stl_allocatorIS5_L18MemLabelIdentifier13ELi16EEE7reserveEj
MHd:_DSASignatureDeformatter__ctor_m2889130126
n8b:__ZNK28MonoBehaviourPropertyBinding15GenerateBindingERKN4core12basic_stringIcNS0_20StringStorageDefaultIcEEEEbRN11UnityEngine9Animation14GenericBindingE
xvg:_RectTransform_INTERNAL_set_pivot_m1160676233
f$h:_List_1_set_Item_m35836043_gshared
bHf:_X509ChainElementCollection__ctor_m3424079155
ZYi:_LinkStack_Push_m3081279930
h8e:_Enumerator_MoveNext_m1107569389_gshared
YYj:__ZN6il2cpp6icalls8mscorlib6System11Environment15internalGetHomeEv
fqg:_Matrix4x4_GetHashCode_m4034747639_AdjustorThunk
Pue:_ResourceCacheItem_t51292791_marshal_pinvoke_cleanup
JX:__ZNK5Unity9Component7GetNameEv
Gjf:_U3CDelayedSetDirtyU3Ec__Iterator0_Reset_m160466733
Paj:_Imageinserter_Start_m3386531352
_kg:_Native__cctor_m1435623442
yZh:_List_1_System_Collections_IList_Remove_m1070694895_gshared
m4i:_LayoutCache__ctor_m3885940174
Juc:_UNITY_png_set_error_fn
eKc:__ZNK11b2RopeJoint16GetReactionForceEf
NB:__ZN7mecanim8skeleton26SkeletonPoseComputeGlobalQEPKNS0_8SkeletonEPKNS0_13SkeletonPoseTIN4math4trsXEEEPS7_ii
QLg:_UInt64_System_IConvertible_ToByte_m1501504925_AdjustorThunk
Yjj:_TextGenerator_Invalidate_m1072346986
eFe:_TlsClientHello_ProcessAsTls1_m2549285167
$rh:__Z74RuntimeInvoker_Boolean_t97287965_UIVertex_t4057497605_UIVertex_t4057497605PFvvEPK10MethodInfoPvPS4_
VFh:_ReadOnlyCollection_1_System_Collections_IList_Clear_m3591436538_gshared
nB:__ZN9BlobWrite8TransferI22OffsetPtrArrayTransferIiEEEvRT_PKc17TransferMetaFlags
cVf:_EncoderExceptionFallback_Equals_m2760188920
oK:__ZN4FMOD6System7releaseEv
w4d:_Boolean_CompareTo_m3665076258
sSf:_String_Split_m3580120853
kyf:_PrivateKeyInfo__ctor_m2811023496
B1:__Z18PathToAbsolutePathRKN4core12basic_stringIcNS_20StringStorageDefaultIcEEEE
h5i:_GUILayoutUtility_LayoutFromEditorWindow_m2914699782
igd:__ZN21UnityAnalyticsManager15ThreadedCleanupEv
eza:__ZL13BlitImageImplR14ImageReferenceiiRKS_NS_10ColorSpaceENS_8BlitModeEb
wdc:__ZN15DirectorManager17AcquireOutputNodeEv
nBa:__ZN6prcoreL17RemapGenericFloatI18TexFormatRGBAFloat17TexFormatRGBFloatEEvPKNS_9InnerInfoE
uTi:_GameObject_GetComponentInChildren_TisRuntimeObject_m1310240902_gshared
Lwi:__ZL69PersistentCall_t3407714124_CustomAttributesCacheGenerator_m_ArgumentsP21CustomAttributesCache
$Ha:__ZN16GeometryJobTasks20ScheduleGeometryJobsER9GfxDevicePFvP15GeometryJobDataEPK22GeometryJobInstructionjb
tI:__ZN12AudioManager29ShutdownReinitializeAndReloadEv
jZa:__ZN16ReflectionProbes28GetMinBakedCubemapResolutionEv
f_j:__GLOBAL__sub_I_String_cpp
qpj:__ZN15dense_hashtableINSt3__24pairIK10KeyWrapperIPK22Il2CppGenericParameterEP11Il2CppClassEES6_N6il2cpp5utils11PointerHashIS4_EEN14dense_hash_mapIS6_S9_SE_NS6_14EqualsComparerINS0_8equal_toIS5_EEEENS0_9allocatorISA_EEE9SelectKeyESJ_SL_E6insertERKSA_
Ghf:_InputField_GenerateCaret_m1459647218
BWi:_X509CertificateEnumerator__ctor_m85694331
$ua:__ZN14DataBufferGLES16RecreateWithDataEjPKv
w3:__Z29GetGlobalAllowNameConversionsv
ggg:_Array_InternalArray__Insert_TisTableRange_t3332867892_m558285859_gshared
f$b:__ZN8Material8SetColorEN9ShaderLab16FastPropertyNameERK10ColorRGBAf
VPh:_Enumerator_System_Collections_IEnumerator_Reset_m3754523291_gshared
Vlk:_glUniform3uiv__wrapper
mM:__ZN11AudioSource23VirtualRedirectTransferER18StreamedBinaryReadILb0EE
TGf:_X509CertificateEnumerator__ctor_m943731472
wtg:_RangeInt_get_end_m4128831787
Vca:__ZN21AssetReferenceStorageC2Ev
Xdk:dynCall_iiifiii
K$:__ZL41AssemblyNameMatchesWithOrWithoutExtensionPKcS0_
rYh:_List_1_set_Item_m2082115010_gshared
EBg:_Encoding_GetBytes_m3735967069
JJc:__ZN23ColliderTilingExtension5ResetEv
BEa:__ZN14GfxContextGLES43AddRenderSurfaceToDeferredFBOInvalidateListEPK17RenderSurfaceGLES
sOj:__ZN6il2cpp6icalls8mscorlib6System9Threading6Thread15Thread_internalEP12Il2CppThreadP14Il2CppDelegate
rpa:__ZN11NamedObject23VirtualRedirectTransferER14SafeBinaryRead
Erf:_Text_get_resizeTextMinSize_m1002355407
o8c:__ZNSt3__26vectorIN20TextRenderingPrivate8FontImpl13CharacterInfoE13stl_allocatorIS3_L18MemLabelIdentifier1ELi16EEE6insertENS_11__wrap_iterIPKS3_EERS9_
lMa:__ZN23PreloadManagerOperation6IsDoneEv
Dnf:_Selectable_get_navigation_m3508916916
XTc:__ZN10Effector2D10EndContactEP9b2Contact
x_j:__ZN6il2cpp5utils11StringUtils11Utf16ToUtf8ERKNSt3__212basic_stringIDsNS2_11char_traitsIDsEENS2_9allocatorIDsEEEE
uze:_MD4Managed_Decode_m4273685594
Ljb:__ZN21LightProbeProxyVolume18HasHardwareSupportEv
GOc:__ZNK20b2SeparationFunction17FindMinSeparationEPiS0_f
Sza:__ZN6prcoreL31inner_stretch_argb8888_bilinearEPKNS_9InnerInfoE
KAb:__Z18Transfer_BlittableI18StreamedBinaryReadILb1EELb1E8BitFieldEvRK29SerializationCommandArgumentsR31RuntimeSerializationCommandInfo
S1c:_UNITY_FT_Outline_Decompose
FNd:_Int64_System_IConvertible_ToChar_m1509243576_AdjustorThunk
NVi:_GeneralNames_get_IPAddresses_m4242915644
I$f:_Decimal_op_Implicit_m3873897383
Z2j:_GC_init_size_map
lUa:__Z20scripting_object_new17ScriptingClassPtr
xyf:_KeyGeneratedEventHandler_Invoke_m2527485594
QZf:_Decimal__ctor_m1925875020_AdjustorThunk
CSe:_SerializationCallbacks__ctor_m3863304525
P:Math_exp
hjg:_Vector3_Min_m1803158933
Xo:FUNCTION_TABLE_iiifi
tWj:__ZN6il2cpp2os5posix13PosixAutoLockD2Ev
bUc:__ZN13BoxCollider2D15InitializeClassEv
n6i:_SymmetricTransform_OFB_m3690147804
QWc:_cff_get_advances
sGb:__ZN13MonoBehaviour9SetScriptERK4PPtrI10MonoScriptE18ScriptingObjectPtr
ENa:__ZNK10FileSystem16LastErrorMessageEv
khg:_Array_InternalArray__Insert_TisVector3_t3722313464_m3862657277_gshared
DPf:_SecurityException__ctor_m1631242336
urj:__ZN15dense_hashtableINSt3__24pairIK10KeyWrapperIPK11Il2CppClassEPKcEES6_N6il2cpp5utils11PointerHashIS3_EEN14dense_hash_mapIS6_S9_SE_NS6_14EqualsComparerINS0_8equal_toIS5_EEEENS0_9allocatorISA_EEE9SelectKeyESJ_SL_E14squash_deletedEv
nqd:_EventSystem_Update_m1662072334
Vnd:__ZN22UnityWebRequestManager10InitializeEv
JFb:__ZN13MonoBehaviour13AwakeFromLoadE17AwakeFromLoadMode
Rub:__ZL26Transfer_SimpleNativeClassI17RemapPPtrTransfer8GradientLb1EEvRK29SerializationCommandArgumentsR31RuntimeSerializationCommandInfo
Rpd:_RaycasterManager_RemoveRaycasters_m3057093063
Hec:__ZN12CachedWriter9InitWriteER15CacheWriterBase
ldc:__Z21UnsignedInt64ToStringy
rmf:_GetRaycastNonAllocCallback_BeginInvoke_m3984885848
$Zi:_PatternCompiler_BeginLink_m1295557963
LSa:__ZN14SafeBinaryRead21TransferSTLStyleArrayI13dynamic_arrayI17SortingLayerEntryLj4EEEEvRT_17TransferMetaFlags
cKd:_GuidParser_ThrowFormatException_m3223388534
o1i:_Group_GetAnchorInfo_m3730312864
$Gi:__ZL50Graphic_t1660335611_CustomAttributesCacheGeneratorP21CustomAttributesCache
vaf:_KeyCollection_System_Collections_Generic_ICollectionU3CTKeyU3E_Add_m454648927_gshared
jIg:_TimeSpan_op_LessThanOrEqual_m300470010
rqc:__Z66Register_UnityEngine_Transform_INTERNAL_CALL_InverseTransformPointv
Qea:__ZZN15DirectorManager15InitializeClassEvEN41FixedUpdateDirectorFixedUpdateRegistrator7ForwardEv
BSd:_MemoryStream_get_Position_m3733941202
G7:__ZN12LineRenderer8TransferI14SafeBinaryReadEEvRT_
B2b:__ZL10KeyHandleriPK23EmscriptenKeyboardEventPv
hnk:_glLinkProgram__wrapper
Hmb:__ZN18ScriptingArguments8AddInt64Ex
AAa:__ZN6prcoreL12RemapGenericI17TexFormatARGB888815TexFormatBGR888EEvPKNS_9InnerInfoE
mnb:__ZN12HandlerChain4LockER13FileEntryData12FileLockMode
x6f:_TextInfo_get_ListSeparator_m1628160079
Zpf:_Selectable_OnCanvasGroupChanged_m472903475
fFg:_EventWaitHandle_Reset_m3348053200
Ald:__ZN28UnityConnectScriptingClasses23CallSessionStateChangedEixxbP21ScriptingExceptionPtr
MQj:__ZN6il2cpp6icalls8mscorlib6System13Globalization11CultureInfo35construct_internal_locale_from_nameEP17Il2CppCultureInfoP12Il2CppString
Zwb:__ZL22Transfer_ManagedObjectI24GenerateTypeTreeTransferLb1EEvRK29SerializationCommandArgumentsR31RuntimeSerializationCommandInfo
ROb:__ZN15RenderNodeQueueC2E10MemLabelId
Lue:_ResourceEnumerator_FillCache_m1661715061
jii:__ZL72SecuritySafeCriticalAttribute_t3505979402_CustomAttributesCacheGeneratorP21CustomAttributesCache
jk:_emscripten_set_main_loop_timing
Xig:_Bounds_get_min_m3755135869
pge:_Convert_ToUInt16_m3523269149
vwa:__ZN14DataBufferGLES12RecordRenderEv
mrd:_ExecuteEvents_get_endDragHandler_m2879610446
O_b:__ZN14ImageReference10FlipImageYEv
hzc:__Z14GetDefaultSkini
FF:__ZN4FMOD3DSP9setBypassEb
u2b:__Z19NormalizeWheelInputf
uBd:_Graphic_DoMeshGeneration_m3548487693
n$i:_Repetition__ctor_m1672362629
gIc:__Z29Transfer_Blittable_ArrayFieldI8JSONReadhEvRT_R9ArrayInfoRK23StaticTransferFieldInfo
GQf:_SecurityFrame_ToString_m339310712_AdjustorThunk
Jpe:_TypeBuilder_create_runtime_class_m2581270900
XWe:_InternalEnumerator_1_get_Current_m3008260692_gshared
x7j:__ZN6il2cpp2os20ThreadLocalValueImpl8SetValueEPv
PUa:__ZN22RenderingCommandBuffer20CleanupCommandBufferEv
K$f:_Decimal_op_Implicit_m2299919277
XCc:__Z18Transfer_BlittableI9JSONWriteLb1EtEvRK29SerializationCommandArgumentsR31RuntimeSerializationCommandInfo
BVd:_UnexceptionalStreamReader_ReadToEnd_m920589220
kWf:_DateTime_System_IConvertible_ToType_m1242864300
RSf:_String_IndexOf_m1298810678
Dk:___syscall85
WOb:__ZNSt3__26__sortIRPFbP10GUIElementS2_EPS2_EEvT0_S7_T_
Zbc:__ZN16GraphicsSettings12CleanupClassEv
Fke:_ConstructorBuilder_GetILGenerator_m1750792206
$Ag:_EncoderFallback_get_ReplacementFallback_m818398284
kXj:__ZN6il2cpp2os6Thread19DetachCurrentThreadEv
Iqd:_EventTrigger_OnBeginDrag_m4203438710
Mpj:__ZN6il2cpp2vmL21SetupInterfacesLockedEP11Il2CppClassRKNS_2os12FastAutoLockE
zpb:__ZN11MonoManager23VirtualRedirectTransferER24GenerateTypeTreeTransfer
Oz:__ZN23AnimationPlayableOutput17SetSourcePlayableEP8Playable
elg:_CullingGroup_Dispose_m782801025
FS:__ZN11UnityEngine15CloudWebService14DataDispatcher15SetupWebRequestEv
Nid:__ZN11UnityEngine15PlatformWrapper13GetShaderCapsEv
wWb:__ZNSt3__211__sift_downIR26RenderDeferredObjectSorterP16RenderObjectDataEEvT0_S5_T_NS_15iterator_traitsIS5_E15difference_typeES5_
uxf:_KeyPairPersistence_get_MachinePath_m3812267291
xde:_Stack_Peek_m2216191248
ZVf:_DateTime_System_IConvertible_ToDecimal_m1044850612_AdjustorThunk
Hcc:__ZN21FixedBehaviourManager6UpdateEv
Shc:__ZN9Transform9SetParentEPS_NS_15SetParentOptionE
u5:__ZN19ShaderPropertySheet8SetFloatEN9ShaderLab16FastPropertyNameEfNS_8SetFlagsE
Cib:__ZN19RuntimeSceneManager24BeginIntegrateMainThreadEP10UnityScene
WXj:__ZNSt3__2plIcNS_11char_traitsIcEENS_9allocatorIcEEEENS_12basic_stringIT_T0_T1_EERKS9_S6_
AUd:_StringReader_CheckObjectDisposedException_m3796163530
Gka:__ZN9ShaderLab20SerializedSubProgramaSERKS0_
vdk:_roundf
p5d:_Byte_System_IConvertible_ToSingle_m324484566_AdjustorThunk
v$f:_Decimal_op_Explicit_m2848387298
tZg:_KeyValuePair_2_ToString_m1238786018_gshared
st:__ZN8Animator15SetPrepareStageEv
eF:__ZN8AnimatorC2E10MemLabelId18ObjectCreationMode
Npj:__ZN6il2cpp2vmL24SetupTypeHierarchyLockedEP11Il2CppClassRKNS_2os12FastAutoLockE
C2b:__ZL11TextHandleriPK23EmscriptenKeyboardEventPv
L7c:_destroy_face
rjk:_glBlendEquationSeparate__wrapper
t4j:__ZN6il2cpp6icalls8mscorlib6System8Security12Cryptography24RNGCryptoServiceProvider13RngInitializeEP11Il2CppArray
lTj:_ImageConversion_LoadImage_m2182108104
vM:__ZN20SoundChannelInstance7setMuteEb
nZd:_NumberFormatter_NumberToString_m3906556024
JBb:__Z19TransferField_ArrayI18StreamedBinaryReadILb1EE27Converter_SimpleNativeClassI17AnimationCurveTplIfEEEvRK23StaticTransferFieldInfoR31RuntimeSerializationCommandInfoRT0_
tUc:__ZN7b2World18SetContactListenerEP17b2ContactListener
$Oc:__ZN14PhysicsQuery2D11LinecastAllERK8Vector2fS2_RKN10Collider2D13ContactFilterEPKS3_bP13dynamic_arrayI12RaycastHit2DLj4EE
_wa:__ZN18GfxFramebufferGLES22MakeCurrentFramebufferENS_7BuiltinE
h8:__ZN12CachedReader4ReadEPvj
uXc:_cf2_blues_init
cuf:_SimpleCollator_MatchesForwardCore_m850743967
kTb:__Z24CalculateLightShadowFadeRK6CamerafffR8Vector4f
yba:__ZN19RuntimeSceneManagerD2Ev
P3f:_CCGregorianCalendar_GetMonth_m1547203696
VT:__ZN11UnityEngine15CloudWebService25WebRequestDownloadHandler17OnCompleteContentEv
Rza:__ZN6prcore17GetIntegerBlitterE13TextureFormatS0_N14ImageReference8BlitModeE
y2j:_GC_print_block_descr
GQc:__ZN13BoxCollider2DD0Ev
UEj:__ZN6il2cpp2gc19AppendOnlyGCHashMapINSt3__24pairIPK11Il2CppImageP11Il2CppClassEEP22Il2CppReflectionModule17ReflectionMapHashIS9_ENS2_8equal_toIS9_EEE11TryGetValueERKS9_PSB_
Sjc:__ZN9BlobWrite14ReduceCopyImplERK14ReduceCopyDataj
_9:__ZNSt3__26__treeI19RepeatingLogMessageNS_4lessIS1_EE13stl_allocatorIS1_L18MemLabelIdentifier73ELi16EEE12__find_equalIS1_EERPNS_16__tree_node_baseIPvEESD_RKT_
eQ:__ZN11AudioSource18IsPlayingScriptingEv
mxf:_KeyBuilder_IV_m2230195376
LKc:__ZNK12b2WheelJoint10GetAnchorAEv
gik:_glShaderSource__wrapper
wPa:__ZN25MultiBlocksMemoryFileData17AdjustBlocksCountEj
cOj:__ZNSt3__214__split_bufferIN6il2cpp2vm22EmbeddedResourceRecordERNS_9allocatorIS3_EEED2Ev
cSc:__ZN10ClipperLib14PointInPolygonERKNS_8IntPointEPNS_5OutPtE
e6c:__ZN13TextRendering4Font8TransferI24GenerateTypeTreeTransferEEvRT_
zlc:__Z27CullingGroup_CUSTOM_DisposeP12Il2CppObject
MNj:__ZN6il2cpp6icalls8mscorlib6SystemL23CheckWideningConversionEjjj
dmd:__ZNSt3__26vectorIP19BaseConnectSettings13stl_allocatorIS2_L18MemLabelIdentifier6ELi16EEE21__push_back_slow_pathIKS2_EEvRT_
BOb:__ZN13ComputeShader15SetTextureParamEjRKN9ShaderLab16FastPropertyNameE9TextureID16TextureDimension
Lm:_glStencilMask
KXj:__ZN6il2cpp2os10ThreadImpl16GetCurrentThreadEv
w2b:__ZN15GUIEventManager10QueueEventERK10InputEvent
EHg:__Z33il2cpp_codegen_check_add_overflowxx
drj:_AnalyticsEvent_OnValidationFailed_m2609604624
uve:_DecimalConstantAttribute__ctor_m3583301917
_1j:_GC_push_conditional_with_exclusions
E6e:_Enumerator_System_Collections_IDictionaryEnumerator_get_Entry_m2772123357_AdjustorThunk
uOe:_MethodCallDictionary__ctor_m2167303393
mC:__ZN12_GLOBAL__N_121ProcessAnimationBeginER35AnimationPlayableEvaluationConstantR32AnimationPlayableEvaluationInputR33AnimationPlayableEvaluationOutput
xak:_strrchr
Jkg:_Component_GetComponentInParent_m779177818
xud:_UIBehaviour_IsDestroyed_m3033055982
Ach:__Z109RuntimeInvoker_Void_t1185182177_RuntimeObject_RuntimeObject_SByte_t1669577662_Int32_t2950945753_RuntimeObjectPFvvEPK10MethodInfoPvPS4_
Unc:__Z33Register_UnityEngine_Random_Rangev
fgf:_InputField_get_readOnly_m3111985574
uZa:__ZN14RenderSettings27UpdateIndirectSpecularColorEv
sgb:__ZN14PlayerSettings8TransferI18StreamedBinaryReadILb0EEEEvRT_
Hyj:__ZN6il2cpp6icalls8mscorlib6System8MonoType16GetMethodsByNameEP20Il2CppReflectionTypeP12Il2CppStringibS5_
yFg:_Monitor_Monitor_wait_m3706677354
TJd:_RijndaelTransform__cctor_m2439033240
TKb:__ZNSt3__27__sort3IRNS_4lessIN22BuiltinResourceManager8ResourceEEEPS3_EEjT0_S7_S7_T_
B4c:_ps_hints_t2mask
h9f:_Array_InternalArray__ICollection_Remove_TisMonoResource_t4103430009_m238733686_gshared
TOd:_IntPtr_ToString_m1831665121
Uqf:_Slider_Set_m1476104429
gDd:_Image_set_fillClockwise_m2210525152
Wbb:__ZN10BlendShape8TransferI19StreamedBinaryWriteILb0EEEEvRT_
KOd:__Z21il2cpp_codegen_sizeofP11Il2CppClass
KDa:__Z19GetTimeSinceStartupv
Oke:_ILGenerator_emit_int_m2322014738
KPh:_Enumerator_System_Collections_IEnumerator_Reset_m2953002685_gshared
X3c:_TT_Load_Composite_Glyph
h0a:__ZN9ShaderLab11shaderprops9GetTexEnvEPK19ShaderPropertySheetS3_NS_16FastPropertyNameE16TextureDimensionb
ERb:__ZN29RenderNodeQueuePrepareContextC2Ev
rKj:_il2cpp_gc_disable
Sla:__ZN9ShaderLab20SerializedSubProgram16TextureParameter8TransferI24GenerateTypeTreeTransferEEvRT_
OHd:_DSASignatureDeformatter_SetKey_m2999549245
T4j:__ZN6il2cpp2os11MutexHandle4WaitEb
jqa:__ZN9GfxDevice19SaveStereoConstantsEv
S4j:__ZN6il2cpp2os11MutexHandle4WaitEj
Kic:__ZL34GetComponentsImplementationRecurseILb1ELi1ELi1EEbR10GameObjectbRK17CompareParametersRK39GetComponentsImplementation_ReturnValue
I4g:__Z114RuntimeInvoker_Boolean_t97287965_RuntimeObject_RuntimeObject_Int32_t2950945753_Int32_t2950945753_Int32_t2950945753PFvvEPK10MethodInfoPvPS4_
Xje:_AssemblyBuilder_GetTypes_m3415680380
KBa:__ZN6prcoreL17RemapGenericFloatI15TexFormatRGHalf18TexFormatARGBFloatEEvPKNS_9InnerInfoE
YIb:__Z18SimulateMouseInputi
SNb:__ZN13RenderManager23AddRemoveCamerasDelayedEv
aEc:__ZN9JSONWrite8TransferI13dynamic_arrayIdLj8EEEEvRT_PKc17TransferMetaFlags
ngd:__ZN11UnityEngine9Analytics15AnalyticsConfigC2Ev
CBc:__ZN5Unity9rapidjson6WriterI16TempBufferWriterNS0_4UTF8IcEES4_13JSONAllocatorE11WriteUint64Ey
n3d:_BitConverter__cctor_m3841343255
K_f:_Decimal_Compare_m3062820418
oKf:_IntervalCollection_GetMetaCollection_m4029522214
Dqd:_EventTrigger_OnDeselect_m1919608102
Qjj:_TextGenerator_get_characterCount_m864136654
EX:__ZN12LineRenderer13AwakeFromLoadE17AwakeFromLoadMode
lHg:_TimeSpan__ctor_m2047388489_AdjustorThunk
AZb:__ZN13RenderTexture8SetWidthEi
Z3c:_UNITY_FT_GlyphLoader_CheckSubGlyphs
PTb:__Z25SetupObjectBakedOcclusionbRK15SharedLightDataRK26SharedLightmapSettingsDataRK15LightmapIndicesR17ShaderPassContext
Rth:_Collection_1_System_Collections_ICollection_CopyTo_m1516601228_gshared
C5:__ZN9ShaderLab16FastPropertyName4InitEPKc
I7b:__Z13RegisterClassIN2UI13RectTransformEEvv
rbc:__ZL31MeshRendererTransformChangedJobP13BoundsJobDatajPK23TransformAccessReadOnlyPKyj
tid:__ZN11UnityEngine15PlatformWrapper19GetPhysicalMemoryMBEv
_5d:_Char_System_IConvertible_ToByte_m2347554595_AdjustorThunk
i_a:__ZN13RenderTexture9SetMipMapEb
STf:_String_CreateString_m860434552
kfa:__Z18GetDirectorManagerv
Qpc:__Z38Transform_CUSTOM_INTERNAL_get_rotationP12Il2CppObjectP11Quaternionf
vui:__ZL99SceneManager_t2787271929_CustomAttributesCacheGenerator_SceneManager_LoadScene_m2298600132____mode1P21CustomAttributesCache
qgh:__Z73RuntimeInvoker_Single_t1397266774_Vector2_t2156229523_Vector2_t2156229523PFvvEPK10MethodInfoPvPS4_
JEj:__ZNK15dense_hashtableINSt3__24pairIK10KeyWrapperINS1_IPK10MethodInfoP11Il2CppClassEEEjEES9_17ReflectionMapHashIS8_EN14dense_hash_mapIS9_jSD_NS9_14EqualsComparerINS0_8equal_toIS8_EEEENS0_9allocatorISB_EEE9SelectKeyESI_SK_E5beginEv
ava:__ZN7ApiGLES19UploadBufferSubDataEjN2gl12BufferTargetEllPKv
wha:__ZNSt3__216__rotate_forwardINS_11__wrap_iterIPN4core12basic_stringIcNS2_20StringStorageDefaultIcEEEEEEEET_S9_S9_S9_
Dzg:_Vector2_GetHashCode_m3916089713
Hwg:_SendMouseEvents_HitTestLegacyGUI_m579942228
Tpf:_Selectable_get_isPointerDown_m3518318267
qNf:_SymmetricAlgorithm_set_KeySize_m3805756466
v5d:_Byte_System_IConvertible_ToUInt32_m1049546902_AdjustorThunk
Edh:__Z53RuntimeInvoker_Double_t594665363_Interval_t1802865632PFvvEPK10MethodInfoPvPS4_
cLb:__Z21InitializeBatchedJobsv
Qkj:_CanvasGroup_get_blocksRaycasts_m1805542303
_Lf:_SHA1Internal_ProcessBlock_m1991889327
Trb:__Z19TransferField_ArrayI14SafeBinaryRead27Converter_SimpleNativeClassI8GUIStyleEEvRK23StaticTransferFieldInfoR31RuntimeSerializationCommandInfoRT0_
rPi:_Array_Sort_TisRuntimeObject_TisRuntimeObject_m1685639929_gshared
C4j:__ZN6il2cpp5utils10MemoryPoolC2Ev
RYa:__ZN14RenderSettings5ResetEv
j6b:__ZN6Sprite9BindAtlasERK4PPtrI11SpriteAtlasE
KAc:__ZN5Unity9rapidjson12GenericValueINS0_4UTF8IcEE13JSONAllocatorE10FindMemberIS4_EENS0_21GenericMemberIteratorILb0ES3_S4_EERKNS1_IS3_T_EE
I_e:_InternalEnumerator_1_System_Collections_IEnumerator_get_Current_m3892960115_AdjustorThunk
LPj:__ZNSt3__212basic_stringIDsNS_11char_traitsIDsEENS_9allocatorIDsEEE6appendEPKDsj
sId:_HMAC_HashCore_m3684104066
iBc:__ZN5Unity9rapidjson13GenericReaderINS0_4UTF8IcEES3_13JSONAllocatorE11ParseNumberILj1ENS0_25GenericInsituStringStreamIS3_EENS0_15GenericDocumentIS3_S4_S4_EEEEvRT0_RT1_
fdb:__ZN14SpriteRenderer14OnChangeSpriteEv
uXj:__ZN6il2cpp2os10ThreadImplD2Ev
LLc:__ZN12b2MouseJoint23InitVelocityConstraintsERK12b2SolverData
dCc:__ZN8Gradient8TransferI9JSONWriteEEvRT_
kjb:__ZN21RendererUpdateManager18OncePerFrameUpdateER13RendererScene
VLa:__ZNK12TLSAllocatorI14StackAllocatorE22GetAllocatedMemorySizeEv
M3:__ZN17RemapPPtrTransfer12PushMetaFlagE17TransferMetaFlags
WVg:_EqualityComparer_1_System_Collections_IEqualityComparer_GetHashCode_m2138064395_gshared
Zmb:__ZN12HandlerChain4NameEv
KKd:_Int16_System_IConvertible_ToType_m3672347013_AdjustorThunk
cTf:_String_LastIndexOf_m578673845
Gtb:__Z29Transfer_Blittable_ArrayFieldI14SafeBinaryReadN4math12int3_storageEEvRT_R9ArrayInfoRK23StaticTransferFieldInfo
qQf:_SecurityException_ToString_m3228070608
uMd:_Int16_ToString_m2013897809
sQf:_String_Substring_m2848979100
Ded:__Z44Register_UnityEngine_CanvasRenderer_get_cullv
xTi:_ScriptableObject_CreateInstance_TisRuntimeObject_m1552711675_gshared
Yhd:__ZN11UnityEngine7Connect17XRDeviceInfoEvent12XRDeviceInfoD2Ev
Vpb:__Z44InitializeTransferFunctionScriptingTraitsForI17RemapPPtrTransferEvR31TransferFunctionScriptingTraits
p8b:__ZNSt3__26vectorI16MessageForwarder13stl_allocatorIS1_L18MemLabelIdentifier7ELi8EEE6resizeEj
yGf:_X509Chain_SelectBestFromCollection_m1068759221
q6i:_SymmetricTransform_TransformBlock_m851059707
Q5h:__ZL68IntPtr_t_CustomAttributesCacheGenerator_IntPtr_ToPointer_m4157623054P21CustomAttributesCache
k1h:_Enumerator_System_Collections_IEnumerator_Reset_m2261065994_AdjustorThunk
Kof:_ScrollRect_get_verticalNormalizedPosition_m3693218937
Aib:__ZN18LoadSceneOperation21MustCompleteNextFrameEv
Wqf:_Slider_UpdateDrag_m1102107039
Xse:_MonoMethodInfo_get_method_info_m88651774
wM:__ZNK12AudioManager16GetAudioListenerEv
HMd:_Int32_System_IConvertible_ToDateTime_m1824716955
gFd:_RuntimeTypeHandle__ctor_m3315980708_AdjustorThunk
vkj:_Canvas_set_overrideSorting_m4088794420
fZb:__ZNSt3__26vectorI11CameraStackNS_9allocatorIS1_EEE8__appendEj
vJc:__ZNK11Rigidbody2D20GetAttachedCollidersER13dynamic_arrayIP10Collider2DLj4EE
Pu:__ZN7mecanim9animation12GetHumanPoseERKNS0_18ClipMuscleConstantEPKNS0_10ValueDeltaERNS_5human9HumanPoseE
Zfd:__ZN11UnityEngine9Analytics15UserCustomEvent12CustomParams6InsertEPKcRNS1_11CustomValueE
Fw:__ZN22AnimationMixerPlayable17ProcessRootMotionEP35AnimationPlayableEvaluationConstantP32AnimationPlayableEvaluationInputP33AnimationPlayableEvaluationOutput
H1:__Z13GetFileSystemv
kca:__ZNK5Unity4Type21FindAllDerivedClassesER13dynamic_arrayIPKS0_Lj4EENS0_17TypeFilterOptionsE
dda:__ZN13RuntimeStaticI15GUIEventManagerLb0EE16StaticInitializeEPv
$db:__ZN14SafeBinaryRead8TransferIfEEvRT_PKc17TransferMetaFlags
lPc:__ZNSt3__27__sort5IR24RayHitsByDepthComparitorP12RaycastHit2DEEjT0_S5_S5_S5_S5_T_
sNg:_Version_CompareTo_m3146217210
xMc:__ZN24RigidbodyMovementState2D21ResetAngularMoveStateEv
jdb:__ZThn32_N14SpriteRenderer15AddAsRenderNodeER15RenderNodeQueueRK20DeprecatedSourceData
hfg:_Array_InternalArray__ICollection_CopyTo_TisKeyValuePair_2_t71524366_m1056941380_gshared
FIg:_Type_get_IsClass_m589177581
RIg:_Type_get_IsSystemType_m624798880
npb:__ZN19ShaderPropertySheet9SetMatrixEN9ShaderLab16FastPropertyNameERK10Matrix4x4fNS_8SetFlagsE
r4a:__Z29GetTextureSizeAllowedMultiple13TextureFormat
C_f:_Decimal_Subtract_m835601464
Zcc:__ZN21IntermediateRenderers3AddEP20IntermediateRenderer
CJj:_il2cpp_array_element_size
vWd:_MissingMemberException__ctor_m2571045846
x4h:__ZL62ComVisibleAttribute_t1362837655_CustomAttributesCacheGeneratorP21CustomAttributesCache
tvg:_RectTransform_INTERNAL_set_sizeDelta_m188783163
eg:_glCheckFramebufferStatus
Z3j:__ZN6il2cpp2os11EventHandle4WaitEv
inj:_CustomEventData__ctor_m4146403782
lV:__ZN19CloudServiceHandler20StartEventDispatcherERKN11UnityEngine15CloudWebService18CloudServiceConfigERNS1_23WebRequestRestHeaderMapE
UBd:_GraphicRaycaster__ctor_m646559428
S9d:_BitArrayEnumerator_get_Current_m4220391712
oie:__Z37il2cpp_codegen_get_executing_assemblyPK10MethodInfo
Uvg:_Transform_get_parent_m835071599
ECf:_IPAddress_get_ScopeId_m4237202723
Sr:__ZN4core8hash_mapIN11UnityEngine9Animation14GenericBindingENS2_10BoundIndexENS2_25GenericBindingHashFunctorENS2_30GenericBindingValueArrayUniqueEE4growEi
au:__ZN21AnimationClipPlayable7SetTimeEd
r$i:_ExpressionCollection_get_Item_m3510736379
TGi:__ZL62FontData_t746620069_CustomAttributesCacheGenerator_m_AlignmentP21CustomAttributesCache
wtd:_StandaloneInputModule_get_inputActionsPerSecond_m3946624274
CEg:_UTF8Encoding_InternalGetCharCount_m82458470
Szg:_Vector2__cctor_m2108982652
Rr:__ZN4core8hash_mapIN11UnityEngine9Animation14GenericBindingENS2_10BoundIndexENS2_25GenericBindingHashFunctorENS2_30GenericBindingValueArrayUniqueEE4growEv
aRj:__ZN14dense_hash_mapI10KeyWrapperIP14Il2CppIUnknownEjN6il2cpp5utils11PointerHashIS1_EENS3_14EqualsComparerINSt3__28equal_toIS2_EEEENS9_9allocatorINS9_4pairIKS3_jEEEEE15set_deleted_keyERSF_
xca:__ZN22BuiltinResourceManager16StaticInitializeEPv
H5b:__ZN19SpriteMeshGenerator12path_segment12max_distanceENSt3__26vectorINS_6vertexENS1_9allocatorIS3_EEEEii
rNc:__ZN24b2ChainAndCapsuleContact8EvaluateEP10b2ManifoldRK11b2TransformS4_
nHj:__ZN13Il2CppHashMapIPK14Il2CppAssemblyPK22Il2CppMonoAssemblyNameN6il2cpp5utils11PointerHashIS1_EENSt3__28equal_toIS2_EENSA_9allocatorINSA_4pairIK10KeyWrapperIS2_ES5_EEEEEC2EjRKS9_RKSC_
u0d:_DelegatePInvokeWrapper_AppDomainInitializer_t682969308
ZQc:__ZN13BoxCollider2D13PrepareShapesER13dynamic_arrayIP7b2ShapeLj4EERK10Matrix4x4f
O0:__ZN8Remapper6RemoveEi
DBg:_Encoding_GetBytes_m3148649984
v8c:__ZL36CleanupTextRenderingScriptingClassesv
xZb:__ZN15ReflectionProbe17UseRendererResultEP13ProbeRenderer
rrc:__Z34Mesh_CUSTOM_SetArrayForChannelImplP12Il2CppObject30InternalScriptingShaderChannel34InternalScriptingVertexChannelTypeiP11Il2CppArrayi
F$:__Z32scripting_class_get_nested_types17ScriptingClassPtrRNSt3__26vectorIS_13stl_allocatorIS_L18MemLabelIdentifier1ELi16EEEE
Ykj:_CanvasRenderer_INTERNAL_CALL_EnableRectClipping_m3318097918
WLg:_UInt64_System_IConvertible_ToDecimal_m806594027_AdjustorThunk
z6e:_Enumerator_System_Collections_IEnumerator_get_Current_m361750367_AdjustorThunk
H7e:_Enumerator_get_CurrentValue_m3103267885_gshared
NTh:_List_1__ctor_m3395838871_gshared
eBh:_Collection_1_IsFixedSize_m3698021882_gshared
bWi:_PKCS12__ctor_m1854440921
SOi:_Array_Resize_TisCustomAttributeNamedArgument_t287865710_m885566878_gshared
oE:__ZN11UnityEngine9Animation28GenericAnimationBindingCache25RegisterIAnimationBindingEPKN5Unity4TypeEiP17IAnimationBinding
Hed:__Z70RectTransformUtility_CUSTOM_INTERNAL_CALL_RectangleContainsScreenPointP12Il2CppObjectRK13Vector2fIcallS0_
yQd:_DirectoryInfo__ctor_m481305441
Zdk:dynCall_viiffiii
taa:__ZN10MemoryPoolC2E10MemLabelIdbPKciii
Hfd:__ZN14UnityAnalytics25UnregisterGlobalCallbacksEv
ZXb:__Z40ProcessCameraIndexListIsNodeVisibleInOutRK22SceneCullingParametersPK9SceneNodePK4AABBR9IndexList
l5i:_GUIScrollGroup_SetHorizontal_m291416666
xWa:__ZN16GraphicsSettings8TransferI17RemapPPtrTransferEEvRT_
uEf:_X509BasicConstraintsExtension_Decode_m120598446
Lz:__ZNK23AnimationPlayableOutput11DerivesFromE17ScriptingClassPtr
OAi:__ZL64EventType_t3528516131_CustomAttributesCacheGenerator_dragUpdatedP21CustomAttributesCache
mjd:__ZN11UnityEngine7Connect13ConfigHandler12GetListenersERKN4core12basic_stringIcNS2_20StringStorageDefaultIcEEEE
Gra:__ZN9GfxDevice18AllocRenderSurfaceEb
S5d:_Char__cctor_m2787437263
c6b:__ZN10TagManager32GetSortingLayerUniqueIDFromValueEi
Lud:_AspectRatioFitter_get_rectTransform_m2996235303
s$:__ZL27CleanupCoreScriptingClassesv
RBd:_Graphic_UnregisterDirtyMaterialCallback_m2707090617
C5e:_Comparer_1_System_Collections_IComparer_Compare_m1313384821_gshared
Jnc:__Z26AnimationCurve_CUSTOM_InitP12Il2CppObjectP11Il2CppArray
Plk:_glUniform1uiv__wrapper
ANc:__ZNK14b2PolygonShape5CloneEP16b2BlockAllocator
_Gj:__ZN6il2cpp2vm10Reflection7IsEventEP12Il2CppObject
f_:__ZN17PersistentManager26GetStreamNameSpaceInternalEi
sG:__ZN4FMOD6System11createSoundEPKcjP22FMOD_CREATESOUNDEXINFOPPNS_5SoundE
po:FUNCTION_TABLE_iiifiiii
sWc:__ZN13SpeedTreeWind20AdvanceWithoutUpdateEd
gBh:_ReadOnlyCollection_1_System_Collections_Generic_ICollectionU3CTU3E_Add_m1422506275_gshared
YVf:_DateTime_System_IConvertible_ToDecimal_m1044850612
Yaa:__ZN9ShaderLab19CommonPropertyNames13StaticCleanupEPv
g0:__Z31scripting_method_get_returntype18ScriptingMethodPtr
M5a:__ZN15SerializeTraitsI12LightmapDataE8TransferI24GenerateTypeTreeTransferEEvRS0_RT_
NOf:_SecurityElement_AddAttribute_m311510562
iik:_glStencilOpSeparate__wrapper
Xfc:__ZN4Mesh5SetUvEiPKfjj
N6a:__ZN7Texture13SetAnisoLimitENS_20AnisotropicFilteringE
sO:__ZN11AudioModule16SetListenerPauseEb
d3d:_Attribute_IsDefined_m4069052474
$h:_emscripten_glCompressedTexSubImage2D
qEa:__ZN13GfxDeviceGLES22MemoryBarrierImmediateEyN2gl17MemoryBarrierTypeE
YBa:__ZN6prcoreL26RemapGenericFloatToIntegerI18TexFormatARGBFloat17TexFormatARGB8888EEvPKNS_9InnerInfoE
_$h:_List_1_set_Capacity_m1977188119_gshared
Eic:__Z46GetShaderModelNumericValueFromRequirementsMask18ShaderRequirements
e_c:_cff_ps_has_glyph_names
aSg:_Dictionary_2_Resize_m3287623642_gshared
C0j:_GC_write
nJd:_RC2_Create_m2516417038
BBd:_Graphic_OnPopulateMesh_m767318148
HOg:_Dictionary_2_Remove_m4193450060_gshared
X4b:__Z13tessTesselateP14TESStesselatoriiiiPKf
tNe:_ConstructionCallDictionary__ctor_m2541174073
NNi:_Array_InternalArray__set_Item_TisMark_t3471605523_m1299772331_gshared
wAc:__Z44Register_UnityEngine_GUIStyle_SetDefaultFontv
l5b:__ZN19SpriteMeshGenerator9MakeShapeEP11ColorRGBA32iifhbjfi
Szb:__Z18Transfer_BlittableI18StreamedBinaryReadILb1EELb1EiEvRK29SerializationCommandArgumentsR31RuntimeSerializationCommandInfo
lB:__ZN9BlobWrite8TransferI22OffsetPtrArrayTransferIKN4math7_float3EEEEvRT_PKc17TransferMetaFlags
O4g:__Z173RuntimeInvoker_Int32_t2950945753_RuntimeObject_Int32_t2950945753_Int32_t2950945753_Int32_t2950945753_RuntimeObject_Int32_t2950945753_SByte_t1669577662_ContextU26_t3937453398PFvvEPK10MethodInfoPvPS4_
FVh:_List_1__ctor_m2576108087_gshared
OFj:__ZN15dense_hashtableINSt3__24pairIK10KeyWrapperINS1_IPK12PropertyInfoP11Il2CppClassEEEjEES9_17ReflectionMapHashIS8_EN14dense_hash_mapIS9_jSD_NS9_14EqualsComparerINS0_8equal_toIS8_EEEENS0_9allocatorISB_EEE9SelectKeyESI_SK_E12maybe_shrinkEv
yWi:_X509Certificate_get_DSA_m565099499
rAb:__Z18Transfer_BlittableI18StreamedBinaryReadILb1EELb1EsEvRK29SerializationCommandArgumentsR31RuntimeSerializationCommandInfo
UCg:_StringBuilder_Remove_m940064945
hHd:_DESCryptoServiceProvider_GenerateIV_m683687014
r2e:_InternalEnumerator_1_get_Current_m3792939945_gshared
Bhd:__ZN22BaseUnityConnectClient17OnEnterStateReadyEv
Mrf:_Text_get_fontSize_m1677872538
Fvc:_start_pass_dpost
CHd:_DSACryptoServiceProvider_get_PublicOnly_m3933928860
MUa:__ZN14GrowableBufferD2Ev
$mc:__Z29Input_CUSTOM_GetMouseButtonUpi
$Kd:_Int16_Parse_m138525169
fzj:__ZN6il2cpp6icalls8mscorlib6System8MonoType16InternalGetEventEP20Il2CppReflectionTypeP12Il2CppStringi
Y2i:_UriScheme_t722425697_marshal_pinvoke_back
Y$c:_UNITY_tt_face_load_maxp
nnc:__Z46Input_CUSTOM_INTERNAL_set_compositionCursorPosRK13Vector2fIcall
Vt:__ZN7mecanim5human12FullBodyMaskEv
Luf:_BigInteger_ToString_m3475000413
Odb:__ZN19ShaderPropertySheet11ComputeHashEv
stj:__ZN30dense_hashtable_const_iteratorI10KeyWrapperIPK19Il2CppGenericMethodES4_N6il2cpp8metadata23Il2CppGenericMethodHashEN14dense_hash_setIS4_S7_NS4_14EqualsComparerINS6_26Il2CppGenericMethodCompareEEENSt3__29allocatorIS4_EEE8IdentityESB_SE_EppEv
fOc:__ZN12b2EPCollider24ComputePolygonSeparationEv
ET:__ZN11UnityEngine15CloudWebService20WebRequestRestClient6IsDoneEv
XUi:_X509CertificateCollection_get_Item_m1033426577
Yi:_llvm_fabs_f32
hT:__ZN11UnityEngine15CloudWebService16SessionContainer16GetJsonDataBlockEjRKN4core12basic_stringIcNS2_20StringStorageDefaultIcEEEERS6_PjSA_
awf:_ASN1_Decode_m1695284166
h2f:_Enum_ToString_m3248653065
v_:__ZN14SafeBinaryReadD2Ev
B7b:__Z13RegisterClassI7TextureEvv
RPh:_Enumerator_MoveNext_m3859993671_gshared
HBb:__ZN8Gradient8TransferI18StreamedBinaryReadILb1EEEEvRT_
fIf:_Capture__ctor_m3103117740
P8a:__ZN4core8hash_mapINS_12basic_stringIcNS_20StringStorageDefaultIcEEEE13dynamic_arrayI4PPtrI6SpriteELj4EENS_4hashIS4_EENSt3__28equal_toIS4_EEEixERKS4_
M3g:__Z113RuntimeInvoker_Void_t1185182177_RuntimeObject_Int64_t3736567304_RuntimeObject_Int64_t3736567304_Int64_t3736567304PFvvEPK10MethodInfoPvPS4_
xtg:_RangeInt_get_end_m4128831787_AdjustorThunk
yQj:__ZN6il2cpp6icalls8mscorlib6System4Type15MakeGenericTypeEP20Il2CppReflectionTypeP11Il2CppArray
yj:_SDL_PauseAudio
Gbe:_Hashtable_Clone_m3078962909
ZJj:_il2cpp_class_from_type
hAj:__ZN6il2cpp2os4File11GetStdErrorEv
$kc:__Z48Register_UnityEngine_Camera_set_orthographicSizev
Xaa:__ZN9ShaderLab19CommonPropertyNames16StaticInitializeEPv
D4e:_Comparer_1__cctor_m2517796511_gshared
qD:__ZN7mecanim9animation18CreateAvatarOutputEPKNS0_14AvatarConstantEbbRNS_6memory9AllocatorE
r1d:_Array_GetLongLength_m561139708
Cqf:_Slider_set_maxValue_m2251404465
oM:__ZN11AudioSource23VirtualRedirectTransferER24GenerateTypeTreeTransfer
Hfc:__ZN7Texture11SetWrapModeE15TextureWrapMode
ygd:__ZN14UnityAnalytics15SendCustomEventERN11UnityEngine9Analytics15UserCustomEventE
k9a:__ZN14Texture2DArray23VirtualRedirectTransferER14SafeBinaryRead
yWd:_MissingMemberException__ctor_m1220732369
fTb:__ZNK6Camera21CalculateCanDoShadowsEv
Shg:_Application_InvokeOnBeforeRender_m2875673833
dXj:__ZN6il2cpp2os6Thread12SetStackSizeEj
mlf:_MaskableGraphic_RecalculateMasking_m183336762
BSi:_Array_InternalArray__get_Item_TisRuntimeObject_m3347010206_gshared
Zpe:_TypeBuilder_IsSubclassOf_m3458909121
Afc:__ZNK8Renderer16IsVisibleInSceneEv
VZ:__Z13VFormatBufferPciPKcz
NCb:__Z18Transfer_BlittableI18StreamedBinaryReadILb0EELb1EhEvRK29SerializationCommandArgumentsR31RuntimeSerializationCommandInfo
b_d:_X509Certificate__cctor_m198658613
xsg:_PlayableHandle_Equals_m1666612586_AdjustorThunk
aCa:__ZN6prcoreL27StretchGenericFloatBilinearI15TexFormatRFloatEEvPKNS_9InnerInfoE
zoi:__ZL139ServicePointManager_t170559685_CustomAttributesCacheGenerator_ServicePointManager_t170559685____CheckCertificateRevocationList_PropertyInfoP21CustomAttributesCache
t2f:_Enum_ToObject_m1628250250
Iw:__Z24ProcessAnimationMixBeginP35AnimationPlayableEvaluationConstantP32AnimationPlayableEvaluationInputP33AnimationPlayableEvaluationOutput
dza:__Z14PadImageBorderR14ImageReferenceii
oEj:__ZN15dense_hashtableINSt3__24pairIK10KeyWrapperINS1_IPK10MethodInfoP11Il2CppClassEEEjEES9_17ReflectionMapHashIS8_EN14dense_hash_mapIS9_jSD_NS9_14EqualsComparerINS0_8equal_toIS8_EEEENS0_9allocatorISB_EEE9SelectKeyESI_SK_E4findERSA_
Cwj:__ZN6il2cpp2vm13MetadataCache28GetFieldDefaultValueForFieldEPK9FieldInfo
Acg:_Array_IndexOf_TisUIVertex_t4057497605_m3336763564_gshared
kx:__ZN27AnimationLayerMixerPlayableD2Ev
cxd:_ColorBlock_Equals_m518833916_AdjustorThunk
Iwi:__ZL66PersistentCall_t3407714124_CustomAttributesCacheGenerator_m_TargetP21CustomAttributesCache
zI:__ZN12AudioManager39HandlePendingAudioConfigurationCallbackEv
wk:_emscripten_glIsFramebuffer
Cyf:_RSAManaged_EncryptValue_m799827583
B2:__ZN12_GLOBAL__N_16qAtan2Eff
Ak:_JS_Sound_SetLoopPoints
Jda:__ZN15dense_hashtableINSt3__24pairIKyP17VertexDeclarationEEy14GfxGenericHashIyEN14GfxDoubleCacheIyS4_S7_NS0_8equal_toIyEEN31GfxDoubleCacheConcurrencyPolicy11LocklessGetE42GfxDoubleCacheDefaultEmptyDeletedGeneratorIyEE9SelectKeyESA_13stl_allocatorIS5_L18MemLabelIdentifier24ELi16EEE14squash_deletedEv
CN:__ZN12AudioManager17ShouldSourcePauseEb
b5j:__ZN6il2cpp2vm26MetadataAllocGenericMethodEv
s9f:_Array_InternalArray__ICollection_Remove_TisUInt16_t2177724958_m1766181761_gshared
aIa:__ZN19ConstantBuffersGLES12RecordRenderEv
VDc:__ZN9JSONWrite8TransferI10RectOffsetEEvRT_PKc17TransferMetaFlags
Kya:__ZN4crnd12symbol_codec11decode_bitsEj
BOc:__ZN15b2CircleContact8EvaluateEP10b2ManifoldRK11b2TransformS4_
J6i:_AesManaged_GenerateIV_m1368817386
NSa:__ZN13dynamic_arrayI17SortingLayerEntryLj4EE6insertEPS0_jRKS0_
DI:__ZN4FMOD6System12createReverbEPPNS_6ReverbE
g_j:__ZN6il2cpp2vm6String21InitializeEmptyStringEP11Il2CppClass
bx:__ZN7mecanim19ValueArrayBlendNodeILb1EEEvRKNS_10ValueArrayERKNS_14ValueArrayMaskERS1_RS4_RNS_16ValueArrayWeightEf
Hkb:__Z16MarkDependenciesR27GarbageCollectorThreadStatej
Jvc:_noop_upsample
edj:_ObjectPool_1_get_countInactive_m526975942_gshared
xQe:_RemotingServices_DisposeIdentity_m2605848806
N2:__ZNK9Transform11GetPositionEv
Tig:_Bounds_set_size_m4127623202
aKd:_GuidParser_Reset_m2640004655
AXa:__ZN23SharedMeshRenderingData18UnloadVertexStreamEi
Ycc:__ZN31CanvasBatchIntermediateRenderer11AddSubBatchERK16DrawBuffersRangePK19ShaderPropertySheet
Ebc:__ZN19RenderEventsContextC2Ei
sR:__Z6simd4fRKf
cl:_emscripten_glEnable
EYe:_InternalEnumerator_1_System_Collections_IEnumerator_get_Current_m2982675020_gshared
GSa:__ZN10TagManager23VirtualRedirectTransferER14SafeBinaryRead
xIi:__ZL51RawImage_t3182918964_CustomAttributesCacheGeneratorP21CustomAttributesCache
QVb:__Z15InitLightMeshesv
Gre:_MonoCMethod_ToString_m3992577062
Pn:FUNCTION_TABLE_iifiii
I6a:__ZN15QualitySettings8TransferI19StreamedBinaryWriteILb0EEEEvRT_
juc:_UNITY_png_reciprocal
vkf:_LayoutUtility_U3CGetFlexibleHeightU3Em__7_m2991026842
CXc:_cf2_arrstack_init
KSi:_Array_InternalArray__get_Item_TisResourceCacheItem_t51292791_m1306056717_gshared
Whh:__Z157RuntimeInvoker_Void_t1185182177_RuntimeObject_RuntimeObject_RuntimeObject_RuntimeObject_RuntimeObject_RuntimeObject_RuntimeObject_RuntimeObject_RuntimeObjectPFvvEPK10MethodInfoPvPS4_
wX:__Z15CleanLogHandler7LogTypePKcz
aZd:_NumberFormatter_NumberToString_m2481532188
zma:__ZN9ShaderLab19SerializedSubShader8TransferI19StreamedBinaryWriteILb0EEEEvRT_
Nof:_ScrollRect_InternalGetBounds_m599803667
dGb:__ZN6Camera17RemoveImageFilterERK11ImageFilter
eoa:__ZNSt3__218__insertion_sort_3IR25ValueParameterArraySorterPN20GpuProgramParameters14ValueParameterEEEvT0_S6_T_
ZRc:__ZN10ClipperLib7Clipper27ProcessEdgesAtTopOfScanbeamEx
noi:__ZL67EditorBrowsableAttribute_t1475454531_CustomAttributesCacheGeneratorP21CustomAttributesCache
Lae:_Comparer__cctor_m3311686689
gYe:_InternalEnumerator_1_get_Current_m3500427238_AdjustorThunk
Qcd:__ZN2UI26InitializeDeviceForOverlayEi
Y9:__Z27LogRepeatingStringWithFlagsRKN4core12basic_stringIcNS_20StringStorageDefaultIcEEEE15LogMessageFlagsi
fMg:_UInt64_System_IConvertible_ToSingle_m925613075
u2f:_Enum_IsDefined_m1442314461
QFg:_Thread__cctor_m817723615
Fdj:_AudioExtensionManager_RegisterBuiltinDefinitions_m2742744104
uu:__ZN17AnimationPlayable28ComputeNeedsBindingRebuildedEv
Bt:__ZN17AnimationPlayable23RequestAllocateBindingsEv
YUf:_DecoderReplacementFallbackBuffer_Fallback_m1261056214
Sie:_Binder_get_DefaultBinder_m950908649
QQd:_StreamReader__ctor_m1616861391
skd:__ZN18UnityConnectClient33OnPlayerSessionStateChangedStaticEPS_jyy
hLf:_RSA_ToXmlString_m2922661427
oU:__ZNK11UnityEngine15CloudWebService23WebRequestUploadHandler11GetProgressEv
Kva:__ZN7ApiGLES4LoadE16GfxDeviceLevelGL
Z5a:__ZN18StreamedBinaryReadILb0EE21TransferSTLStyleArrayI13dynamic_arrayI31EnlightenSystemAtlasInformationLj8EEEEvRT_17TransferMetaFlags
STj:__ZN15dense_hashtableI10KeyWrapperIP18Il2CppGenericClassES3_N6il2cpp8metadata22Il2CppGenericClassHashEN14dense_hash_setIS3_S6_NS3_14EqualsComparerINS5_25Il2CppGenericClassCompareEEENSt3__29allocatorIS3_EEE8IdentityESA_SD_E15insert_noresizeERKS3_
Lac:__ZZL31RegisterOtherRendererPropertiesR22GenericPropertyBindingEN30Wrapper_RendererReceiveShadows13GetFloatValueEPv
P7f:_Array_InternalArray__ICollection_Contains_TisSlot_t384495010_m688761886_gshared
q4a:__ZN17SharedTextureDataC2E10MemLabelIdii13TextureFormatjiibb
Sjh:__Z114RuntimeInvoker_RuntimeObject_RuntimeObject_Int32_t2950945753_Int32_t2950945753_Int32_t2950945753_Int32_t2950945753PFvvEPK10MethodInfoPvPS4_
kJb:__ZN8Material11SetPassFastEPN9ShaderLab4PassER17ShaderPassContextP6Shaderib
qkd:__ZN11UnityEngine7Connect20BasePersistentValues10SaveValuesER9JSONWrite
hyh:_Collection_1_IsFixedSize_m3748602684_gshared
_Vf:_DateTime_System_IConvertible_ToDouble_m2116720007
Wlg:_Display_GetSystemExtImpl_m2808197389
cHg:_WaitHandle_WaitOne_m2577152516
QZd:_X509Certificate_PEM_m1177570576
NTe:_ArrayReadOnlyList_1_GetEnumerator_m1835926958_gshared
kPc:__ZNSt3__27__sort4IR24RayHitsByDepthComparitorP12RaycastHit2DEEjT0_S5_S5_S5_T_
Ngc:__Z14ScaleCurveTimeR17AnimationCurveTplIfEf
jda:__ZN22VirtualJoystickManagerC2Ev
Lca:__ZN20GlobalCachingManager7DisposeEv
dQb:__Z12SetupLODFadeR9GfxDeviceR17ShaderPassContextf
i2a:__ZNK14PlayableOutput7GetTypeEv
lNc:__ZN26b2PolygonAndCapsuleContact6CreateEP9b2FixtureiS1_iP16b2BlockAllocator
DVb:__ZL24CollectForwardObjectsJobP27CollectForwardObjectsHeader
yXb:__Z13IsNodeVisibleRK9SceneNodeRK4AABBRK22SceneCullingParameters
cdg:_Array_InternalArray__IndexOf_TisLabelFixup_t858502054_m1491765395_gshared
ytf:_SortKeyBuffer_AppendCJKExtension_m2591091991
Jed:__Z57RectTransformUtility_CUSTOM_INTERNAL_CALL_PixelAdjustRectP12Il2CppObjectS0_R5RectTIfE
wEg:_UTF8Encoding_GetByteCount_m4153686982
yYb:__Z24ScheduleCullingAllGroupsR8JobFenceRK22SceneCullingParametersiRK13CullingOutputRK13dynamic_arrayIP12CullingGroupLj4EERKS_
Lnk:_emscripten_glStencilMask__wrapper
B2g:__Z49RuntimeInvoker_Void_t1185182177_Double_t594665363PFvvEPK10MethodInfoPvPS4_
itj:__ZN15dense_hashtableI10KeyWrapperIPK19Il2CppGenericMethodES4_N6il2cpp8metadata23Il2CppGenericMethodHashEN14dense_hash_setIS4_S7_NS4_14EqualsComparerINS6_26Il2CppGenericMethodCompareEEENSt3__29allocatorIS4_EEE8IdentityESB_SE_EC2ERKSH_j
GUa:__ZN15RenderNodeQueue7CleanupEv
qte:_MonoProperty_CreateGetterDelegate_m2478402519
DVc:__ZN16NovodexAllocator8allocateEjPKcS1_i
a1a:__ZN39DeprecatedFastPropertyNameSerialization8TransferI14SafeBinaryReadEEvRT_
pWi:_DeriveBytes_DeriveIV_m973925711
SMd:_Int32_System_IConvertible_ToSByte_m3133688512
AVb:__ZN9ShaderLab10GrabPassesD2Ev
v9a:__ZN14Texture2DArray13UploadTextureEv
Ykf:_MaskableGraphic_UpdateCull_m2805101913
F0c:_tt_cmap14_done
Dib:__ZN18AwakeFromLoadQueue25RegisterObjectInstanceIDsEv
UNi:_Array_InternalArray__set_Item_TisColor32_t2600501292_m1891325855_gshared
px:__ZNK27AnimationLayerMixerPlayable11DerivesFromE17ScriptingClassPtr
R6c:__ZN20TextRenderingPrivate19NativeTextGenerator15InsertCharacterEiPj
jKc:__ZN11b2RopeJoint24SolveVelocityConstraintsERK12b2SolverData
zXd:_MonoType_get_attributes_m1332507727
A4i:_GUIContent_ClearStaticCache_m1205116045
UPf:_WindowsIdentity_Dispose_m3466258450
ERe:_BinaryCommon__cctor_m2978407547
Y5d:_Char_System_IConvertible_ToByte_m2347554595
y8c:__ZN20TextRenderingPrivate15DynamicFontData21GetFontMetricsForFaceERK13dynamic_arrayIN4core17string_with_labelILi35EEELj4EEiRKS1_I4PPtrIN13TextRendering4FontEELj4EEPfSF_
Obj:_IndexedSet_1__ctor_m2250384602_gshared
JKg:_UInt16_TryParse_m4139137016
RYj:__ZN6il2cpp2gc16GarbageCollector9FreeFixedEPv
qBg:_Encoding__ctor_m2997749867
opg:_ManagedStreamHelpers_ManagedStreamSeek_m3158782053
i1i:_ExpressionAssertion_Compile_m2166597834
wFb:__ZN16ScriptingManagerD0Ev
fRf:_Single_System_IConvertible_ToSByte_m1208276900_AdjustorThunk
x$j:__ZN6il2cpp6icalls8mscorlib6System7Convert24InternalFromBase64StringEP12Il2CppStringb
uSj:__ZN30dense_hashtable_const_iteratorINSt3__24pairIK10KeyWrapperINS1_IPKcS4_EEEiEES6_24NamespaceAndNamePairHashN14dense_hash_mapIS6_iS9_NS6_14EqualsComparerI26NamespaceAndNamePairEqualsEENS0_9allocatorIS8_EEE9SelectKeyESD_SF_EppEv
wlc:__Z44Register_UnityEngine_Component_get_transformv
pC:__ZN12_GLOBAL__N_120ProcessPlayableGraphERN8Animator11AnimatorJobER35AnimationPlayableEvaluationConstantR32AnimationPlayableEvaluationInputR33AnimationPlayableEvaluationOutputPFvS4_R17AnimationPlayableEPFvS4_S6_S8_EPFvS8_S4_S6_S8_fESE_MS9_FvPS3_PS5_PS7_E
rlj:_CanvasRenderer_get_absoluteDepth_m2703237819
B6f:_TextInfo_ToLower_m2744057472
hMb:__ZN17ArchiveFileSystem12MountArchiveEPKcS1_
qXg:_EqualityComparer_1_System_Collections_IEqualityComparer_Equals_m3977314386_gshared
_Cc:__Z18Transfer_BlittableI9JSONWriteLb1E8Vector4fEvRK29SerializationCommandArgumentsR31RuntimeSerializationCommandInfo
Ln:FUNCTION_TABLE_viififiii
I3f:_CCGregorianCalendar_year_from_fixed_m463929682
Wad:__ZN2UI13CanvasManagerD0Ev
pY:__ZThn32_NK8Renderer14GetSubsetIndexEi
qlg:_Debug_get_unityLogger_m2239795986
pBh:_ReadOnlyCollection_1_System_Collections_IEnumerable_GetEnumerator_m2123446296_gshared
jze:_MD2Managed_Initialize_m2341076836
CHh:_ReadOnlyCollection_1_System_Collections_IList_Add_m4240023232_gshared
zsa:__ZN9GfxDevice15ImmediateVertexEfff
j7b:__Z13RegisterClassI8MaterialEvv
i5a:__ZNK16LightmapSettings22GetTypeVirtualInternalEv
YPi:_Array_Sort_TisUIVertex_t4057497605_TisUIVertex_t4057497605_m4243853890_gshared
Rpa:__ZN13GfxDeviceGLES15SetStencilStateEPK18DeviceStencilStatei
M4d:_Buffer_BlockCopyInternal_m418318694
z9j:_cycle
n$j:__ZN6il2cpp2vm8Profiler7GCEventE13Il2CppGCEvent
m4g:__Z76RuntimeInvoker_Void_t1185182177_RuntimeObject_RuntimeFieldHandle_t1871169219PFvvEPK10MethodInfoPvPS4_
Nd:_emscripten_glUniform1iv
QMc:__ZN15b2DistanceProxy3SetEPK7b2Shapei
tob:__ZN16MemoryFileSystemD2Ev
D4g:__Z150RuntimeInvoker_Int32_t2950945753_RuntimeObject_Int32_t2950945753_Int32_t2950945753_RuntimeObject_Int32_t2950945753_Int32_t2950945753_Int32_t2950945753PFvvEPK10MethodInfoPvPS4_
q3d:_BitConverter_DoubleToInt64Bits_m3574395137
CXf:_DateTime_Parse_m3729096069
KVh:_List_1_System_Collections_IList_Add_m1540114404_gshared
clc:__Z37Register_UnityEngine_Camera_get_depthv
wsh:__Z92RuntimeInvoker_RuntimeObject_SByte_t1669577662_SByte_t1669577662_RuntimeObject_RuntimeObjectPFvvEPK10MethodInfoPvPS4_
BUd:_StringReader_Read_m3322058819
JJe:_CrossAppDomainChannel_get_ChannelPriority_m3418073750
Uhf:_Selectable_StartColorTween_m3618813981
upd:_BaseInputModule_HandlePointerExitAndEnter_m1705532066
V1b:__Z23ConvertIntegerToTypePtrItEbPvR14SafeBinaryRead
g0f:_Delegate_CombineImpl_m3572135514
CLd:_NumberFormatter_IntegerToString_m1679294587
UEh:_ReadOnlyCollection_1_System_Collections_IList_RemoveAt_m422909114_gshared
WC:__ZN7mecanim5human29HumanGetGoalOrientationOffsetENS0_4GoalE
ce:_emscripten_glStencilFunc
gtd:__Z46il2cpp_codegen_get_marshal_directive_exceptionPKc
xff:_InputField_get_isFocused_m709836844
je:_glGetActiveUniformBlockName
Uf:_emscripten_glUniform1fv
D1i:_Parser_IsIgnoreCase_m2210120858
Enc:__Z39Quaternion_CUSTOM_INTERNAL_CALL_InverseRK11QuaternionfRS_
yJ:__ZN4FMOD7Channel20set3DConeOrientationEP11FMOD_VECTOR
Cn:FUNCTION_TABLE_iiifii
Wje:_AssemblyBuilder_not_supported_m1735277432
YVj:__ZN6il2cpp2vm12GenericClass11SetupEventsEP11Il2CppClass
D3c:_tt_delta_interpolate
b1c:_tt_cmap12_get_info
ixc:__Z24LoadImageIntoTextureImplI11JpegDecoderEbR9Texture2DPKhjb13TextureFormatR13dynamic_arrayIhLj1EE
ERj:__ZN6il2cpp2vm15ReboxIReferenceEP14Il2CppIUnknownP11Il2CppClass
Mmj:__ZN6il2cpp6icalls8mscorlib6System7Decimal14decimalCompareEP19il2cpp_decimal_reprS5_
GOg:_Dictionary_2_OnDeserialization_m4209543208_gshared
U$j:__ZThn4_N6il2cpp2vm13CachedCCWBaseINS0_13ManagedObjectEE7ReleaseEv
Tng:_GameObject_AddComponent_m136524825
jfi:__ZL62SoapMethodAttribute_t1935009310_CustomAttributesCacheGeneratorP21CustomAttributesCache
Tdh:__Z100RuntimeInvoker_Void_t1185182177_RuntimeObject_Int32_t2950945753_Int32_t2950945753_UInt16_t2177724958PFvvEPK10MethodInfoPvPS4_
Okk:_glCopyTexImage2D__wrapper
zUc:__ZN16PhysicsManager2D11CreateWorldERK8Vector2f
m1f:_Double_System_IConvertible_ToUInt32_m271206838
N8:__GLOBAL__sub_I_runtime_graphics_billboard_0_cpp
vJb:__Z18ClearByDrawingQuad13GfxClearFlagsRK10ColorRGBAffjR17ShaderPassContext
zBa:__ZN6prcoreL17RemapGenericFloatI14TexFormatRHalf15TexFormatRFloatEEvPKNS_9InnerInfoE
JYc:_cf2_getBlueValues
UPb:__Z16ShouldUseShadowsb
gfa:__ZN15DirectorManager21RebuildStageCallbacksEv
IJb:__ZN19RuntimeSceneManager9LoadSceneERKN4core12basic_stringIcNS0_20StringStorageDefaultIcEEEES6_S6_RK9UnityGUIDiNS_11LoadingModeE
Rua:__ZN7ApiGLES10DrawArraysE16GfxPrimitiveTypejjj
VG:__ZN10SampleClip13LoadBaseSoundEv
d$d:_SmallXmlParser_SkipWhitespaces_m4243606597
w4f:_CompareInfo_IndexOf_m2631915198
Cke:_ConstructorBuilder_GetCustomAttributes_m2495332786
z5d:_Byte_CompareTo_m4285128861
Nqd:_TriggerEvent__ctor_m87299207
BQ:__Z57AudioSource_CUSTOM_INTERNAL_CALL_ClearExtensionPropertiesP12Il2CppObjectRK12PropertyName
kVj:__ZN15dense_hashtableINSt3__24pairIK10KeyWrapperIP12Il2CppObjectEN6il2cpp2gc9CachedCCWEEES5_NS7_5utils11PointerHashIS3_EEN14dense_hash_mapIS5_S9_SD_NS5_14EqualsComparerINS0_8equal_toIS4_EEEENS0_9allocatorISA_EEE9SelectKeyESI_SK_E15insert_noresizeERKSA_
AUg:_EqualityComparer_1__cctor_m3962593840_gshared
e2a:__ZN22DeviceMVPMatricesStateC2ER9GfxDevice
mn:FUNCTION_TABLE_iifii
$9d:_Comparer_Compare_m3984347512
p5a:__ZN21EnlightenSceneMapping8TransferI14SafeBinaryReadEEvRT_
nJj:__ZN6il2cpp2vm10Reflection12HasAttributeEP9FieldInfoP11Il2CppClass
Zm:FUNCTION_TABLE_iiffi
rc:invoke_viiifi
pte:_MonoProperty_GetCustomAttributes_m3619796755
zOe:_MethodDictionary_System_Collections_IEnumerable_GetEnumerator_m4169036899
YMa:__ZNK11AssetBundle14GetPreloadDataEiR13dynamic_arrayIiLj4EE
$vc:_rgb_gray_convert_22
JKf:_RIPEMD160Managed_JJJ_m4161373884
DSg:_DefaultComparer_Equals_m3257444875_gshared
tf:_JS_Sound_SetPosition
_Za:__ZN19RenderBufferManager13GetTempBufferEii17DepthBufferFormat19RenderTextureFormatj22RenderTextureReadWrite14VRTextureUsagei23RenderTextureMemoryless
cwj:__ZL13GetSharedInstPK17Il2CppGenericInst
Jhd:__ZN22BaseUnityConnectClient17SaveSessionValuesEv
jWe:_InternalEnumerator_1_get_Current_m476140818_gshared
GVb:__Z24SetupActiveLightsContextR21ActiveLightingContextRK12ActiveLightsRK11CullResultsP14ShadowMapCacheRK10MinMaxAABB
Uoc:__Z38Sprite_CUSTOM_INTERNAL_get_textureRectP12Il2CppObjectP5RectTIfE
$Hj:__ZNK15dense_hashtableINSt3__24pairIK10KeyWrapperIPK22Il2CppGenericParameterEPK24MonoGenericParameterInfoEES6_N6il2cpp5utils11PointerHashIS4_EEN14dense_hash_mapIS6_SA_SF_NS6_14EqualsComparerINS0_8equal_toIS5_EEEENS0_9allocatorISB_EEE9SelectKeyESK_SM_E3endEv
Bic:__ZN9TextAsset7SetTextERKN4core12basic_stringIcNS0_20StringStorageDefaultIcEEEE
DTa:__ZN6Camera8TransferI24GenerateTypeTreeTransferEEvRT_
Ka:invoke_iiiiiiif
Ga:invoke_iiiiiiii
phg:_Array_InternalArray__set_Item_TisByte_t1134296376_m3104140039_gshared
Jug:_Rect_ToString_m447614148
TWi:_PKCS12_GetBytes_m415958948
YYb:__ZN8Renderer17PendingAddToSceneEv
Bok:b122
Eok:b125
Dok:b124
Gok:b127
Fok:b126
eoc:__Z52Register_UnityEngine_RectTransform_INTERNAL_get_rectv
Dqg:_Mesh_SetSizedArrayForChannel_m2565120436
e$:__Z21PostprocessStacktracePKcRN4core12basic_stringIcNS1_20StringStorageDefaultIcEEEE
ppg:_ManagedStreamHelpers_ManagedStreamLength_m2930872960
ygb:__ZN18StreamedBinaryReadILb0EE21TransferSTLStyleArrayI13dynamic_arrayI16SplashScreenLogoLj4EEEEvRT_17TransferMetaFlags
DVi:_BasicConstraintsExtension_Encode_m2009213240
plc:__Z47Register_UnityEngine_Camera_get_allCamerasCountv
nwd:___clang_call_terminate
Mhd:__ZN22BaseUnityConnectClient20StartEventDispatcherEv
agc:__ZNSt3__26vectorIj13stl_allocatorIjL18MemLabelIdentifier1ELi16EEE6assignIPKtEENS_9enable_ifIXaasr21__is_forward_iteratorIT_EE5valuesr16is_constructibleIjNS_15iterator_traitsIS9_E9referenceEEE5valueEvE4typeES9_S9_
HB:__ZN7mecanim9animation16EvaluateAvatarIKEPKNS0_14AvatarConstantEPKNS0_11AvatarInputEPNS0_12AvatarOutputEPNS0_12AvatarMemoryEPNS0_15AvatarWorkspaceEb
fDa:__ZL25ProgramUniformMatrix4x3fvPK7ApiGLESjiihPKv
tNb:__ZN12InputManager13InputEndFrameEv
lLc:__ZN15b2RevoluteJointC2EPK18b2RevoluteJointDef
Sqg:_Object_get_name_m4211327027
$Mj:__ZN6il2cpp2vm6Thread5SetupEP12Il2CppThread
b8e:_Enumerator_System_Collections_IDictionaryEnumerator_get_Key_m2500634048_gshared
Fak:___munmap
kg:_localtime_r
zOb:__ZN22RenderingCommandBuffer13GetAndCheckRTE24BuiltinRenderTextureTypeRKN9ShaderLab16FastPropertyNameEPKcPP13RenderTexture
Ida:__ZN14GfxDoubleCacheIyP17VertexDeclaration14GfxGenericHashIyENSt3__28equal_toIyEEN31GfxDoubleCacheConcurrencyPolicy11LocklessGetE42GfxDoubleCacheDefaultEmptyDeletedGeneratorIyEEC2Ev
lX:__Z19free_alloc_internalPv10MemLabelId
YDg:_UTF32Decoder_GetChars_m1925558948
ng:_strftime
YFa:__ZN7Texture33SetStoredColorSpaceNoDirtyNoApplyE17TextureColorSpace
cve:_ResourceSet__ctor_m3618395942
i_f:_Decimal_System_IConvertible_ToDouble_m3125524987_AdjustorThunk
f2:__ZN12FileAccessorD2Ev
NXa:__ZN14VertexDataInfoC2Ev
BYj:__ZN6il2cpp2gc16GarbageCollector14CollectALittleEv
xdc:__ZNK9HPlayable15GetPlayableTypeEv
eBb:__ZL17Transfer_GUIStyleI18StreamedBinaryReadILb1EELb1EEvRK29SerializationCommandArgumentsR31RuntimeSerializationCommandInfo
imf:_RectMask2D_IsRaycastLocationValid_m1652308696
Xyj:__ZN6il2cpp6icalls8mscorlib6SystemL9IsPrivateEPK12PropertyInfo
aXi:_X501_ToString_m1148552872
yvg:_RectTransform_add_reapplyDrivenProperties_m1374850920
Vaa:__ZN9shadertag10InitializeEv
fQb:__ZN13BatchRenderer20RenderSingleWithPassER17ShaderPassContextPK18SharedMaterialDataP6ShaderPN9ShaderLab4PassEiPKNS7_10GrabPassesEjib15BatchBreakCause
F6a:__ZN15QualitySettings14QualitySetting8TransferI24GenerateTypeTreeTransferEEvRT_
Fqc:__Z44Register_UnityEngine_Object_DestroyImmediatev
cge:_Convert_ToSingle_m835189399
Pec:__ZN22BlockMemoryCacheWriter14LockCacheBlockEjPPhS1_
KGc:__Z22TransferField_NonArrayI8JSONRead27Converter_SimpleNativeClassI8GUIStyleEEvRK23StaticTransferFieldInfoR31RuntimeSerializationCommandInfoRT0_
Ug:_llvm_eh_typeid_for
a7b:__Z13RegisterClassI10GameObjectEvv
hOe:_RemotingServices_FindInterfaceMethod_m2125212568
Kz:__ZNK23AnimationPlayableOutput7GetTypeEv
hUd:_StreamWriter__cctor_m1229272693
d2f:_Enum_System_IConvertible_ToSByte_m779472798
GIg:_Type_get_IsInterface_m3284996719
sDb:__Z18Transfer_BlittableI18StreamedBinaryReadILb0EELb1E8Vector4fEvRK29SerializationCommandArgumentsR31RuntimeSerializationCommandInfo
oSg:_Dictionary_2_U3CCopyToU3Em__0_m2023886030_gshared
lnk:_glBindVertexArray__wrapper
dEd:_SerializationInfo__ctor_m2923079689
H0a:__ZN8Material8TransferI14SafeBinaryReadEEvRT_
S2a:__ZN12CubemapArray17UploadToGfxDeviceEv
fLd:_Int32_JumpOverWhite_m208298144
Onh:__Z53RuntimeInvoker_Int32_t2950945753_UIVertex_t4057497605PFvvEPK10MethodInfoPvPS4_
mmk:_emscripten_glGetUniformiv__wrapper
N$j:__ZN6il2cpp2vm13ManagedObject14QueryInterfaceERK10Il2CppGuidPPv
rH:__ZN11AudioSource4StopEb
_sb:__ZN14SafeBinaryRead21TransferSTLStyleArrayI13dynamic_arrayI10Matrix4x4fLj4EEEEvRT_17TransferMetaFlags
qUa:__ZN15LODGroupManager26CollectAllLODGroupManagersERK16CoreCameraValuesR13dynamic_arrayIPS_Lj4EEb
xIa:__ZN18GlslGpuProgramGLESD2Ev
l$b:__ZN13RenderTexture14SetVolumeDepthEi
LS:__ZN11UnityEngine15CloudWebService14DataErrorEvent12ToJsonStringERN4core12basic_stringIcNS2_20StringStorageDefaultIcEEEEjPKc
jdh:__Z86RuntimeInvoker_Void_t1185182177_UInt16_t2177724958_SByte_t1669577662_SByte_t1669577662PFvvEPK10MethodInfoPvPS4_
Una:__Z22LoadGpuProgramFromDataPKhS0_Rj
oHc:__ZN10Matrix4x4f8TransferI8JSONReadEEvRT_
N5c:__ZN14SafeBinaryRead21TransferSTLStyleArrayI13dynamic_arrayIN4core17string_with_labelILi35EEELj4EEEEvRT_17TransferMetaFlags
Ulf:_PositionAsUV1_ModifyMesh_m4231919476
ebe:_Hashtable__ctor_m1941859523
vof:_ScrollRect_set_horizontalScrollbarSpacing_m2209919081
xZ:__ZN17PersistentManager18ReadObjectThreadedEi
nFa:__ZN25TransformFeedbackSkinning31CleanupTransformFeedbackShadersEv
eUa:__Z22scripting_object_unbox18ScriptingObjectPtr
T6c:__ZNK20TextRenderingPrivate8FontImpl19GetCharacterAdvanceEjijfPj
Keg:_Array_InternalArray__ICollection_Add_TisUriScheme_t722425697_m3142345403_gshared
a9j:_fmt_u
s8a:__ZN10VertexData8TransferI18StreamedBinaryReadILb0EEEEvRT_
b8j:__ZN6il2cpp8metadata25Il2CppGenericClassCompare7CompareEPK18Il2CppGenericClassS4_
aYd:_MonoType_get_Assembly_m4290914179
Ooa:__ZN9ShaderLab7ProgramC2E10MemLabelIdi10ShaderType
x$b:__ZN14PreloadManager16UpdatePreloadingEv
fTf:_String_LastIndexOf_m95398196
cOi:_Array_InternalArray__set_Item_TisUILineInfo_t4195266810_m2313892078_gshared
lsg:_PlayableAsset__ctor_m2395156306
kW:__ZNK21UnityDefaultAllocatorI17LowLevelAllocatorE8ContainsEPKv
iFd:_RuntimeTypeHandle_Equals_m2857439487
di:_emscripten_get_main_loop_timing
zwe:_SafeHandle_Finalize_m3866180675
E6a:__ZN24GenerateTypeTreeTransfer21TransferSTLStyleArrayINSt3__26vectorIN15QualitySettings14QualitySettingENS1_9allocatorIS4_EEEEEEvRT_17TransferMetaFlags
LSd:_MemoryStream_ToArray_m3911744835
C7e:_Enumerator_System_Collections_IDictionaryEnumerator_get_Entry_m859540448_AdjustorThunk
iJg:_Type_GetHashCode_m1947148725
t8g:__Z91RuntimeInvoker_Void_t1185182177_RuntimeObject_RuntimeObject_RuntimeObject_SByte_t1669577662PFvvEPK10MethodInfoPvPS4_
Ilb:__ZNK2UI13RectTransform22GetTypeVirtualInternalEv
Ap:getTempRet0
Opd:_BaseRaycaster_OnEnable_m2678466030
O6e:_Enumerator_get_CurrentKey_m627428048_AdjustorThunk
fng:_UnityEventBase__ctor_m1851535676
hQi:_Array_Sort_TisVector4_t3319028937_m2797285308_gshared
LEe:_HandshakeMessage_Update_m2417837686
xOj:__ZN6il2cpp6icalls8mscorlib6System9ThreadingL21lookup_cached_cultureEP12Il2CppThreadi
X3j:__ZN6il2cpp2os11EventHandleD2Ev
brc:__Z40LineRenderer_CUSTOM_SetPosition_InjectedP12Il2CppObjectiRK8Vector3f
Cmg:_NetFxCoreExtensions_CreateDelegate_m751211712
xWb:__ZN18DeferredRenderLoopD2Ev
Vlj:_AnimationLayerMixerPlayable__cctor_m4086299972
s3:__ZNK16TypeTreeIterator4NameEv
F1:__ZN15FileSystemEntry3SetEPKc
vke:_ConstructorBuilder_Invoke_m3010446651
Xaj:_MagnifyGlass_createMagnifyGlass_m500014374
JCf:_IPv6Address_set_ScopeId_m3907190992
PBh:_ReadOnlyCollection_1_System_Collections_Generic_IListU3CTU3E_Insert_m568455025_gshared
hJ:__ZN20SoundChannelInstance15ParameterBuffer5ApplyEPN4FMOD7ChannelE
xCf:_IPv6Address__ctor_m4117281080
Q6c:__ZN20TextRenderingPrivate19NativeTextGenerator9InsertTabEv
xdk:_sbrk
Hig:_Bounds_GetHashCode_m1844059663
$Ph:_Enumerator_VerifyState_m3474272061_AdjustorThunk
nid:__ZN11UnityEngine15PlatformWrapper24GetRuntimePlatformStringEv
Pi:_glIsEnabled
$je:_DerivedType__ctor_m1853298054
Prb:__Z25scripting_class_get_image17ScriptingClassPtr
_9d:_CaseInsensitiveComparer_Compare_m1224120810
FSh:_List_1_RemoveAt_m2730968292_gshared
fib:__ZNSt3__26vectorIN4core12basic_stringIcNS1_20StringStorageDefaultIcEEEE13stl_allocatorIS5_L18MemLabelIdentifier13ELi16EEEC2INS_11__wrap_iterIPS5_EEEET_SE_RKS8_PNS_9enable_ifIXaasr21__is_forward_iteratorISE_EE5valuesr16is_constructibleIS5_NS_15iterator_traitsISE_E9referenceEEE5valueEvE4typeE
Ti:_emscripten_glDrawElementsInstanced
xy:__ZN26AnimatorControllerPlayable27SetupStateMachineBehavioursEv
gjf:_LayoutGroup_get_preferredWidth_m3816902260
UVa:__ZN18JobBatchDispatcherD2Ev
Dlb:__ZN9Transform17MainThreadCleanupEv
E2j:_GC_clear_hdr_marks
hok:_emscripten_glCreateShader__wrapper
_Wc:_cff_fd_select_get
Drf:_Text_set_resizeTextForBestFit_m4095249125
GEf:_OidEnumerator_MoveNext_m3138911739
cj:_emscripten_glGetShaderiv
hK:__ZN4FMOD6System10getVersionEPj
$9c:__ZN2UI6Canvas23VirtualRedirectTransferER24GenerateTypeTreeTransfer
Sfk:dynCall_viiiififfi
Mpf:_Selectable_set_animationTriggers_m2970345687
SEc:__ZN9JSONWrite8TransferIN4math12int2_storageEEEvRT_PKc17TransferMetaFlags
z5c:__ZN13TextRendering4Font13AwakeFromLoadE17AwakeFromLoadMode
C4f:_CompareInfo_LastIndexOf_m2688553706
dra:__ZN9GfxDevice21ReleaseSharedMeshDataEP14SharedMeshData
Esd:_MouseState__ctor_m1467839005
u2i:_Uri_IsDomainAddress_m2867513594
ofb:__ZNSt3__27__sort5IRNS_6__lessINS_4pairIPKN5Unity4TypeE7Hash128EES8_EEPS8_EEjT0_SC_SC_SC_SC_T_
Mzd:_Dropdown_CreateItem_m2954407740
L1j:_GC_unreachable_finalize_mark_proc
bGf:_X509Chain_ProcessCrlExtensions_m236234529
h3j:_maybe_finalize
brj:__ZN6il2cpp2vm5Class40GetInterfaceInvokeDataFromVTableSlowPathEPK12Il2CppObjectPK11Il2CppClassj
bdg:_Array_InternalArray__IndexOf_TisLabelData_t360167391_m1826525656_gshared
Ync:__Z43RectTransform_CUSTOM_INTERNAL_get_anchorMaxP12Il2CppObjectP13Vector2fIcall
Ljj:_TextGenerator_INTERNAL_CALL_Populate_Internal_cpp_m4171649399
MKe:_RemotingConfiguration_RegisterChannelTemplate_m3105688054
JZf:_Decimal_Parse_m942471224
$4a:__ZN8Material28UpdateHashesOnPropertyChangeEN9ShaderLab16FastPropertyNameE
pbi:__ZL56MethodBuilder_t2807316753_CustomAttributesCacheGeneratorP21CustomAttributesCache
Moc:__Z53Register_UnityEngine_SortingLayer_GetLayerValueFromIDv
Hqb:__Z18Transfer_BlittableI14SafeBinaryReadLb1E8Vector4fEvRK29SerializationCommandArgumentsR31RuntimeSerializationCommandInfo
Zaj:_MagnifyGlass_getLine_m3930504756
Oud:_AspectRatioFitter_SetDirty_m2910185270
mxc:__Z27LoadMemoryBufferIntoTextureR9Texture2DPKhj20LoadImageCompressionb
jt:__ZN8Animator23VirtualRedirectTransferER19StreamedBinaryWriteILb0EE
eA:__ZN11UnityEngine9Animation32CreateAnimatorGenericBindingsOptERKNS0_20AnimationSetBindingsER9TransformPKN7mecanim9animation14AvatarConstantEPKNS0_21AvatarBindingConstantEbRNS6_6memory9AllocatorER8Animator
zSj:__ZN6il2cpp2vm5Image13ClassFromNameEPK11Il2CppImagePKcS6_
cek:dynCall_vdddddd
Dla:__ZN24GenerateTypeTreeTransfer21TransferSTLStyleArrayINSt3__26vectorIN9ShaderLab14SerializedPassENS1_9allocatorIS4_EEEEEEvRT_17TransferMetaFlags
tba:__ZL32MarkLevelGameManagerDependenciesR27GarbageCollectorThreadState
Bta:__ZNK13GfxDeviceGLES26HasActiveRandomWriteTargetEv
RMj:__GLOBAL__sub_I_Thread_cpp
dwc:_gray_rgb_convert
T7h:__ZL54_MemberInfo_t3922476713_CustomAttributesCacheGeneratorP21CustomAttributesCache
Zik:_glGetActiveUniformsiv__wrapper
Joc:__Z43Register_UnityEngine_Material_EnableKeywordv
n3b:__Z17BuildSmoothCornerILb0EEvjRPhRKN4math8float4x4EPK15LineBuilderDataRKfSA_RK11ColorRGBA32
R_:__ZN13MonoBehaviour19SetupScriptingCacheE17ScriptingClassPtrP10MonoScript
zs:__Z20AnimationEventToMonoRK14AnimationEventR18MonoAnimationEvent
hkh:__Z106RuntimeInvoker_Void_t1185182177_Single_t1397266774_Single_t1397266774_Single_t1397266774_Int32_t2950945753PFvvEPK10MethodInfoPvPS4_
e_:__ZN17PersistentManager29ReadAndActivateObjectThreadedEiRK26SerializedObjectIdentifierP14SerializedFilebb
ssd:_PointerEventData_get_dragging_m746831934
BHh:_ReadOnlyCollection_1_System_Collections_IEnumerable_GetEnumerator_m2781605075_gshared
Wea:__ZZN15DirectorManager15InitializeClassEvEN52PreLateUpdateDirectorUpdateAnimationBeginRegistrator7ForwardEv
p7f:_Array_get_swapper_TisCustomAttributeNamedArgument_t287865710_m4254011335_gshared
QBd:_Graphic_RegisterDirtyMaterialCallback_m106898453
F4i:_GUILayoutEntry_get_margin_m3174861737
bSj:__ZNK15dense_hashtableINSt3__24pairIK10KeyWrapperINS1_IPKcS4_EEEiEES6_24NamespaceAndNamePairHashN14dense_hash_mapIS6_iS9_NS6_14EqualsComparerI26NamespaceAndNamePairEqualsEENS0_9allocatorIS8_EEE9SelectKeyESD_SF_E13find_positionERS7_
Vka:__ZNSt3__26vectorIN9ShaderLab14SerializedPassENS_9allocatorIS2_EEE8__appendEj
eka:__ZNSt3__26vectorIN9ShaderLab20SerializedSubProgram13BufferBindingENS_9allocatorIS3_EEEC2INS_11__wrap_iterIPS3_EEEET_SB_RKS5_PNS_9enable_ifIXaasr21__is_forward_iteratorISB_EE5valuesr16is_constructibleIS3_NS_15iterator_traitsISB_E9referenceEEE5valueEvE4typeE
VBg:_Encoding_get_ISOLatin1_m2107621369
qMc:__ZNK16PhysicsManager2D21GetAutoSyncTransformsEv
Pxe:_BigInteger_op_Inequality_m2697143438
SKc:__ZN12b2WheelJoint24SolveVelocityConstraintsERK12b2SolverData
I4a:__ZN9Texture2D23VirtualRedirectTransferER18StreamedBinaryReadILb0EE
XSc:__ZN10Collider2D8TransferI24GenerateTypeTreeTransferEEvRT_
$Vf:_DateTime_System_IConvertible_ToDouble_m2116720007_AdjustorThunk
Q9d:_BitArrayEnumerator__ctor_m2359341397
n$g:_Enumerator_MoveNext_m1177880931_gshared
hyi:__ZL73g_UnityEngine_TextRenderingModule_Assembly_CustomAttributesCacheGeneratorP21CustomAttributesCache
n0:__ZN16ScriptingManager27NativeTypeForScriptingClassE17ScriptingClassPtr
TLg:_UInt64_System_IConvertible_ToDateTime_m3434604642
QIg:_Type_get_IsSerializable_m1040556850
O$c:_get_sfnt_table
SXb:__ZL22ScheduleSceneNodesJobsP25ScheduleSceneNodesJobDataj
Vk:_emscripten_set_canvas_size
UAd:_Graphic_SetVerticesDirty_m2124914069
F4f:_CultureInfo__ctor_m3285927757
Xkf:_MaskableGraphic_get_rootCanvasRect_m3492154629
_Oi:_Array_Resize_TisRaycastResult_t3360306849_m1811054291_gshared
zka:__ZNSt3__26vectorIN9ShaderLab20SerializedSubProgramENS_9allocatorIS2_EEE8__appendEj
UW:__ZN20DynamicHeapAllocatorI17LowLevelAllocatorE8AllocateEji
Vfd:__ZN11UnityEngine9Analytics15UserCustomEvent12ToJsonStringER9JSONWrite
b6i:_Locale_GetText_m2427493201
MQb:__ZN20DynamicPropertySheet15SetVectorQueuedERKN9ShaderLab16FastPropertyNameERK8Vector4fN19ShaderPropertySheet8SetFlagsE
SA:__ZN7mecanim9animation22EvaluateAvatarRetargetEPKNS0_14AvatarConstantEPKNS0_11AvatarInputEPNS0_12AvatarOutputEPNS0_12AvatarMemoryEPNS0_15AvatarWorkspaceEb
TYa:__ZN14RenderSettings23VirtualRedirectTransferER19StreamedBinaryWriteILb0EE
pDc:__ZL26Transfer_SimpleNativeClassI9JSONWrite10RectOffsetLb0EEvRK29SerializationCommandArgumentsR31RuntimeSerializationCommandInfo
d2j:_GC_push_conditional
ggd:__ZN21UnityAnalyticsManager23VirtualRedirectTransferER24GenerateTypeTreeTransfer
Exa:__ZN17GenericDynamicVBO10AllocateVBEjR21DynamicVBOChunkHandle
yZf:_DBNull_ToString_m3638608738
ETj:__ZN30dense_hashtable_const_iteratorI10KeyWrapperIP18Il2CppGenericClassES3_N6il2cpp8metadata22Il2CppGenericClassHashEN14dense_hash_setIS3_S6_NS3_14EqualsComparerINS5_25Il2CppGenericClassCompareEEENSt3__29allocatorIS3_EEE8IdentityESA_SD_EppEv
N9d:_BitArray_Clone_m3537018332
aSe:_ObjectRecord_UnchainFixup_m3191243952
_Ui:_TlsStream_get_CanWrite_m16389328
tl:_glMapBufferRange
A4a:__ZN9Texture2D8TransferI18StreamedBinaryReadILb0EEEEvRT_
_mc:__Z31Input_CUSTOM_GetMouseButtonDowni
Fdc:__ZN13PlayableGraph4PlayEv
_cc:__Z29AddCanvasIntermediateRendererPN2UI6CanvasEPNS_13CanvasBuffersEP17VertexDeclarationjRK10Matrix4x4ftRK4AABB4PPtrI8MaterialEi17ShadowCastingModebP6Camerab
_Ob:__ZNK9Transform16GetLocalPositionEv
dYd:_MonoType_get_BaseType_m1098640416
qMa:__ZN13LoadOperation19IntegrateTimeSlicedEi
rVi:_TlsStream_Read_m3392972801
Mta:__ZN13GfxDeviceGLES22DispatchComputeProgramE12ObjectHandleI18ComputeProgram_TagPvE15ComputeBufferIDj
CCg:_Latin1Encoding_GetString_m254210343
Kjb:__Z17TransformAABBSlowRK4AABBRK10Matrix4x4fRS_
q2d:_Array_combsort_m4052486289
a8a:__ZN15SerializeTraitsI13dynamic_arrayI12SpriteVertexLj4EEE19ResizeSTLStyleArrayERS2_i
Wia:__ZN9ShaderLab21SerializedShaderState8TransferI14SafeBinaryReadEEvRT_
V2f:_Environment_GetWindowsFolderPath_m1738399646
$Xc:_cf2_stack_pushInt
KA:__ZN8Animator19FireAnimationEventsERNS_11AnimatorJobE
ere:_Module_GetCustomAttributes_m76573271
FGd:_CryptoConfig_EncodeOID_m2635914623
Pog:_LineRenderer_set_startWidth_m1093267133
Fla:__ZN15SerializeTraitsINSt3__24pairIN4core12basic_stringIcNS2_20StringStorageDefaultIcEEEES6_EEE8TransferI24GenerateTypeTreeTransferEEvRS7_RT_
hlk:b89
alk:b88
Jkk:b81
Ikk:b80
iGa:__ZN7ApiGLES19CreateSparseTextureEjj14GraphicsFormatiiiiRiS1_S1_
X0:__ZN18ResourceImageGroup7CleanupEv
Tkk:b85
Mkk:b84
$kk:b87
Ukk:b86
mPe:_RemotingSurrogateSelector_GetSurrogate_m3900875713
tRf:_Single_IsNaN_m4024467661
dBe:_CertificateValidationCallback_Invoke_m1014111289
RZa:__ZN8Playable19SetOutputConnectionEPS_i
vrj:__ZN15dense_hashtableINSt3__24pairIK10KeyWrapperIPK11Il2CppClassEPKcEES6_N6il2cpp5utils11PointerHashIS3_EEN14dense_hash_mapIS6_S9_SE_NS6_14EqualsComparerINS0_8equal_toIS5_EEEENS0_9allocatorISA_EEE9SelectKeyESJ_SL_EC2ERKSO_j
gm:_glDeleteShader
HBa:__ZN6prcoreL17RemapGenericFloatI15TexFormatRGHalf16TexFormatRGFloatEEvPKNS_9InnerInfoE
UPi:_Array_Sort_TisUICharInfo_t75501106_m128665067_gshared
s_c:_otv_GSUB_validate
KLf:_RSAPKCS1SignatureDeformatter_SetHashAlgorithm_m1602190713
X1f:_Enum_System_IConvertible_ToByte_m1219166845
vOg:_Dictionary_2_CopyToCheck_m45332585_gshared
Hic:__Z27scripting_add_internal_callPKcPKv
HIj:__ZN13Il2CppHashMapINSt3__24pairIPK9EventInfoP11Il2CppClassEEj17ReflectionMapHashIS7_ENS0_8equal_toIS7_EENS0_9allocatorINS1_IK10KeyWrapperIS7_EjEEEEEC2EjRKS9_RKSB_
uUj:__GLOBAL__sub_I_GarbageCollector_cpp
K7e:_Enumerator_MoveNext_m1556953412_AdjustorThunk
Gt:__ZN26AnimatorControllerPlayable18SetLayerAutoWeightEv
ofd:__Z44Register_UnityEngine_Canvas_get_pixelPerfectv
gkh:__Z70RuntimeInvoker_Single_t1397266774_Int32_t2950945753_Single_t1397266774PFvvEPK10MethodInfoPvPS4_
rKc:__ZN15b2FrictionJoint4DumpEv
Acd:__ZN2UI14CanvasRenderer12SyncMaterialENS0_8SyncFlagE
tUd:_StreamWriter_Write_m1660535366
a6j:__ZN6il2cpp2vm9Parameter30GetDefaultParameterValueObjectEPK10MethodInfoPK13ParameterInfoPb
vEg:_UTF8Encoding_GetByteCount_m4152118078
Kxf:_KeyPairPersistence__CanSecure_m3516574278
c9g:__Z95RuntimeInvoker_Void_t1185182177_RuntimeObject_RuntimeObject_Int32_t2950945753_SByte_t1669577662PFvvEPK10MethodInfoPvPS4_
dJd:_MD5CryptoServiceProvider_Dispose_m3502499818
Avh:_Collection_1_System_Collections_IList_get_Item_m2422562729_gshared
B0c:_UNITY_tt_face_done_kern
sbb:__ZN12BoneWeights48TransferI24GenerateTypeTreeTransferEEvRT_
yIb:__Z19scripting_gc_enablev
l1e:_InternalEnumerator_1_get_Current_m2907722321_gshared
AMb:__ZZ23InitPlayerLoopCallbacksvEN41InitializationPlayerUpdateTimeRegistrator7ForwardEv
ric:__ZN11UTF16StringC2ERKS_10MemLabelId
w2e:_InternalEnumerator_1_get_Current_m3792939945_AdjustorThunk
ped:__Z55Register_UnityEngine_CanvasRenderer_DisableRectClippingv
ovc:_start_pass_huff_decoder
Tab:__ZN14SafeBinaryRead21TransferSTLStyleArrayI13dynamic_arrayI11ColorRGBA32Lj4EEEEvRT_17TransferMetaFlags
Cwb:__ZL26Transfer_SimpleNativeClassI24GenerateTypeTreeTransfer8GradientLb0EEvRK29SerializationCommandArgumentsR31RuntimeSerializationCommandInfo
SXe:_InternalEnumerator_1_System_Collections_IEnumerator_get_Current_m888718134_gshared
Y4g:__Z175RuntimeInvoker_Void_t1185182177_SByte_t1669577662_SByte_t1669577662_SByte_t1669577662_SByte_t1669577662_SByte_t1669577662_SByte_t1669577662_SByte_t1669577662_SByte_t1669577662PFvvEPK10MethodInfoPvPS4_
Jrg:_Object_Destroy_m3118546832
RWf:_DateTime_FromTicks_m4059645178_AdjustorThunk
gSi:_Array_InternalArray__get_Item_TisClientCertificateType_t1004704908_m2297379651_gshared
NKe:_ConfigHandler_ParseTime_m1787834288
Fna:__ZN9ShaderLab7Program27CreateFromSerializedProgramERKNS_17SerializedProgramE10ShaderTypeiP16PropertyNamesSetPK6Shader
mie:_Assembly_Load_m3487507613
iYa:__ZNSt3__27__sort4IRNS_6__lessIN4core12basic_stringIcNS2_20StringStorageDefaultIcEEEES6_EEPS6_EEjT0_SA_SA_SA_T_
Kek:dynCall_viiiifii
jHj:__ZN6il2cpp2gc19AppendOnlyGCHashMapINSt3__24pairIPK11Il2CppImageP11Il2CppClassEEP22Il2CppReflectionModule17ReflectionMapHashIS9_ENS2_8equal_toIS9_EEEC2Ev
uZ:__Z20GetPersistentManagerv
R3c:_UNITY_TT_Set_Var_Design
j9:__ZN21SystemInfoStringCache16StaticInitializeEPv
aBf:_NameObjectCollectionBase_FindFirstMatchedItem_m840305173
QBh:_ReadOnlyCollection_1_System_Collections_Generic_ICollectionU3CTU3E_Remove_m1100818788_gshared
_ja:__ZNSt3__26vectorIN9ShaderLab20SerializedSubProgram15StructParameterENS_9allocatorIS3_EEE6assignIPS3_EENS_9enable_ifIXaasr21__is_forward_iteratorIT_EE5valuesr16is_constructibleIS3_NS_15iterator_traitsISA_E9referenceEEE5valueEvE4typeESA_SA_
rAh:_Collection_1_IsSynchronized_m2291009199_gshared
NFb:__ZNK13MonoBehaviour7GetNameEv
Nkb:__ZN19ScriptingInvocation28AdjustArgumentsToMatchMethodEv
Vbj:_IndexedSet_1_Contains_m1525966688_gshared
UG:__Z15_CheckFMODError11FMOD_RESULTPKciS1_
JNj:__ZN6il2cpp6icalls8mscorlib6SystemL16ThrowInvalidCastEPK11Il2CppClassS5_
TWa:__Z20RenderMultipleMeshesRK15RenderNodeQueueRK18RenderMultipleData17ShaderChannelMask
Qld:__ZN11UnityEngine15PlatformWrapper20GetPlayerPrefsStringERKN4core12basic_stringIcNS1_20StringStorageDefaultIcEEEES5_
Tkf:_MaskableGraphic_get_maskable_m1260382606
YBg:_Latin1Encoding__ctor_m498920120
ZBj:__ZN6il2cpp2vm4Type19GetGenericParameterEPK10Il2CppType
TTd:_StreamReader_Peek_m2272511193
LXf:_DateTimeFormatInfo_FillAllDateTimePatterns_m2683124783
Rdd:__Z51Register_UnityEngine_CanvasGroup_get_blocksRaycastsv
YYd:_NumberFormatter_get_IsFloatingSource_m3714711779
yJg:_Type_GetConstructor_m1195697116
Cd:_glBeginQuery
iai:__ZL104RegionInfo_t1090270226_CustomAttributesCacheGenerator_RegionInfo_t1090270226____DisplayName_PropertyInfoP21CustomAttributesCache
Jwc:_jpeg_alloc_huff_table
YTc:__ZN10Effector2D25CheckEffectorColliderMaskEP10Collider2DS1_
$Nb:__ZN6Camera12RenderStereoENS_10RenderFlagE8CullFlagPNS_24PerformEyeRenderFunctionE
Qnb:__ZN20LocalFileSystemPosix10ToAbsoluteEPKc
IWa:__ZN20TierGraphicsSettings8TransferI19StreamedBinaryWriteILb0EEEEvRT_
pok:b111
Q8:__GLOBAL__sub_I_runtime_input_0_cpp
d$j:__ZN6il2cpp2vm13ComObjectBase16DisconnectObjectEj
Nm:f0
Xtc:_UNITY_png_do_expand
aak:_getcwd
hNc:__ZN16b2CapsuleContact6CreateEP9b2FixtureiS1_iP16b2BlockAllocator
CLa:__ZN25ThreadsafeLinearAllocatorD2Ev
bic:__ZL50GetAndClearChangedTransformsForMultilpleSystemsJobP45GetChangedTransformsForMultipleSystemsJobDatajPK23TransformAccessReadOnlyPKyj
$ib:__Z21SendMessageToEveryoneRK17MessageIdentifier11MessageData
Cda:__ZN21BillboardBatchManager16StaticInitializeEPv
IVf:_DateTime_AbsoluteDays_m4235097773
waa:__ZN12_GLOBAL__N_138ArchiveRedirectFileSystemStaticDestroyEPv
i0g:__Z74RuntimeInvoker_RuntimeObject_RuntimeObject_RuntimeObject_SByte_t1669577662PFvvEPK10MethodInfoPvPS4_
Nyd:_DefaultControls_CreateScrollView_m3842770629
P2a:__ZN12CubemapArray34UpdateFileTextureUploadInstructionEP26FileAssetUploadInstructionj
hGa:__Z23CreateSparseTextureGLES9TextureIDii14GraphicsFormati
__c:_otv_Anchor_validate
T6f:_Guid_CompareTo_m243656946_AdjustorThunk
E3f:_CCMath_mod_m3631663509
_Hg:_TimeSpan_Negate_m1889505500_AdjustorThunk
oFh:_ReadOnlyCollection_1_System_Collections_ICollection_CopyTo_m2715087453_gshared
y7c:__ZNSt3__23mapIN20TextRenderingPrivate7FontRefEP11FT_FaceRec_NS_4lessIS2_EENS_9allocatorINS_4pairIKS2_S4_EEEEEixERS9_
WNa:__ZN17ArchiveFileSystem10AddStorageEP20ArchiveStorageReader
SJc:__ZNK12b2MotorJoint16GetReactionForceEf
cKj:_il2cpp_class_get_assemblyname
wvc:_decode_mcu_DC_refine
Fpj:__ZN6il2cpp2vm5Class15GetEnumBaseTypeEP11Il2CppClass
eEe:_Context_set_WriteSequenceNumber_m942577065
fe:_glVertexAttrib4fv
_Gf:_X509CertificateEnumerator_Reset_m4026698923
w$j:__ZNK6il2cpp5utils13VmStringUtils23CaseInsensitiveComparerclERKNSt3__212basic_stringIcNS3_11char_traitsIcEENS3_9allocatorIcEEEEPKc
Vvd:_CanvasScaler_SetScaleFactor_m3006968999
Wrh:__Z78RuntimeInvoker_Boolean_t97287965_Navigation_t3049316579_Navigation_t3049316579PFvvEPK10MethodInfoPvPS4_
R3a:__ZNK9Texture2D16GetNpotTexelSizeEv
UYd:_NumberFormatter_Init_m3576155222
sNa:__ZL33FileEntryInfoListToFolderContentsRKN4core12basic_stringIcNS_20StringStorageDefaultIcEEEERK19dynamic_block_arrayI13FileEntryInfoLj32EERNSt3__23setIS3_NSB_4lessIS3_EENSB_9allocatorIS3_EEEE
o8d:_ArrayListWrapper_IndexOf_m3692065720
Tqa:__ZN9GfxDevice22GetDefaultVertexBufferE26GfxDefaultVertexBufferTypej
V7f:_Array_InternalArray__ICollection_Contains_TisInt64_t3736567304_m2911357929_gshared
Ovh:_Collection_1_Remove_m3022471627_gshared
tak:___fseeko_unlocked
hhe:_Object_ToString_m1740002499
kak:_sscanf
trd:_ExecuteEvents_GetEventChain_m2404658789
xJb:__Z17BeginSplashScreenv
cPi:_Array_Resize_TisUILineInfo_t4195266810_m3763058392_gshared
$Fd:_SByte_ToString_m3584531119_AdjustorThunk
wma:__ZN9ShaderLab16SerializedShader8TransferI19StreamedBinaryWriteILb0EEEEvRT_
nD:__ZN7mecanim9animation18CreateAvatarMemoryEPKNS0_14AvatarConstantERNS_6memory9AllocatorE
nxe:_ModulusRing__ctor_m2420310199
zee:_Convert_ToDateTime_m626620011
d8e:_Enumerator_System_Collections_IDictionaryEnumerator_get_Key_m2500634048_AdjustorThunk
$B:__ZN7mecanim8skeleton16SkeletonPoseCopyIN4math4trsXENS2_7affineXEEEvPKNS0_13SkeletonPoseTIT_EEPNS5_IT0_EE
mxa:__ZN18GfxFramebufferGLES18GetFramebufferNameERK20GfxRenderTargetSetup
x2j:_GC_print_block_list
mBj:__ZN6il2cpp2vm14TypeNameParser12ParseVersionERKNSt3__212basic_stringIcNS2_11char_traitsIcEENS2_9allocatorIcEEEERtSB_SB_SB_
hdk:_saveSetjmp
uhf:_InputField_MoveDown_m1455948167
Dzc:__Z30Event_Get_Custom_PropCharacterP12Il2CppObject
pfa:__ZN13PlayableGraph27SchedulePlayableDestructionERK9HPlayable
j_c:_cff_get_mm_var
$hk:_glGetFramebufferAttachmentParameteriv__wrapper
zJe:_ChannelServices_GetCurrentChannelInfo_m3041604116
jmd:__Z13RegisterClassI20UnityConnectSettingsEvv
Mrb:__Z22scripting_array_length17ScriptingArrayPtr
HUd:_SynchronizedReader_Peek_m148942882
S3g:__Z95RuntimeInvoker_Void_t1185182177_RuntimeObject_Int32_t2950945753_Int32_t2950945753_RuntimeObjectPFvvEPK10MethodInfoPvPS4_
a3a:__ZN14SafeBinaryRead20TransferTypelessDataEjPvi
gdb:__ZN14SpriteRenderer18UpdateCachedSpriteEb
LN:__ZN13dynamic_arrayI12SoundChannelLj4EE9push_backERKS0_
L5:__Z19GetActiveColorSpacev
b0c:_UNITY_tt_face_load_kern
Are:_MonoMethodInfo_GetDeclaringType_m2924452727
KKb:__ZN13sorted_vectorINSt3__24pairIiN17InstancingBatcher12PropertyTypeEEEN10vector_mapIiS3_NS0_4lessIiEE13stl_allocatorIS4_L18MemLabelIdentifier1ELi16EEE13value_compareESA_E21sort_clear_duplicatesEv
wdd:__ZZN2UI14CanvasRenderer15InitializeClassEvEN38FunctorImpl_909kCanvasHierarchyChanged4CallEPviR11MessageData
k0:__Z6StrCmpPKcS0_
nMd:_NumberFormatter_AppendIntegerString_m2257376141
Noa:__Z21CheckGpuProgramUsable20ShaderGpuProgramType
M8b:__ZN13ProduceHelperI14Texture2DArrayLb0EE7ProduceE10MemLabelId18ObjectCreationMode
TXj:__ZN6il2cpp2os9Directory20GetFileSystemEntriesERKNSt3__212basic_stringIcNS2_11char_traitsIcEENS2_9allocatorIcEEEESA_iiPi
a1d:_Array_System_Collections_IList_Add_m1063688101
sIi:__ZL66Navigation_t3049316579_CustomAttributesCacheGenerator_m_SelectOnUpP21CustomAttributesCache
I6c:__ZN20TextRenderingPrivate19NativeTextGenerator5SetupEv
fVb:__ZNK15SharedLightData24GetFinalShadowResolutionEv
vgb:__ZN12AspectRatios8TransferI18StreamedBinaryReadILb0EEEEvRT_
Rcc:__ZN10GameObject14CopyPropertiesERS_
rAc:__Z44Register_UnityEngine_GUIStyle_get_fixedWidthv
T8f:_Array_InternalArray__ICollection_Remove_TisLink_t544317964_m1280781374_gshared
o3d:_BitConverter_DoubleWordsAreSwapped_m1474345095
Ghh:__Z114RuntimeInvoker_Int32_t2950945753_Vector2_t2156229523_Vector2_t2156229523_ContactFilter2D_t3805203441_RuntimeObjectPFvvEPK10MethodInfoPvPS4_
s7a:__ZNK13ScreenManager12IsFullScreenEv
H8d:_FixedSizeArrayListWrapper_set_Capacity_m4221053039
Oak:_rand
Dik:_emscripten_glFramebufferRenderbuffer__wrapper
mgc:__ZN13MeshScripting10CreateMeshE21ScriptingObjectOfTypeI4MeshE
Isb:__ZN14SafeBinaryRead21TransferSTLStyleArrayINSt3__26vectorI17AnimationCurveTplIfE13stl_allocatorIS4_L18MemLabelIdentifier1ELi16EEEEEEvRT_17TransferMetaFlags
k9d:_SynchronizedArrayListWrapper_Contains_m3809499313
e9f:_Array_InternalArray__ICollection_Remove_TisLabelData_t360167391_m3556246844_gshared
DId:_HMACSHA256__ctor_m346174875
mkg:_Color_op_Multiply_m2887457390
BXb:__Z22PrepareOptimizedPlanesPK5PlaneiPKN4math7_float4E
IV:__ZN11UnityEngine15CloudWebService17WebFileDownloaderINS0_20WebRequestRestClientENS0_23WebRequestRestHeaderMapEE10InitializeERKN4core12basic_stringIcNS5_20StringStorageDefaultIcEEEE
Ada:__ZN17UniqueIDGenerator15CreatePureIndexEv
Wr:__ZN11UnityEngine9Animation28GenericAnimationBindingCache15DidReloadDomainEv
lhb:__ZNSt3__26vectorIN15ResourceManager10DependencyE13stl_allocatorIS2_L18MemLabelIdentifier52ELi16EEE6assignINS_11__wrap_iterIPS2_EEEENS_9enable_ifIXaasr21__is_forward_iteratorIT_EE5valuesr16is_constructibleIS2_NS_15iterator_traitsISC_E9referenceEEE5valueEvE4typeESC_SC_
Uoj:__ZN15dense_hashtableINSt3__24pairIK10KeyWrapperIPK22Il2CppGenericParameterEP11Il2CppClassEES6_N6il2cpp5utils11PointerHashIS4_EEN14dense_hash_mapIS6_S9_SE_NS6_14EqualsComparerINS0_8equal_toIS5_EEEENS0_9allocatorISA_EEE9SelectKeyESJ_SL_E14squash_deletedEv
W$a:__ZN9ShaderLabL27GetDesiredRenderTextureDescEPK6Camera
Y0e:_InternalEnumerator_1_get_Current_m1523142935_AdjustorThunk
HLc:__ZNK12b2MouseJoint17GetReactionTorqueEf
Rgg:_Array_InternalArray__Insert_TisMark_t3471605523_m2854535880_gshared
Yza:__ZN6prcoreL29inner_stretch_rgb565_bilinearEPKNS_9InnerInfoE
Nxc:__Z14GUIClipTextureP9Texture2DPhiiii
VOe:_MethodReturnDictionary__cctor_m278392388
cZ:__ZNK9Transform18TransformDirectionERK8Vector3f
wIe:_SslStreamBase_get_CanWrite_m1622082918
fKi:__ZL80CanvasScaler_t2767979955_CustomAttributesCacheGenerator_m_ReferencePixelsPerUnitP21CustomAttributesCache
L_c:_otv_MarkLigPos_validate
svf:_PrimalityTests_RabinMillerTest_m1471415870
R_g:_Enumerator_MoveNext_m2114485647_gshared
D3b:__Z49InitializeLineParametersAnimationBindingInterfacev
nvj:__ZN15dense_hashtableINSt3__24pairIK10KeyWrapperIPK11Il2CppClassEPKcEES6_N6il2cpp5utils11PointerHashIS3_EEN14dense_hash_mapIS6_S9_SE_NS6_14EqualsComparerINS0_8equal_toIS5_EEEENS0_9allocatorISA_EEE9SelectKeyESJ_SL_E12resize_deltaEjj
yck:__ZNK10__cxxabiv120__si_class_type_info27has_unambiguous_public_baseEPNS_19__dynamic_cast_infoEPvi
sxe:_Kernel_LeftShift_m4140742987
$he:_Assembly_GetManifestResourceInternal_m1224391897
Ixa:__Z30AddDefaultStreamsToMeshBuffersR9GfxDeviceR11MeshBuffersj17ShaderChannelMaskS3_
faa:__ZL16GetInterfaceImpl18UnityInterfaceGUID
Ypj:__ZN6il2cpp2vmL17SetupFieldOffsetsENS0_15FieldLayoutKindEP11Il2CppClassjRKNSt3__26vectorIjNS4_9allocatorIjEEEE
U_j:__ZN6il2cpp6icalls8mscorlib6System15MonoCustomAttrs27GetCustomAttributesInternalEP12Il2CppObjectP20Il2CppReflectionTypeb
cc:invoke_viifi
m4c:_UNITY_TT_Set_MM_Blend
R8:__GLOBAL__sub_I_runtime_math_random_0_cpp
KJb:__ZN14PreloadManager35WaitForAllAsyncOperationsToCompleteEv
BI:__ZL31InitializeAudioScriptingClassesv
$ri:__ZL89LineRenderer_t3154350270_CustomAttributesCacheGenerator_LineRenderer_SetWidth_m4045074374P21CustomAttributesCache
VOb:__Z14SortGUIByDepthP10GUIElementS0_
MC:__ZN12_GLOBAL__N_120ProcessRootMotionMixER33AnimationPlayableEvaluationOutputR35AnimationPlayableEvaluationConstantR32AnimationPlayableEvaluationInputS1_f
c3i:_UriParser__cctor_m3655686731
_og:_LineRenderer_SetPosition_Injected_m293725056
Yjf:_LayoutRebuilder_U3Cs_RebuildersU3Em__0_m589488547
qob:__ZNK20LocalFileSystemPosix21GetAvailableDiskSpaceEPKcRy
p9:__ZNSt3__26__treeIiNS_4lessIiEENS_9allocatorIiEEE7destroyEPNS_11__tree_nodeIiPvEE
mqa:__ZNK9GfxDevice14GetWorldMatrixEv
JGc:__ZN8JSONRead8TransferI8Vector2fEEvRT_PKc17TransferMetaFlagsb
Ryg:_Transform_set_parent_m786917804
Fqf:_Slider_get_value_m739683640
Gmb:__Z19scripting_array_new17ScriptingClassPtrjj
zN:__ZN11SoundHandle13CreateChannelEb
r5a:__ZN14SafeBinaryRead21TransferSTLStyleArrayI13dynamic_arrayI12LightmapDataLj4EEEEvRT_17TransferMetaFlags
Hka:__ZNSt3__26vectorIN9ShaderLab20SerializedSubProgram16TextureParameterENS_9allocatorIS3_EEE6assignIPS3_EENS_9enable_ifIXaasr21__is_forward_iteratorIT_EE5valuesr16is_constructibleIS3_NS_15iterator_traitsISA_E9referenceEEE5valueEvE4typeESA_SA_
Qtj:__ZN13Il2CppHashMapIN6il2cpp5utils13dynamic_arrayIPK10Il2CppTypeLj4EEEPFvvENS0_8metadata19Il2CppSignatureHashENS9_22Il2CppSignatureCompareENSt3__29allocatorINSC_4pairIK10KeyWrapperIS6_ES8_EEEEEC2EjRKSA_RKSB_
RHj:__ZN15dense_hashtableINSt3__24pairIK10KeyWrapperIPK22Il2CppGenericParameterEPK24MonoGenericParameterInfoEES6_N6il2cpp5utils11PointerHashIS4_EEN14dense_hash_mapIS6_SA_SF_NS6_14EqualsComparerINS0_8equal_toIS5_EEEENS0_9allocatorISB_EEE9SelectKeyESK_SM_E15set_deleted_keyERKSB_
ZFd:_SByte_TryParse_m2431806379
i4b:__ZN6prcoreL11inner_clearILj2EEEvPhjjj
BHd:_DSACryptoServiceProvider_get_KeySize_m786836990
TKc:__ZN12b2WheelJoint24SolvePositionConstraintsERK12b2SolverData
Sg:_emscripten_exit_fullscreen
iOi:_Array_qsort_TisBoolean_t97287965_TisBoolean_t97287965_m214793583_gshared
ZZg:_Enumerator_System_Collections_IEnumerator_Reset_m1564381721_gshared
ghe:_Object_MemberwiseClone_m1474068832
OWj:__ZN6il2cpp6icalls8mscorlib6System6String19InternalAllocateStrEi
QHc:__Z29Transfer_Blittable_ArrayFieldI8JSONRead11QuaternionfEvRT_R9ArrayInfoRK23StaticTransferFieldInfo
jlc:__Z45Register_UnityEngine_Camera_get_targetDisplayv
abc:__ZNK24RendererAnimationBinding15GenerateBindingERKN4core12basic_stringIcNS0_20StringStorageDefaultIcEEEEbRN11UnityEngine9Animation14GenericBindingE
NCf:_IPv6Address__ctor_m3704187391
oPb:__Z15GetFlareManagerv
cA:__ZN8Animator13GetAvatarRootEv
zeg:_Array_InternalArray__ICollection_Add_TisResourceCacheItem_t51292791_m3851804827_gshared
N8j:___toread
RHb:__ZNSt3__26vectorI10vector_mapIiiNS_4lessIiEE13stl_allocatorINS_4pairIiiEEL18MemLabelIdentifier38ELi16EEES4_IS9_LS7_38ELi16EEE26__swap_out_circular_bufferERNS_14__split_bufferIS9_RSA_EE
Qwe:_BigInteger_get_Rng_m3283260184
$ck:___cxa_is_pointer_type
lF:__ZN8Animator22ScriptingStringToCRC32ERK11ICallString
OC:__ZN7mecanim9animation16EvaluateAvatarDXEPKNS0_14AvatarConstantEPKNS0_11AvatarInputEPNS0_12AvatarMemoryEPNS0_15AvatarWorkspaceEPNS0_12AvatarOutputE
ptd:_RaycastResult_ToString_m2678663776_AdjustorThunk
qSi:_Array_InternalArray__get_Item_TisKeyValuePair_2_t2530217319_m2886833132_gshared
_of:_ScrollRect_OnEndDrag_m3202230060
aqc:__Z34Transform_CUSTOM_SetAsFirstSiblingP12Il2CppObject
jhf:_InputField_Delete_m3471899192
MJe:_RemotingConfiguration_get_ProcessId_m2180277012
W3:__ZN17PersistentManager40GlobalToLocalSerializedFileIndexInternalERK26SerializedObjectIdentifier
BS:__ZN11UnityEngine15CloudWebService17SessionEventQueue14ParseEventDataERKN4core12basic_stringIcNS2_20StringStorageDefaultIcEEEE
Mva:__ZN13TranslateGLES4InitERK12GraphicsCaps16GfxDeviceLevelGL
ZNd:_Int64_System_IConvertible_ToUInt16_m848637338_AdjustorThunk
Wgd:__Z32CustomEventData_CUSTOM_AddUInt32P12Il2CppObjectP12Il2CppStringj
b6j:__ZN6il2cpp5utils9Exception26FormatInvalidCastExceptionEPK11Il2CppClassS4_
Qcg:_Array_InternalArray__IndexOf_TisLink_t544317964_m455584088_gshared
r1h:_Enumerator_get_Current_m2282646120_AdjustorThunk
cFh:_ReadOnlyCollection_1_IndexOf_m2539022912_gshared
gJi:__ZL66Selectable_t3250028441_CustomAttributesCacheGenerator_m_TransitionP21CustomAttributesCache
G6j:__ZN6il2cpp2os6Memory12AlignedAllocEjj
Lrf:_Text_set_alignByGeometry_m3828822280
q0j:__ZN6il2cpp8metadataL7CompareEPK10Il2CppTypeS3_
_zf:_HybridDictionary__ctor_m1681134385
G2:__ZN21ScalableBufferManager11GetInstanceEv
dDb:__Z18Transfer_BlittableI18StreamedBinaryReadILb0EELb1E10ColorRGBAfEvRK29SerializationCommandArgumentsR31RuntimeSerializationCommandInfo
iIg:_TimeSpan_op_LessThan_m1594498345
Nic:__ZL27GetComponentsImplementationILb0ELi0EEbR10GameObjectbRK17CompareParametersRK39GetComponentsImplementation_ReturnValue
zGb:__ZN9Scripting36IsSystemCollectionsGenericDictionaryE17ScriptingClassPtr
COh:_UnityEvent_1_FindMethod_Impl_m322741469_gshared
dzg:_Enumerator_get_Current_m2591725252
z1:__ZL16ReadTypeTreeImplILb0EEbR8TypeTreeRK16TypeTreeIteratorRPKhS6_i
dKf:_Interval_Contains_m110351300_AdjustorThunk
rfe:_Convert_ToInt32_m3048308591
NYf:_DateTimeOffset_Equals_m3030958070
iZa:__ZNK22BuiltinResourceManager21GetResourceInstanceIDEPKN5Unity4TypeERKN4core12basic_stringIcNS4_20StringStorageDefaultIcEEEE
Psa:__ZN9GfxDevice15BeginFrameStatsEv
Tmc:__Z42Register_UnityEngine_RectOffset_set_bottomv
$7i:_AnalyticsTracker_BuildParameters_m43920649
xWf:_DateTimeFormatInfo_GetMonthName_m2034512315
_Qb:__ZN28LightProbeProxyVolumeContext8CopyFromERKS_
MFh:_ReadOnlyCollection_1_System_Collections_Generic_IListU3CTU3E_Insert_m2489506856_gshared
k7:__ZN23TransformChangeDispatch32QueueTransformChangeIfHasChangedER18TransformHierarchy
ktf:_SimpleCollator_ToDashTypeValue_m6184468
EEa:__ZN7ApiGLES18DeleteRenderbufferERj
gDa:__ZL23ProgramUniformMatrix4fvPK7ApiGLESjiihPKv
NEa:__ZN7ApiGLES13CreateTextureEjj14GraphicsFormatiiiii
v2d:_Array_new_gap_m262136975
lka:__ZN9ShaderLab20SerializedSubProgram15MatrixParameter8TransferI14SafeBinaryReadEEvRT_
Pic:__ZL27GetComponentsImplementationILb0ELi1EEbR10GameObjectbRK17CompareParametersRK39GetComponentsImplementation_ReturnValue
gGf:_X509Store__ctor_m275383717
Rtf:_SimpleCollator_LastIndexOfOrdinalIgnoreCase_m2984667899
X2c:_Round_Down_To_Grid
zFa:__ZN13RenderTexture7ReleaseEv
nFc:__Z18Transfer_BlittableI8JSONReadLb1EN4math12int3_storageEEvRK29SerializationCommandArgumentsR31RuntimeSerializationCommandInfo
ncb:__ZN10MeshFilter23VirtualRedirectTransferER14SafeBinaryRead
z_d:_X509CertificateEnumerator_MoveNext_m2269241175
xcb:__ZN12MeshRenderer17MainThreadCleanupEv
Jpj:__ZN6il2cpp2vmL10InitLockedEP11Il2CppClassRKNS_2os12FastAutoLockE
sIa:__ZN22CreateGpuProgramOutput12CreateParamsEv
MJ:__ZN10ObjectPoolIN4FMOD7ChannelENS0_8ChannelIEE7GetFreeEi
uYe:_InternalEnumerator_1_System_Collections_IEnumerator_get_Current_m548105685_gshared
Cva:__ZNK14GfxContextGLES13GetDefaultFBOEv
N4d:_Byte_System_IConvertible_ToType_m2251112646
pjh:__Z81RuntimeInvoker_Char_t3634460470_RuntimeObject_Int32_t2950945753_Int16_t2552820387PFvvEPK10MethodInfoPvPS4_
WWf:_DateTime_get_Hour_m4153505178_AdjustorThunk
Zdj:_AudioExtensionManager_WriteExtensionProperties_m3028464154
nPf:_Evidence_Equals_m1478353107
kfc:__Z13GetImagePixelI10ColorRGBAfET_PKhii13TextureFormat15TextureWrapModeS5_ii
RWh:_List_1_System_Collections_IList_set_Item_m1842844683_gshared
adj:_ObjectPool_1__ctor_m2535233435_gshared
fNj:__ZN6il2cpp2vm6Thread49CheckCurrentThreadForInterruptAndThrowIfNecessaryEv
f5f:_CultureInfo_construct_datetime_format_m1928121315
T5:__ZNSt3__23mapIN9ShaderLab16FastPropertyNameEN18UnityPropertySheet11UnityTexEnvENS_4lessIS2_EENS_9allocatorINS_4pairIKS2_S4_EEEEEixERS9_
HDa:__ZNK13TranslateGLES25GetTextureTargetDimensionEj
jDh:_ReadOnlyCollection_1_System_Collections_IList_Remove_m1842121503_gshared
OQd:_File_OpenRead_m2936789020
spc:__Z47Texture2D_CUSTOM_INTERNAL_CALL_GetPixelBilinearP12Il2CppObjectffR10ColorRGBAf
ede:_Enumerator_get_Entry_m3561948123
Hgh:__Z94RuntimeInvoker_Void_t1185182177_RuntimeObject_PlayableGraph_t3515989261_RuntimeObject_IntPtr_tPFvvEPK10MethodInfoPvPS4_
Ui:_emscripten_glVertexAttrib4f
ioa:__ZNSt3__26vectorIN20GpuProgramParameters14ConstantBufferENS_9allocatorIS2_EEE8__appendEj
QGf:_X509CertificateCollection_AddRange_m3683116910
VJe:_SinkProviderData__ctor_m1624738837
Lih:__Z88RuntimeInvoker_RuntimeObject_RuntimeObject_SByte_t1669577662_RuntimeObject_RuntimeObjectPFvvEPK10MethodInfoPvPS4_
Cje:_CustomAttributeTypedArgument_Equals_m2261980307
by:__ZN7mecanim12statemachine24CreateStateMachineMemoryEPKNS0_20StateMachineConstantERNS_6memory9AllocatorE
Usa:__ZN9GfxDevice18SetGlobalDepthBiasEff
Wxj:__ZN6il2cpp6icalls8mscorlib6System8MonoType12get_AssemblyEP20Il2CppReflectionType
gj:_emscripten_glGetPointerv
fRi:_Dictionary_2_Do_CopyTo_TisKeyValuePair_2_t3842366416_TisRuntimeObject_m1564656153_gshared
BC:__ZN8Animator22ApplyBuiltinRootMotionEv
lJb:__Z26ApplyMaterialPassWithCacheRK18SharedMaterialDataR17ShaderPassContextP6ShaderPN9ShaderLab4PassEibPKNS6_10GrabPassesEPNS6_11SubProgramsEPK22DeviceRenderStateBlock
zYd:_MulticastDelegate_KPM_m22863605
a0e:_InternalEnumerator_1_get_Current_m1897120917_AdjustorThunk
ZXd:_MonoType_ReorderParamArrayArguments_m2458683451
ARe:_FormatterConverter_ToInt16_m4282804414
h8g:__Z81RuntimeInvoker_Void_t1185182177_Int64_t3736567304_RuntimeObject_Int64_t3736567304PFvvEPK10MethodInfoPvPS4_
Vtd:_StandaloneInputModule_ProcessTouchPress_m4019232747
JQd:_FileStream__ctor_m3151488352
u2d:_Array_swap_m547389985
h4:__ZN8Renderer23VirtualRedirectTransferER14SafeBinaryRead
KLg:_UInt32_ToString_m2420423038
STh:_List_1_System_Collections_IList_Add_m634558835_gshared
mRd:_FileStream_get_Length_m426703983
Tpj:__ZN6il2cpp2vmL15GetBitmapNoInitEP11Il2CppClassPjRjj
hI:__ZN12AudioManager5ResetEv
odc:__ZN15DirectorManager18ScheduleGraphStartERK14HPlayableGraph
hC:__ZN7mecanim5human14RetargetToTDoFEPKNS0_5HumanEPNS0_9HumanPoseEPNS_8skeleton13SkeletonPoseTIN4math4trsXEEESB_
XYj:__ZN6il2cpp6icalls8mscorlib6System11Environment20GetWindowsFolderPathEi
Rw:__ZN7mecanim5human18HumanPoseBlendNodeERNS0_9HumanPoseEPS1_f
eZc:_UNITY_FT_RoundFix
E3j:_GC_is_heap_ptr
bwf:_ASN1_DecodeTLV_m1200977460
mng:_UnityEventBase_PrepareInvoke_m1785382128
QFh:_ReadOnlyCollection_1_System_Collections_Generic_IListU3CTU3E_set_Item_m1584697503_gshared
zcb:__ZNK12MeshRenderer22GetTypeVirtualInternalEv
x6d:_Char_System_IConvertible_ToUInt32_m3901815580
dnf:_Scrollbar_set_onValueChanged_m346467699
aUc:__ZN13ProduceHelperI13BoxCollider2DLb0EE7ProduceE10MemLabelId18ObjectCreationMode
Hah:__Z157RuntimeInvoker_Int32_t2950945753_RuntimeObject_Int32_t2950945753_Int32_t2950945753_Int32_t2950945753_SByte_t1669577662_SByte_t1669577662_Int32U26_t1369213839PFvvEPK10MethodInfoPvPS4_
PK:__ZN4FMOD6System17setSoftwareFormatEi17FMOD_SOUND_FORMATii18FMOD_DSP_RESAMPLER
Oia:__ZN14SafeBinaryRead19TransferSTLStyleMapINSt3__23mapIN4core12basic_stringIcNS3_20StringStorageDefaultIcEEEES7_NS1_4lessIS7_EE13stl_allocatorINS1_4pairIKS7_S7_EEL18MemLabelIdentifier1ELi16EEEEEEvRT_17TransferMetaFlags
ccd:__ZN2UI6Canvas27UpdateEventIndexesRecursiveERi
zv:__ZN7mecanim9animation18EvaluateRootMotionERKNS0_18ClipMuscleConstantERKNS0_15ClipMuscleInputEPKfS8_RNS0_12MotionOutputEb
HS:__ZN11UnityEngine15CloudWebService16SessionContainer21PrepareDataErrorEventERN4core12basic_stringIcNS2_20StringStorageDefaultIcEEEE
hrd:_ExecuteEvents_get_pointerUpHandler_m3515704212
s7d:_ArrayList_set_Item_m2003485935
rve:_SatelliteContractVersionAttribute__ctor_m3630863995
atd:_MouseButtonEventData_PressedThisFrame_m1060658845
lzb:__Z19TransferField_ArrayI19StreamedBinaryWriteILb0EE27Converter_SimpleNativeClassI8GUIStyleEEvRK23StaticTransferFieldInfoR31RuntimeSerializationCommandInfoRT0_
LOb:__Z27SetClippingPlaneShaderPropsR9GfxDevice
CDh:_ReadOnlyCollection_1_System_Collections_Generic_IListU3CTU3E_RemoveAt_m3969985996_gshared
Skk:_emscripten_glCopyTexSubImage2D__wrapper
bCd:_GraphicRegistry_GetGraphicsForCanvas_m4219276355
mMd:_NumberFormatter_FastToDecHex_m699829267
RZi:_PatternCompiler_MakeFlags_m1977119795
bFc:__Z35Transfer_Blittable_FixedBufferFieldI8JSONReadiEvRK29SerializationCommandArgumentsR31RuntimeSerializationCommandInfo
Uma:__ZN15SerializeTraitsIN9ShaderLab16FastPropertyNameEE8TransferI19StreamedBinaryWriteILb0EEEEvRS1_RT_
Zwj:__ZNSt3__213__vector_baseIN6il2cpp2os19SocketHandleWrapperENS_9allocatorIS3_EEED2Ev
V7h:__ZL48_Type_t3588564251_CustomAttributesCacheGeneratorP21CustomAttributesCache
lc:invoke_viiffi
_Nd:_Int64_System_IConvertible_ToUInt32_m109903525
TAc:__ZN5Unity9rapidjson13GenericReaderINS0_4UTF8IcEES3_13JSONAllocatorE10ParseFalseILj0ENS0_19GenericStringStreamIS3_EENS0_15GenericDocumentIS3_S4_S4_EEEEvRT0_RT1_
Spg:_Mathf_CeilToInt_m432108984
THg:_TimeSpan_FromHours_m1109641064
jla:__Z14resize_trimmedINSt3__26vectorIN9ShaderLab18SerializedPropertyENS0_9allocatorIS3_EEEEEvRT_j
Wuj:__ZN6il2cpp2vm13MetadataCache38GetMethodInfoFromMethodDefinitionIndexEi
Upd:_EventSystem_set_current_m38955169
SYi:_CostDelegate_EndInvoke_m2797921932
j8a:__ZN10VertexData8TransferI24GenerateTypeTreeTransferEEvRT_
y1f:_Double_IsInfinity_m820013146
rZj:__ZN13Il2CppHashMapIPK19Il2CppGenericMethodP10MethodInfoN6il2cpp8metadata23Il2CppGenericMethodHashENS6_26Il2CppGenericMethodCompareENSt3__29allocatorINS9_4pairIK10KeyWrapperIS2_ES4_EEEEEC2EjRKS7_RKS8_
zwg:_Screen_get_dpi_m495672463
uEg:_UTF8Encoding_InternalGetByteCount_m2120178851
XWb:__ZL10CullLightsRK22SceneCullingParametersR11CullResults
Vge:_Convert_ToUInt64_m3170916409
Yx:__ZN7mecanim12statemachine20GetBlendTreeConstantERKNS0_13StateConstantEi
NNd:_Int64_System_IConvertible_ToInt16_m4062196970_AdjustorThunk
tYd:_MonoType_GetGenericTypeDefinition_m3201894896
d4b:__Z40GetTemporaryCachePathApplicationSpecificv
_qa:__ZN9GfxDevice16EndAsyncJobFrameEv
skh:__Z99RuntimeInvoker_Int32_t2950945753_Ray_t3785851493_RuntimeObject_Single_t1397266774_Int32_t2950945753PFvvEPK10MethodInfoPvPS4_
W$c:_UNITY_tt_face_load_hhea
ole:_DerivedType_get_Assembly_m2979298667
dl:___syscall3
Bhh:__Z135RuntimeInvoker_RaycastHit2D_t2279581989_Vector2_t2156229523_Vector2_t2156229523_Single_t1397266774_Int32_t2950945753_Single_t1397266774PFvvEPK10MethodInfoPvPS4_
gl:___syscall6
il:___syscall4
GT:__ZN11UnityEngine15CloudWebService20WebRequestRestClient17GetResponseStatusEv
oPe:_ReturnMessage__ctor_m2352989078
K5g:__Z99RuntimeInvoker_Void_t1185182177_RuntimeObject_Int32_t2950945753_SByte_t1669577662_SByte_t1669577662PFvvEPK10MethodInfoPvPS4_
lpb:__ZNSt3__26__treeINS_12__value_typeIN4core12basic_stringIcNS2_20StringStorageDefaultIcEEEEPN16MemoryFileSystem4NodeEEENS_19__map_value_compareIS6_SA_NS_4lessIS6_EELb1EEE13stl_allocatorISA_L18MemLabelIdentifier55ELi16EEE7destroyEPNS_11__tree_nodeISA_PvEE
gVj:__ZN6il2cpp2vm3RCW14QueryInterfaceILb1EEEP14Il2CppIUnknownP15Il2CppComObjectRK10Il2CppGuid
qDe:_TlsServerCertificateRequest__ctor_m1334974076
aPc:__ZNSt3__26__sortIR24RayHitsByDepthComparitorP12RaycastHit2DEEvT0_S5_T_
sIc:__ZN27PerformanceReportingManager23VirtualRedirectTransferER14SafeBinaryRead
tfe:_Convert_ToInt32_m1613163543
Okf:_MatEntry__ctor_m1949610076
cDh:_ReadOnlyCollection_1_System_Collections_ICollection_CopyTo_m3127175806_gshared
yl:_emscripten_glShaderBinary
RKg:_UInt16_ToString_m760649087
iob:__ZNK20LocalFileSystemPosix6ExistsERK13FileEntryData
Pjg:_Camera_GetAllCameras_m668492922
Vwc:_access_virt_sarray
zfd:__Z58Register_UnityEngine_Canvas_GetETC1SupportedCanvasMaterialv
hIg:_TimeSpan_op_Inequality_m2467851530
KBb:__ZN17AnimationCurveTplIfE8TransferI18StreamedBinaryReadILb1EEEEvRT_
ZPi:_Array_Sort_TisUIVertex_t4057497605_m3996333845_gshared
Hjd:__ZN18UnityConnectClientD2Ev
O2d:_Swapper_BeginInvoke_m1688449973
Slg:_Display_get_renderingWidth_m1970428952
K7i:_U3CTimedTriggerU3Ec__Iterator0_MoveNext_m825792986
kch:__Z81RuntimeInvoker_Void_t1185182177_RuntimeObject_Int32_t2950945753_Int64_t3736567304PFvvEPK10MethodInfoPvPS4_
x1:__ZN13dynamic_arrayIcLj1EE6insertEPcPKcS3_
Gvc:_post_process_1pass
L8g:__Z86RuntimeInvoker_Boolean_t97287965_Int16_t2552820387_Int16_t2552820387_Int32_t2950945753PFvvEPK10MethodInfoPvPS4_
Zbj:_IndexedSet_1_IndexOf_m241693686_gshared
Mid:__ZN11UnityEngine15PlatformWrapper30GetGraphicsDriverLibraryStringEv
cFd:_RuntimeMethodHandle_Equals_m3301340296_AdjustorThunk
gMg:_UInt64_System_IConvertible_ToSingle_m925613075_AdjustorThunk
eDb:__Z18Transfer_BlittableI18StreamedBinaryReadILb0EELb0E4AABBEvRK29SerializationCommandArgumentsR31RuntimeSerializationCommandInfo
qhb:__ZN24GenerateTypeTreeTransfer19TransferSTLStyleMapINSt3__28multimapIN4core12basic_stringIcNS3_20StringStorageDefaultIcEEEE4PPtrI6ObjectENS1_4lessIS7_EE13stl_allocatorINS1_4pairIKS7_SA_EEL18MemLabelIdentifier52ELi16EEEEEEvRT_17TransferMetaFlags
jE:__ZN16MecanimAnimation24DeleteAnimatedPropertiesERP26IAnimatedPropertyEvaluator
blj:_CanvasRenderer_SetMaterial_m824577244
FNb:__Z14DrawGUITextureRK5RectTIfEP7Texture11ColorRGBA32P8Materiali
yDh:_ReadOnlyCollection_1_System_Collections_Generic_ICollectionU3CTU3E_Add_m2686599243_gshared
mB:__ZN9BlobWrite8TransferI22OffsetPtrArrayTransferIKN4math7_float4EEEEvRT_PKc17TransferMetaFlags
sOb:__ZN22RenderingCommandBuffer20ExecuteCommandBufferER17ShaderPassContextR15RenderNodeQueuejP13dynamic_arrayINSt3__24pairIN9ShaderLab16FastPropertyNameEP13RenderTextureEELj4EE16ComputeQueueTypeSA_
$yg:_Transform_IsChildOf_m224006092
kOc:__ZNK11b2EdgeShape7RayCastEP15b2RayCastOutputRK14b2RayCastInputRK11b2Transformi
MEc:__ZN9JSONWrite8TransferI4AABBEEvRT_PKc17TransferMetaFlags
tPa:__ZN25MultiBlocksMemoryFileData9SetLengthEy
poh:__Z58RuntimeInvoker_Void_t1185182177_ContactPoint2D_t3390240644PFvvEPK10MethodInfoPvPS4_
HQc:__ZN10Collider2D13AwakeFromLoadE17AwakeFromLoadMode
aRi:_Dictionary_2_Do_ICollectionCopyTo_TisRuntimeObject_m1855083806_gshared
H6i:_Aes__ctor_m178909601
H3a:__ZNK9Texture2D20GetRuntimeMemorySizeEv
Mqc:__ZN11Marshalling39CreateNullExceptionForUnityEngineObjectE18ScriptingObjectPtr
SAc:__ZN5Unity9rapidjson13GenericReaderINS0_4UTF8IcEES3_13JSONAllocatorE9ParseTrueILj0ENS0_19GenericStringStreamIS3_EENS0_15GenericDocumentIS3_S4_S4_EEEEvRT0_RT1_
Gm:_emscripten_glUniform2iv
sDg:_UnicodeEncoding_CopyChars_m785272451
BWc:_UNITY_FT_Outline_Transform
kqj:__ZN6il2cpp2vm5Class10GetMethodsEP11Il2CppClassPPv
VSb:__Z30AddDefaultStreamsToMeshBuffersR9GfxDeviceR11MeshBuffersRK16DrawBuffersRange17ShaderChannelMaskS6_
SDa:__ZN7ApiGLES17DeleteFramebufferERN2gl6HandleILNS0_10ObjectTypeE9EEES3_
uHa:__ZN15UniformTFMethod13MapBoneBufferEj
Zad:__ZN2UI14CanvasRendererD2Ev
JSi:_Array_InternalArray__get_Item_TisParameterModifier_t1461694466_m29553316_gshared
dOd:_Int64_CompareTo_m1928360444_AdjustorThunk
jIb:__Z9SetupArgviPPKc
Jfe:_Convert_ToInt64_m2075031821
G7i:_AnalyticsEventTracker_OnDisable_m1553012800
Llk:_glTexParameteri__wrapper
I2a:__ZN12CubemapArray23VirtualRedirectTransferER24GenerateTypeTreeTransfer
d2:__ZN12FileAccessor4OpenER15FileSystemEntry14FilePermission16FileAutoBehavior
SXj:__ZN6il2cpp2os9Directory6CreateERKNSt3__212basic_stringIcNS2_11char_traitsIcEENS2_9allocatorIcEEEEPi
j7:__ZN23TransformChangeDispatch32QueueTransformChangeIfHasChangedERK15TransformAccess
Q1a:__ZNSt3__26vectorINS_4pairIN9ShaderLab16FastPropertyNameEN18UnityPropertySheet11UnityTexEnvEEENS_9allocatorIS6_EEE21__push_back_slow_pathIKS6_EEvRT_
Xhe:_Assembly_get_FullName_m293988418
PUc:__ZN22WorldContactListener2D8PreSolveEP9b2ContactPK10b2Manifold
B:tempValue
q7j:__ZN6il2cpp8metadata24Il2CppGenericContextHash4HashEPK20Il2CppGenericContext
i_e:_InternalEnumerator_1_get_Current_m356936020_AdjustorThunk
Syh:_Collection_1_CheckWritable_m1583234367_gshared
sNd:_Int32_ToString_m141394615_AdjustorThunk
w8d:_ArrayListWrapper_CopyTo_m498486826
fQd:_Directory_GetCurrentDirectory_m219218555
g$d:_SmallXmlParser_UnexpectedEndError_m1914362401
vy:__ZN26AnimatorControllerPlayable18DeallocateBindingsEv
Jwa:__ZN14DelayedDeletorI15dense_hashtableINSt3__24pairIK9TextureIDiEES3_14GfxGenericHashIS3_EN14GfxDoubleCacheIS3_iS7_NS1_8equal_toIS3_EEN31GfxDoubleCacheConcurrencyPolicy11LocklessGetE42GfxDoubleCacheDefaultEmptyDeletedGeneratorIS3_EE9SelectKeyESA_13stl_allocatorIS5_L18MemLabelIdentifier24ELi16EEEEclEv
QN:__ZN11AudioSource19CreateOpenALRolloffEfff
gHg:_TimeSpan__ctor_m1896986612_AdjustorThunk
EZd:_ArgumentException__ctor_m1216717135
Gtg:_Ray_ToString_m1732834890_AdjustorThunk
wd:_glReadBuffer
HWh:_List_1_System_Collections_IList_Contains_m3860993176_gshared
XWf:_DateTime_get_Minute_m87527789_AdjustorThunk
EO:__ZN11AudioModule22CreateAudioClipFromWWWEP10IWWWStreamPKcbbi
nac:__ZN9Texture2DC2E10MemLabelId18ObjectCreationMode
bj:_emscripten_glRotatef
VKg:_UInt32_System_IConvertible_ToBoolean_m1763673183_AdjustorThunk
gng:_UnityEvent_AddListener_m2276267359
ddd:__Z13RegisterClassIN2UI11CanvasGroupEEvv
k4b:__ZN6prcoreL11inner_clearILj4EEEvPhjjj
yf:_emscripten_glClear
Y2j:_GC_initialize_offsets
ofa:__ZNK8Playable6HandleEv
Jff:_SetPropertyUtility_SetColor_m2229203028
j7e:_Enumerator_MoveNext_m481679286_gshared
j0:__ZN14MessageHandler28MessageIDToMessageIdentifierEi
F8a:__ZNK11SpriteAtlas20GetRuntimeRenderDataEPK6Sprite
XPd:_FileSystemInfo__ctor_m3035148496
KMd:_Int32_System_IConvertible_ToDecimal_m2190376994_AdjustorThunk
r7c:__ZN20TextRenderingPrivate15DynamicFontData36GetFaceForCharacterIfAvailableInFontERKNS_7FontRefERK13dynamic_arrayI4PPtrIN13TextRendering4FontEELj4EEj
tw:__ZN7mecanim14ValueArrayCopyILb0EEEvPKNS_10ValueArrayEPS1_
zF:__Z51Register_UnityEngine_Animator_get_hasBoundPlayablesv
Od:emscriptenWebGLGetUniform
No:FUNCTION_TABLE_iiiiiiiiiii
U3i:_GUI_CallWindowDelegate_m3309453386
h_c:_cff_set_mm_blend
EYb:__ZL10CleanUpJobP20CullingGroupsJobData
SPd:_DirectoryInfo_get_Exists_m3142069876
wNb:__ZN13RenderManager15BatchModeUpdateEv
rwc:_jpeg_resync_to_restart
dGf:_X509Chain_get_CertificateAuthorities_m804805415
P7a:__ZN14SafeBinaryRead21TransferSTLStyleArrayI13dynamic_arrayI8Vector2fLj4EEEEvRT_17TransferMetaFlags
V3:__ZN17PersistentManager51InstanceIDToLocalSerializedObjectIdentifierInternalEiR31LocalSerializedObjectIdentifier
Ivg:_Vector2_get_one_m738793577
CSc:__ZN10ClipperLib7Clipper15SetWindingCountERNS_5TEdgeE
mfc:__ZNK4Mesh14GetIndexFormatEv
rd:_glVertexAttribIPointer
log:_Input_GetAxisRaw_m2316819917
jDa:__ZN13dynamic_arrayI21ComputeShaderResourceLj4EE9push_backERKS0_
Dfc:__ZNK6Sprite10GetPaddingE20SpriteRenderDataMode
t9f:_Array_InternalArray__ICollection_Remove_TisUInt32_t2560061978_m733727733_gshared
sGd:_CryptographicException__ctor_m503735289
HRd:_Stream_EndRead_m1896469262
B0g:__Z93RuntimeInvoker_Boolean_t97287965_Int32_t2950945753_SByte_t1669577662_ExceptionU26_t3600731591PFvvEPK10MethodInfoPvPS4_
PQb:__ZN14qsort_internal5QSortIP15RODataDepthPassi17ROSorterDepthPassEEvT_S4_T0_T1_
A0c:_UNITY_ft_glyphslot_alloc_bitmap
qBh:_ReadOnlyCollection_1_System_Collections_IList_Add_m3642938800_gshared
OGe:_RSASslSignatureDeformatter_SetHashAlgorithm_m895570787
jYi:_X509CrlEntry__ctor_m4013514048
Mfh:__Z87RuntimeInvoker_Color_t2555686324_Color_t2555686324_Color_t2555686324_Single_t1397266774PFvvEPK10MethodInfoPvPS4_
t5c:_ft_raster1_render
Hrc:__Z47Register_UnityEngine_Mesh_RecalculateBoundsImplv
lra:__ZN9GfxDevice27UpdateComputeSkinPoseBufferEP9GfxBufferP12SkinMeshInfo
Ibk:__ZNKSt3__221__basic_string_commonILb1EE20__throw_length_errorEv
IVg:_EqualityComparer_1_System_Collections_IEqualityComparer_Equals_m245992594_gshared
LRc:__ZN10ClipperLib11ClipperBase5ResetEv
gdg:_Array_InternalArray__IndexOf_TisParameterModifier_t1461694466_m1227120810_gshared
TEa:__ZN18GfxFramebufferGLES13ReadbackImageER14ImageReferenceiiiiii
uBc:__ZN5Unity9rapidjson6WriterI16TempBufferWriterNS0_4UTF8IcEES4_13JSONAllocatorE11WriteStringEPKcj
hEd:_SerializationInfo_SetType_m3923964808
wAa:__ZN6prcoreL12RemapGenericI17TexFormatARGB888815TexFormatRGB565EEvPKNS_9InnerInfoE
uJ:__ZN4FMOD7Channel19setReverbPropertiesEPK29FMOD_REVERB_CHANNELPROPERTIES
D8i:_StandardEventPayload_GetParameters_m2672427676
PTd:_StreamReader_Dispose_m156389394
U_:__ZN13MonoBehaviour22GetScriptFullClassNameEv
a8b:__ZN13ProduceHelperI11MonoManagerLb0EE7ProduceE10MemLabelId18ObjectCreationMode
IKf:_RIPEMD160Managed_JJ_m112143231
lQb:__ZN13BatchRendererC2ER15RenderLoopStatsRK15RenderNodeQueuebb
cpb:__ZNK16MemoryFileSystem9EnumerateEPKcP19dynamic_block_arrayI13FileEntryInfoLj32EEbPPv19FileEnumerationFlag
hGb:__ZN13MonoBehaviour9CallAwakeEv
CZa:__ZN20SphericalHarmonicsL211AddWeightedERKS_f
D3g:__Z82RuntimeInvoker_RuntimeObject_Int64_t3736567304_Int64_t3736567304_Int64_t3736567304PFvvEPK10MethodInfoPvPS4_
qvb:__Z19TransferField_ArrayI17RemapPPtrTransfer27Converter_SimpleNativeClassI8GUIStyleEEvRK23StaticTransferFieldInfoR31RuntimeSerializationCommandInfoRT0_
Nvc:_h2v1_fancy_upsample
eCc:__ZN9JSONWrite8TransferI10ColorRGBAfEEvRT_PKc17TransferMetaFlags
Isa:__ZN13GfxDeviceGLES17CaptureScreenshotEiiiiPh
d0:__Z25scripting_method_get_name18ScriptingMethodPtr
ZGe:_SslCipherSuite_ComputeKeys_m661027754
Nrg:_Object_set_name_m291480324
__f:_Decimal_Equals_m2486655999
_2j:_GC_exit_check
kse:_MonoField_ToString_m2518484388
Zwf:_DSAManaged_get_Random_m923751780
Sbf:_Transform_1_Invoke_m2385719192_gshared
_zg:_Vector3_set_Item_m1772472431_AdjustorThunk
YIf:_Interpreter_PopulateGroup_m4042796257
oJg:_Type_GetProperty_m3414567179
qPj:__ZN6il2cpp2vm13LivenessState25FieldCanContainReferencesEP9FieldInfo
u0b:__ZNSt3__26vectorINS_4pairIN4core12basic_stringIcNS2_20StringStorageDefaultIcEEEES6_EE13stl_allocatorIS7_L18MemLabelIdentifier38ELi16EEE6insertENS_11__wrap_iterIPKS7_EERSD_
Hng:_RenderPipelineManager_DoRenderLoop_Internal_m3799666479
dB:__ZN9BlobWrite8TransferI22OffsetPtrArrayTransferI9OffsetPtrIN7mecanim12statemachine18StateMachineMemoryEEEEEvRT_PKc17TransferMetaFlags
fwh:_Collection_1_System_Collections_IList_IndexOf_m3894953546_gshared
vWi:_PKCS12_get_Certificates_m26161562
MAf:_NameObjectCollectionBase_Init_m2525481323
jQi:_Array_swap_TisBoolean_t97287965_m2293774148_gshared
LQh:_List_1_Insert_m1582252370_gshared
k_j:__ZN6il2cpp2vm6String8NewUtf16EPKDsi
oFd:_SByte_System_IConvertible_ToByte_m2268214252_AdjustorThunk
BXj:__ZN6il2cpp2os10ThreadImpl12QueueUserAPCEPFvPvES2_
x1i:_RegularExpression__ctor_m119502265
xjd:__ZN22BaseUnityConnectClient10QueueEventERN11UnityEngine15CloudWebService17CloudServiceEventEPKcjb
zDh:_ReadOnlyCollection_1_System_Collections_Generic_ICollectionU3CTU3E_Clear_m522482168_gshared
jhj:__ZL25UnresolvedVirtualCall_139P12Il2CppObject17Color_t2555686324faaPK10MethodInfo
ANe:_ConstructionCall_InitMethodProperty_m2021094586
cuc:_UNITY_png_read_filter_row_up
q3c:_UNITY_FT_Hypot
mKi:__ZL74CanvasScaler_t2767979955_CustomAttributesCacheGenerator_m_DefaultSpriteDPIP21CustomAttributesCache
WJj:_il2cpp_class_is_abstract
If:_emscripten_glGetError
uHj:__ZN15dense_hashtableINSt3__24pairIK10KeyWrapperIPK14Il2CppAssemblyEPK22Il2CppMonoAssemblyNameEES6_N6il2cpp5utils11PointerHashIS4_EEN14dense_hash_mapIS6_SA_SF_NS6_14EqualsComparerINS0_8equal_toIS5_EEEENS0_9allocatorISB_EEE9SelectKeyESK_SM_E14squash_deletedEv
fK:__Z14FMOD_FILE_SeekPvjS_
hlf:_MaskableGraphic_OnDisable_m1757789159
l_a:__ZN7TextureC2E10MemLabelId18ObjectCreationMode
Yif:_LayoutGroup__ctor_m2162961217
ahd:__Z56Register_UnityEngine_Analytics_CustomEventData_AddStringv
FZb:__ZNK13RenderTexture32CalculateNeedsInvertedProjectionEv
H2b:__ZN10systeminfo18GetOperatingSystemEv
Qf:emscriptenWebGLGet
Iba:__Z19CanReplaceComponentRN5Unity9ComponentEPKNS_4TypeEPN4core12basic_stringIcNS5_20StringStorageDefaultIcEEEE
SVd:_UnmanagedMemoryStream_Flush_m1540584491
iKd:_GuidParser_ParseGuid2_m1914838819
gac:__ZN12CubemapArray11InitTextureEiii13TextureFormatb
Hhc:__Z17GetSceneBuildInfoRKN4core12basic_stringIcNS_20StringStorageDefaultIcEEEEiR14SceneBuildInfo
ige:_Convert_ToSingle_m3983149863
KUe:_InternalEnumerator_1_System_Collections_IEnumerator_get_Current_m55999184_gshared
dBd:_Graphic_get_depth_m815589653
w3i:_Event_set_displayIndex_m1342258734
MB:__ZN7mecanim5human13HumanFixTwistEPKNS0_5HumanEPNS_8skeleton13SkeletonPoseTIN4math4trsXEEES9_iiRKf
DTb:__ZL24AssignProjectorQueuesJobP30AssignProjectorQueuesJobHeader
Xte:_ParameterModifier_t1461694466_marshal_pinvoke
kuj:__ZN15dense_hashtableINSt3__24pairIK10KeyWrapperIN6il2cpp5utils13dynamic_arrayIPK10Il2CppTypeLj4EEEEPFvvEEESA_NS3_8metadata19Il2CppSignatureHashEN14dense_hash_mapISA_SD_SG_NSA_14EqualsComparerINSF_22Il2CppSignatureCompareEEENS0_9allocatorISE_EEE9SelectKeyESK_SM_E4swapERSP_
NKd:_Int16_System_IConvertible_ToUInt32_m3410279543
qoa:__ZN9ShaderLab20SerializedSubProgram14SetConstBufferEPKci
tAj:__ZN6il2cpp2os4File5CloseEPNS0_10FileHandleEPi
Ltj:__ZNSt3__27__sort5IRN6il2cpp5utils11collections13ArrayValueMapIPK10Il2CppType17Il2CppInteropData26InteropDataToTypeConverterNS1_8metadata14Il2CppTypeLessENSA_26Il2CppTypeEqualityComparerEE12SortComparerEPS8_EEjT0_SH_SH_SH_SH_T_
zKg:_UInt16_CompareTo_m2664746316_AdjustorThunk
uX:__Z40DebugStringToFilePostprocessedStacktraceRK21DebugStringToFileData
SGc:__Z29Transfer_Blittable_ArrayFieldI8JSONReadjEvRT_R9ArrayInfoRK23StaticTransferFieldInfo
e3j:_GC_check_finalizer_nested
wg:__setLetterbox
Vof:_ScrollRect_OnScroll_m3861066534
ayi:__ZL72FormerlySerializedAsAttribute_t2859083114_CustomAttributesCacheGeneratorP21CustomAttributesCache
cff:_OnValidateInput_Invoke_m1009124904
l_i:_PatternCompiler_EmitFastRepeat_m3012952683
jbb:__ZNSt3__26vectorI17BlendShapeChannelNS_9allocatorIS1_EEE6assignINS_11__wrap_iterIPS1_EEEENS_9enable_ifIXaasr21__is_forward_iteratorIT_EE5valuesr16is_constructibleIS1_NS_15iterator_traitsISA_E9referenceEEE5valueEvE4typeESA_SA_
A2b:__ZN11TimeManager11GetRealtimeEv
zK:__ZN29AudioEffectInternalDefinitionC2EP26UnityAudioEffectDefinitionb
jIh:_ReadOnlyCollection_1_System_Collections_IList_Remove_m2434650390_gshared
SKg:_UInt16_ToString_m3056878594_AdjustorThunk
s6j:__ZN6il2cpp2os9FastMutexD2Ev
VJf:_Interval_get_IsSingleton_m3386290029
$2b:__ZN12LineRenderer15InitializeClassEv
pCj:__ZNSt3__2plIcNS_11char_traitsIcEENS_9allocatorIcEEEENS_12basic_stringIT_T0_T1_EERKS9_PKS6_
Uxg:_Time_get_unscaledDeltaTime_m4270080131
yMf:_SHA384Managed__ctor_m3220477113
vza:_stbir_resize
tcg:_Array_IndexOf_TisCustomAttributeTypedArgument_t2723150157_m3158556463_gshared
Q2f:_Environment_GetOSVersionString_m407782784
EUf:_DecoderExceptionFallback_Equals_m1082173956
Obi:__ZL69Assembly_t_CustomAttributesCacheGenerator_Assembly_GetName_m981771927P21CustomAttributesCache
pNc:__ZN24b2ChainAndCapsuleContact6CreateEP9b2FixtureiS1_iP16b2BlockAllocator
zPa:__Z37ReadDirectoryInfo_UnityWebAndUnityRawR12FileAccessorRKN20ArchiveStorageHeader6HeaderERNS1_13DirectoryInfoE
Taa:__ZNSt3__26__treeINS_12__value_typeIPKciEENS_19__map_value_compareIS3_S4_15compare_tstringIS3_ELb1EEENS_9allocatorIS4_EEE7destroyEPNS_11__tree_nodeIS4_PvEE
Bgg:_Array_InternalArray__Insert_TisIntPtr_t_m189626842_gshared
DNd:_Int64_System_IConvertible_ToByte_m375085029_AdjustorThunk
NJd:_RijndaelManaged_CreateEncryptor_m263736311
bkd:__ZN13dynamic_arrayIN4core12basic_stringIcNS0_20StringStorageDefaultIcEEEELj4EE6assignEPKS4_S7_
NQb:__ZN20DynamicPropertySheet14SetValueQueuedEN9ShaderLab16FastPropertyNameEN19ShaderPropertySheet12PropertyTypeEjNS2_8SetFlagsE
Nbd:__ZN2UI6Canvas26MarkAllNestedCanvasesDirtyEv
Nmg:_InvokableCallList_ClearPersistent_m1904264973
JHb:__ZN25PathNamePersistentManagerD2Ev
wZ:__ZN17PersistentManager48IntegrateObjectAndUnlockIntegrationMutexInternalEi
Hha:__ZZ29InitializeSortingGroupManagerPvEN44PostLateUpdateSortingGroupsUpdateRegistrator7ForwardEv
PDi:__ZL55EventTrigger_t1076084509_CustomAttributesCacheGeneratorP21CustomAttributesCache
eQf:_SecurityElement_SearchForChildByTag_m900466299
Ip:__ZN6Object12SetHideFlagsENS_9HideFlagsE
AMc:__ZN9b2Fixture11SynchronizeEP12b2BroadPhaseRK11b2TransformS4_
bge:_Convert_ToSingle_m3227075028
Eik:_emscripten_glGetFramebufferAttachmentParameteriv__wrapper
YNb:__ZN13RendererScene15InitializeUmbraEv
tYa:__Z28CalculateGlobalMatrixInverse23TransformAccessReadOnly
nYg:_GenericEqualityComparer_1_Equals_m3457564127_gshared
ixe:_BigInteger_ModInverse_m2426215562
Haj:_Gridscript_Start_m2141529974
AUf:_DecoderExceptionFallback__ctor_m4044614564
XVd:_LocalDataStoreSlot__cctor_m644942532
o7j:__ZN6il2cpp6icalls8mscorlib6System6Object7GetTypeEP12Il2CppObject
$se:_MonoProperty_CachePropertyInfo_m2968057423
ond:__ZNK25UnityWebRequestJavaScript18GetDownloadedBytesEv
Etg:_Ray_GetPoint_m1852405345_AdjustorThunk
iBh:_ReadOnlyCollection_1_System_Collections_Generic_IListU3CTU3E_Insert_m3798411681_gshared
s7f:_Array_get_swapper_TisColor32_t2600501292_m2310851009_gshared
gnd:__ZN12HeaderHelper14SetUnvalidatedERKN4core12basic_stringIcNS0_20StringStorageDefaultIcEEEES6_b
xG:__ZN4FMOD6SoundI7releaseEv
Wcb:__ZN14SpriteRenderer13AwakeFromLoadE17AwakeFromLoadMode
VYc:_cff_parse_num
bQa:__ZN10MemoryFile9SetLengthEy
vxb:__ZN5RectTIiE8TransferI24GenerateTypeTreeTransferEEvRT_
x5a:__ZN14SafeBinaryRead21TransferSTLStyleArrayI13dynamic_arrayI7Hash128Lj8EEEEvRT_17TransferMetaFlags
LGb:__Z28scripting_class_is_interface17ScriptingClassPtr
Oh:_glTexStorage2D
oce:_SyncHashtable_get_Item_m2686606216
Nna:__ZNK9ShaderLab10SubProgram14EnsureCompiledEv
soe:_MethodBuilder_GetGenericArguments_m1765425737
oXf:_DateTime_CompareTo_m3687348273
V1j:_GC_push_marked
wYf:_DateTime_ToUniversalTime_m1945318289_AdjustorThunk
V$:__Z18BuildScriptClassId17ScriptingClassPtr
Ijj:_TextGenerator_Init_m1168488231
CNa:__ZL31DeleteLastPathNameComponentImplRKN4core12basic_stringIcNS_20StringStorageDefaultIcEEEEPKc
Z6b:__Z13RegisterClassI18DelayedCallManagerEvv
Ljd:__ZN18UnityConnectClient15GetCloudServiceEv
Evb:__Z18Transfer_BlittableI24GenerateTypeTreeTransferLb0EiEvRK29SerializationCommandArgumentsR31RuntimeSerializationCommandInfo
hZe:_InternalEnumerator_1_get_Current_m2698009637_gshared
Twj:__ZN6il2cpp2os19SocketHandleWrapperD2Ev
VMc:__ZN15b2CircleContact6CreateEP9b2FixtureiS1_iP16b2BlockAllocator
EGb:__ZL28SerializationCommandGroupForRK31TransferFunctionScriptingTraits17ScriptingClassPtr17ScriptingFieldPtrRK20CoreScriptingClasses
ISa:__ZN10TagManager32RegisterDefaultTagsAndLayerMasksEv
aHg:_WaitHandle_Dispose_m738127030
H9g:__Z50RuntimeInvoker_Double_t594665363_Int32_t2950945753PFvvEPK10MethodInfoPvPS4_
Qih:__Z104RuntimeInvoker_Void_t1185182177_Color_t2555686324_Single_t1397266774_SByte_t1669577662_SByte_t1669577662PFvvEPK10MethodInfoPvPS4_
CPh:_Enumerator_System_Collections_IEnumerator_get_Current_m1540440674_gshared
$Qf:_Single_System_IConvertible_ToInt16_m809233024_AdjustorThunk
ihd:__Z56Register_UnityEngine_Analytics_CustomEventData_AddUInt32v
T9j:_fmodf
fff:_InputField_UpdateLabel_m1837760870
Lva:__ZN4gles8InitCapsEP7ApiGLESP12GraphicsCapsR16GfxDeviceLevelGL
Pza:__ZN6prcore14BlitImageFloatERK14ImageReferenceRS0_NS0_8BlitModeE
YVa:__Z24CalculateVertexLightDataRK15SharedLightDataR14GfxVertexLight
wi:_glEnable
HFj:__ZN15dense_hashtableINSt3__24pairIK10KeyWrapperINS1_IPK12PropertyInfoP11Il2CppClassEEEjEES9_17ReflectionMapHashIS8_EN14dense_hash_mapIS9_jSD_NS9_14EqualsComparerINS0_8equal_toIS8_EEEENS0_9allocatorISB_EEE9SelectKeyESI_SK_E15insert_noresizeERKSB_
Kna:__ZNK9ShaderLab7Program28BeginReadUnsupportedVariantsEv
X6:__ZN12CachedWriter11Align4WriteEv
Zhb:__ZNSt3__26vectorIN30RuntimeInitializeOnLoadManager9ClassInfoE13stl_allocatorIS2_L18MemLabelIdentifier13ELi16EEE7reserveEj
rCc:__Z35Transfer_Blittable_FixedBufferFieldI9JSONWriteiEvRK29SerializationCommandArgumentsR31RuntimeSerializationCommandInfo
DYg:_Enumerator__ctor_m1590062855_AdjustorThunk
sIj:__ZN14dense_hash_mapI10KeyWrapperINSt3__24pairIPK10MethodInfoP11Il2CppClassEEEj17ReflectionMapHashIS8_ENS9_14EqualsComparerINS1_8equal_toIS8_EEEENS1_9allocatorINS2_IKS9_jEEEEEC2EjRKSB_RKSF_
ny:__ZN26AnimatorControllerPlayable17ProcessRootMotionEP35AnimationPlayableEvaluationConstantP32AnimationPlayableEvaluationInputP33AnimationPlayableEvaluationOutput
wVd:_UnexceptionalStreamReader_Peek_m1842169584
mid:__ZN11UnityEngine7Connect15DeviceInfoEvent16CollectExtraInfoEv
Kig:_Bounds_GetHashCode_m1844059663_AdjustorThunk
JGd:_CryptographicException__ctor_m1422015889
xAg:_Vector4_Equals_m1779210055_AdjustorThunk
Wge:_Convert_ChangeType_m739676612
W$j:__ZThn8_N6il2cpp2vm13CachedCCWBaseINS0_13ManagedObjectEE6AddRefEv
ZAe:_Alert_GetAlertMessage_m1942367141
sLe:_RemotingServices_GetRealProxy_m2081098851
Fwf:_BlockProcessor_Core_m189015002
Mik:_emscripten_glScissor__wrapper
So:FUNCTION_TABLE_viifi
To:FUNCTION_TABLE_viiff
a3b:__ZN12LineRenderer12CleanupClassEv
LZd:_X501__cctor_m1166912714
qlf:_MaskUtilities_GetRectMasksForClip_m532898711
H3c:_UNITY_tt_face_free_hdmx
yPc:__ZNSt3__26__sortIRN18Overlap2DQueryBase29ColliderHitsByDepthComparitorEPP10Collider2DEEvT0_S7_T_
kjg:_Bounds_ToString_m4208690781
oWd:_Math_Sqrt_m1297338011
gUd:_StreamWriter_Initialize_m3490883444
BJg:_Type_GetGenericArguments_m3500465462
hmd:__ZN23UnityPurchasingSettingsC2Ev
hre:_Module_IsDefined_m2423524910
Ske:_DerivedType_create_unmanaged_type_m747846525
MAi:__ZL60EventType_t3528516131_CustomAttributesCacheGenerator_repaintP21CustomAttributesCache
NUa:__ZN17GPUFenceInternals7ReleaseEv
fJi:__ZL66Selectable_t3250028441_CustomAttributesCacheGenerator_m_NavigationP21CustomAttributesCache
GZb:__ZL10RenderFaceR9GfxDeviceR18MaterialStateCacheP13RenderTextureiif
scg:_Array_IndexOf_TisCustomAttributeNamedArgument_t287865710_m2817957199_gshared
wka:__ZN15SerializeTraitsI13dynamic_arrayIN9ShaderLab21SerializedBindChannelELj4EEE19ResizeSTLStyleArrayERS3_i
gSj:__ZNK24NamespaceAndNamePairHashclERKNSt3__24pairIPKcS3_EE
KVi:_ExtendedKeyUsageExtension_ToString_m2116504780
Skb:__ZNK5Unity9Component38MarkGameObjectAndComponentDependenciesER27GarbageCollectorThreadState
vPd:_BinaryReader_Read_m3708759962
Dnd:__ZN20UnityWebRequestProtoI24UnityWebRequestTransport16AtomicRefCounter14RedirectHelper14ResponseHelper15DownloadHandler13UploadHandler12HeaderHelper14AsyncOperationED0Ev
$Jc:__Z5b2LogPKcz
qva:__ZN9GfxDevice26CreateDefaultVertexBuffersEv
fkk:_emscripten_glVertexAttrib2fv__wrapper
JUd:_SynchronizedReader_ReadToEnd_m2160105378
l1f:_Double_System_IConvertible_ToUInt16_m4132603953_AdjustorThunk
Jya:__ZN4crnd12symbol_codec32decode_receive_static_data_modelERNS_25static_huffman_data_modelE
Y2b:__ZN18ScriptingArguments8AddFloatEf
fyg:_TouchScreenKeyboard_Open_m3325559252
iDd:_Image_set_fillOrigin_m469806249
cid:__ZN11UnityEngine15PlatformWrapper16GetVRRenderScaleEv
rDc:__Z18Transfer_BlittableI9JSONWriteLb0EaEvRK29SerializationCommandArgumentsR31RuntimeSerializationCommandInfo
bS:__ZN11UnityEngine15CloudWebService14DataDispatcher34OnSessionContainerArchivedAndReadyERNS0_16SessionContainerE
qrg:_ConnectionChangeEvent__ctor_m764126802
LJc:__ZN7b2World11CreateJointEPK10b2JointDef
que:_ResolveEventHandler_Invoke_m1337322179
t$g:_Enumerator_VerifyState_m2621680056_gshared
s2i:_UriParser_InternalRegister_m3643767086
Uia:__ZN14SafeBinaryRead19TransferSTLStyleMapINSt3__23mapIN4core12basic_stringIcNS3_20StringStorageDefaultIcEEEEiNS1_4lessIS7_EENS1_9allocatorINS1_4pairIKS7_iEEEEEEEEvRT_17TransferMetaFlags
T1c:_gray_move_to
rpg:_Material_Internal_CreateWithShader_m2478666450
tZf:_DBNull_System_IConvertible_ToSingle_m13713620
CCh:_ReadOnlyCollection_1_System_Collections_IList_Contains_m1327645028_gshared
vDd:_Image_GetDrawingDimensions_m3060965396
pyi:__ZL69FontTextureRebuildCallback_t2467502454_CustomAttributesCacheGeneratorP21CustomAttributesCache
UJg:_TypeLoadException__ctor_m1154572625
Bjc:__Z30RegisterValidateMethodCallbackiPF18ScriptingMethodPtrS_17ScriptingClassPtrP6ObjectEPKc
dEe:_Context_get_WriteSequenceNumber_m1115956887
qRi:_Dictionary_2_Do_ICollectionCopyTo_TisKeyValuePair_2_t2401056908_m1169495264_gshared
cpe:_OpCodes__cctor_m3821715395
ixd:_ContentSizeFitter__ctor_m2349275633
e1c:_tt_cmap_init
JHc:__ZN8JSONRead8TransferI9BoundsIntEEvRT_PKc17TransferMetaFlagsb
La:invoke_viidi
IPi:_Array_Sort_TisOrderBlock_t1585977831_m2922111197_gshared
WAd:_Graphic_OnRectTransformDimensionsChange_m3695755375
qFd:_SByte_System_IConvertible_ToChar_m1489191771_AdjustorThunk
_I:__ZN9AudioClip7CleanupEv
CMj:__ZNK15dense_hashtableINSt3__24pairIK10KeyWrapperIP11Il2CppClassES4_EES5_N6il2cpp8metadata16SZArrayClassHashEN14dense_hash_mapIS5_S4_SA_NS5_14EqualsComparerINS9_19SZArrayClassCompareEEENS0_9allocatorIS7_EEE9SelectKeyESE_SG_E12test_deletedEj
w3b:__ZN12LineRenderer18PrepareRenderNodesILb1EEEvR35RenderNodeQueuePrepareThreadContext
kGc:__Z18Transfer_BlittableI8JSONReadLb0EdEvRK29SerializationCommandArgumentsR31RuntimeSerializationCommandInfo
HMe:_SynchronizationAttribute_EnterContext_m1660729920
qkj:_Canvas_get_referencePixelsPerUnit_m3420541976
A3i:_Event_get_current_m2393892120
K9i:_VertexHelper_Clear_m627349662
nqa:__ZNK9GfxDevice13GetViewMatrixEv
TVd:_UnmanagedMemoryStream_Dispose_m2681886347
Sjb:__ZN17RemapPPtrTransferC2E24TransferInstructionFlagsb
Qee:_Convert_ToDecimal_m889385228
r1:__ZN8TypeTree8BlobReadERPKhS1_ib
m2d:_Array_Reverse_m3714848183
qzd:_Dropdown_ClearOptions_m4085591601
vwd:_CanvasUpdateRegistry_InternalRegisterCanvasElementForGraphicRebuild_m3522560454
uib:__ZN18LoadSceneOperation23GetAllowSceneActivationEv
Jtc:_UNITY_png_set_bKGD
gTa:__ZN6CameraD0Ev
tga:__ZN31CanvasBatchIntermediateRenderer16StaticInitializeEPv
Fx:__ZN7mecanim12AndValueMaskILb0EEEvPKNS_14ValueArrayMaskEPS1_
Nhb:__ZN14SafeBinaryRead21TransferSTLStyleArrayINSt3__26vectorIi13stl_allocatorIiL18MemLabelIdentifier13ELi16EEEEEEvRT_17TransferMetaFlags
XAg:_EncoderFallback__cctor_m3806755293
Q7c:_raccess_guess_apple_double
OCa:__ZL18ProgramUniform1uivPK7ApiGLESjiihPKv
qac:__ZN14Texture2DArray13RebuildMipMapEv
jrj:__ZN13Il2CppHashSetIPK17Il2CppGenericInstN6il2cpp8metadata21Il2CppGenericInstHashENS4_24Il2CppGenericInstCompareENSt3__29allocatorI10KeyWrapperIS2_EEEEC2EjRKS5_RKS6_
$qb:__Z18Transfer_BlittableI14SafeBinaryReadLb1EaEvRK29SerializationCommandArgumentsR31RuntimeSerializationCommandInfo
IYj:__ZN6il2cpp2gc16GarbageCollector14RemoveWeakLinkEPPv
roa:__ZN9ShaderLab20SerializedSubProgram14AddVectorParamEPKcii15ShaderParamTypei
wde:_Enumerator__ctor_m3362421874
Tgh:__Z117RuntimeInvoker_CSSSize_t3377836552_IntPtr_t_Single_t1397266774_Int32_t2950945753_Single_t1397266774_Int32_t2950945753PFvvEPK10MethodInfoPvPS4_
kok:_emscripten_glIsFramebuffer__wrapper
IVj:__ZN6il2cpp2vm6Object3BoxEP11Il2CppClassPv
qNj:__ZN6il2cpp2vm6Thread7SetNameEP12Il2CppThreadP12Il2CppString
RIb:__ZN13ScreenManager18SetAllowCursorLockEb
vT:__ZN11UnityEngine15CloudWebService10RestClientINS0_23WebRequestRestHeaderMapEE16SetRequestHeaderERKN4core12basic_stringIcNS4_20StringStorageDefaultIcEEEESA_
Shb:__ZN30RuntimeInitializeOnLoadManager15ClassMethodInfo8TransferI14SafeBinaryReadEEvRT_
sNe:_ConstructionCall_InitDictionary_m2824447813
WP:__ZL22InitializeModule_Audiov
Rob:__ZN16MemoryFileSystem8IsLockedERK13FileEntryData
ZOj:__ZN6il2cpp6icalls8mscorlib6System2IO6MonoIO5WriteEiP11Il2CppArrayiiPi
aqg:_Mathf_InverseLerp_m4155825980
U6g:__Z92RuntimeInvoker_RuntimeObject_RuntimeObject_RuntimeObject_SByte_t1669577662_SByte_t1669577662PFvvEPK10MethodInfoPvPS4_
jl:_emscripten_glBindRenderbuffer
VTh:_List_1_System_Collections_IList_Insert_m1011775503_gshared
V2j:_GC_dirty_init
$Sj:__ZN6il2cpp2vm5Image33GetCachedMemoryMappedResourceFileEP24Il2CppReflectionAssembly
uVj:__ZN6il2cpp2vm5Field14GetValueObjectEP9FieldInfoP12Il2CppObject
Vcd:__ZNK2UI6Canvas16GetTargetDisplayEv
KHg:_TimeSpan_CompareTo_m3633415627_AdjustorThunk
iea:__ZN6Object17FindObjectsOfTypeEPKN5Unity4TypeER13dynamic_arrayIPS_Lj4EEb
bGb:__ZN13MonoBehaviour17RemoveFromManagerEv
Yzg:_Vector3_get_Item_m668685504_AdjustorThunk
NTa:__ZN12ImageFilters14AddImageFilterERK11ImageFilter
Jre:_MonoEventInfo_GetEventInfo_m873645389
ELe:_Context_NotifyDynamicSinks_m1841702879
a4i:_GUIUtility_get_pixelsPerPoint_m2369948084
SPf:_WindowsIdentity_System_Runtime_Serialization_IDeserializationCallback_OnDeserialization_m3428853631
KW:__ZN13MemoryManagerC2Ev
HGa:__ZN12SkinMeshInfo10DeallocateEPS_
wof:_ScrollRect_SetDirty_m214267968
qQa:__ZN20ArchiveStorageReader28AcquireAndPrefillUnusedBlockEjPNS_11CacheResultE
S3d:_Boolean_System_IConvertible_ToDateTime_m603510836
kac:__Z12NHxRoughnessIA4_tEvP9Texture2DPT_iiii
gwf:_ASN1_get_Value_m1857007406
Cea:__ZN18AsyncUploadManagerD2Ev
tmb:__ZN9Transform5ResetEv
z$f:_Decimal_op_Explicit_m1842265407
Lxb:__Z22TransferField_NonArrayI24GenerateTypeTreeTransfer16Converter_StringEvRK23StaticTransferFieldInfoR31RuntimeSerializationCommandInfoRT0_
Hji:__ZL52Activator_t1841325713_CustomAttributesCacheGeneratorP21CustomAttributesCache
zZc:_UNITY_FT_CMap_New
WVe:_InternalEnumerator_1_get_Current_m4241643334_AdjustorThunk
KIb:__Z17MainLoopKeepalivePv
k0e:_InternalEnumerator_1_get_Current_m1588647567_AdjustorThunk
Y8j:_printf_core
udi:__ZL51GCHandle_t3351438187_CustomAttributesCacheGeneratorP21CustomAttributesCache
QXb:__Z14CalcHullBoundsPK8Vector3fPKhhRK5PlaneRK10Matrix4x4fR10MinMaxAABB
yff:_InputField_get_caretBlinkRate_m3620074524
IQb:__Z19SetupLODFadeKeywordR17ShaderPassContexti
OLf:_RSAPKCS1SignatureFormatter_CreateSignature_m3191980616
i0a:__ZN10builtintex16GetDefaultTexEnvE16TextureDimensionb
jGa:__ZL25CheckCopyTextureArgumentsRK7ApiGLESP11GLESTextureS3_
Zmk:_glDeleteShader__wrapper
ixb:__Z29Transfer_Blittable_ArrayFieldI24GenerateTypeTreeTransferyEvRT_R9ArrayInfoRK23StaticTransferFieldInfo
LJ:__ZN4FMOD7SystemI9playSoundE17FMOD_CHANNELINDEXPNS_5SoundEbPPNS_7ChannelE
gOd:_Int64_GetHashCode_m703091690
g5f:_CultureInfo_set_DateTimeFormat_m1843682751
t3i:_Event_get_commandName_m4275147343
Ex:__ZN27AnimationLayerMixerPlayable17LayerMixerProcessEP35AnimationPlayableEvaluationConstantP32AnimationPlayableEvaluationInputP33AnimationPlayableEvaluationOutputM17AnimationPlayableFvS1_S3_S5_EMS_FvS1_S3_S5_ESA_MS_FvS5_S1_S3_S5_ifE
G$f:_Decimal_op_Implicit_m4256234411
kI:__ZN12AudioManager23VirtualRedirectTransferER18StreamedBinaryReadILb0EE
v3g:__Z60RuntimeInvoker_RuntimeObject_RuntimeObject_Int16_t2552820387PFvvEPK10MethodInfoPvPS4_
Uab:__ZN10VertexData13SwapEndianessEv
KTd:_StreamReader__ctor_m3941437302
iqc:__Z57Register_UnityEngine_Transform_INTERNAL_get_localRotationv
ufk:dynCall_viif
Is:__ZN7mecanim4hand8HandPoseC2Ev
DUd:_StringReader_ReadLine_m2337102945
Qub:__ZL26Transfer_SimpleNativeClassI17RemapPPtrTransfer8GradientLb0EEvRK29SerializationCommandArgumentsR31RuntimeSerializationCommandInfo
rce:_SyncHashtable_Add_m3016107307
pz:__ZN17AnimationPlayable26DisconnectNoTopologyChangeEPS_i
z4d:_Boolean_Equals_m2410333903_AdjustorThunk
r_h:_List_1_System_Collections_IList_Contains_m2131605266_gshared
qU:__ZN13UploadHandlerD2Ev
Ldk:dynCall_viiiiiffi
Jc:_emscripten_glBlendFuncSeparate
pwh:_Collection_1_Add_m809543251_gshared
l$:__Z20scripting_string_newPKc
zoc:__Z43Material_CUSTOM_Internal_CreateWithMaterialP12Il2CppObjectS0_
C1i:_Parser_IsSingleline_m326238187
vae:_CollectionBase_get_Count_m1708965601
eId:_HMAC__ctor_m97939284
bNg:_ValueType_DefaultEquals_m2927252100
PBc:__ZN9JSONWrite12AppendToNodeEPN5Unity9rapidjson12GenericValueINS1_4UTF8IcEE13JSONAllocatorEEPKcRS6_
nwf:_ASN1_ToString_m1340204511
HFf:_X509ChainElementEnumerator_get_Current_m1301774989
mMc:__ZN16PhysicsManager2D20GetRigidBodyVelocityERK11Rigidbody2D
jGf:_X509Store_get_Certificates_m2149701265
hJg:_Type_GetField_m2961003358
EFi:__ZL144StandaloneInputModule_t2760469101_CustomAttributesCacheGenerator_StandaloneInputModule_t2760469101____allowActivationOnMobileDevice_PropertyInfoP21CustomAttributesCache
RCg:_StringBuilder_set_Chars_m3548656617
lAj:__ZN6il2cpp2os4File17GetFileAttributesERKNSt3__212basic_stringIcNS2_11char_traitsIcEENS2_9allocatorIcEEEEPi
uC:__ZNSt3__26__sortIRPFbPKN8Animator11AnimatorJobES4_EPS4_EEvT0_S9_T_
pH:__ZN17AudioCustomFilterD2Ev
goh:__Z56RuntimeInvoker_Void_t1185182177_MonoResource_t4103430009PFvvEPK10MethodInfoPvPS4_
O0j:_GC_unpromote_black_lists
AEa:__ZN18GfxFramebufferGLES18ReleaseFramebufferEP17RenderSurfaceBaseP14GfxContextGLES
aFc:__Z18Transfer_BlittableI8JSONReadLb1EiEvRK29SerializationCommandArgumentsR31RuntimeSerializationCommandInfo
JV:__ZN19CloudServiceHandler34HandleSaveFileWebRequestPlayerLoopEv
bz:__ZN7mecanim21ValueArrayReverseCopyEPKNS_18ValueArrayConstantEPKNS_10ValueArrayES2_PS3_PKi
ZG:__Z31GetParentSampleClipFromInstancePN11SoundHandle8InstanceE
w8b:__ZNK28RectTransformPropertyBinding13GetFloatValueERKN11UnityEngine9Animation10BoundCurveE
b_b:__ZN6Camera22StandaloneCustomRenderENS_10RenderFlagEP6ShaderRKN4core12basic_stringIcNS3_20StringStorageDefaultIcEEEEPNS_21PerformRenderFunctionE
Ocg:_Array_InternalArray__IndexOf_TisKeyValuePair_2_t2401056908_m4118889689_gshared
ihb:__ZNSt3__26vectorI4PPtrI6ObjectE13stl_allocatorIS3_L18MemLabelIdentifier52ELi16EEE6assignINS_11__wrap_iterIPS3_EEEENS_9enable_ifIXaasr21__is_forward_iteratorIT_EE5valuesr16is_constructibleIS3_NS_15iterator_traitsISD_E9referenceEEE5valueEvE4typeESD_SD_
L7j:__ZN6il2cpp2os16ThreadLocalValue8GetValueEPPv
mFf:_X509Certificate2_get_PublicKey_m370665820
MWc:_cff_slot_init
Cvj:__ZN6il2cpp2vm13MetadataCache14GetGenericInstEPKPK10Il2CppTypej
ZP:__ZN13AudioListener17ReadExtensionNameEi
Tb:invoke_iiidii
yp:setThrew
bac:__ZL21BuildEmptyCubeTexturePKci11ColorRGBA3217TextureColorSpace
Xia:__ZN14SafeBinaryRead21TransferSTLStyleArrayINSt3__26vectorIN9ShaderLab20SerializedSubProgramENS1_9allocatorIS4_EEEEEEvRT_17TransferMetaFlags
ldg:_Array_InternalArray__IndexOf_TisX509ChainStatus_t133602714_m48896230_gshared
VOa:__ZN19dynamic_block_arrayI13FileEntryInfoLj32EE4growEj
jFc:__Z15Transfer_StringI8JSONReadLb1EEvRK29SerializationCommandArgumentsR31RuntimeSerializationCommandInfo
jBa:__ZN6prcoreL17RemapGenericFloatI17TexFormatRGBFloat15TexFormatRGHalfEEvPKNS_9InnerInfoE
T$c:_sfnt_load_face
n7c:_UNITY_FT_Render_Glyph_Internal
RPj:__ZNSt3__212basic_stringIDsNS_11char_traitsIDsEENS_9allocatorIDsEEE21__grow_by_and_replaceEjjjjjjPKDs
TZc:_UNITY_ft_service_list_lookup
Ryc:__ZN5IMGUI21SelectReceivingWindowER8GUIStateb
uId:_HMAC_Initialize_m3157696427
_9j:___strchrnul
jW:__ZN13BaseAllocator13TryDeallocateEPv
fEf:_X509SubjectKeyIdentifierExtension__ctor_m2055934916
XUa:__ZNSt3__26vectorIN12FlareManager10FlareEntryENS_9allocatorIS2_EEE21__push_back_slow_pathIKS2_EEvRT_
U8j:_sprintf
gjc:__ZN9Scripting25CreateNullExceptionObjectE18ScriptingObjectPtr
qyf:_PrivateKeyInfo_DecodeRSA_m2889346634
TH:__ZN13AudioListener17RemoveFromManagerEv
Dd:_glAttachShader
txd:_ContentSizeFitter_SetLayoutHorizontal_m2833273874
xBh:_ReadOnlyCollection_1_System_Collections_IList_RemoveAt_m134366701_gshared
RY:__ZNK6Camera19GetProjectionMatrixEv
QHi:__ZL70InputField_t3762917431_CustomAttributesCacheGenerator_m_SelectionColorP21CustomAttributesCache
_ff:_InputField_SetToCustomIfContentTypeIsNot_m2813459946
Fvi:__ZL70RuntimePlatform_t4159857903_CustomAttributesCacheGenerator_FlashPlayerP21CustomAttributesCache
_6f:_Guid_GetHashCode_m3042133858_AdjustorThunk
M_:__Z38PreallocateObjectFromPersistentManagerib
eJf:_Interpreter_Backtrack_m2828876822
O3a:__ZNK9Texture2D20GetUnscaledTextureIDEv
GFd:_SByte_System_IConvertible_ToType_m4075253447
rzf:_StrongName_get_PublicKey_m1841537984
nlk:_glFenceSync__wrapper
Wyg:_Transform_INTERNAL_get_worldToLocalMatrix_m2730237241
ohf:_InputField_IsValidChar_m1928072643
T3a:__ZNK9Texture2D26CanReuploadDataToGfxDeviceEv
Xhi:__ZL63CodeAccessPermission_t2681295399_CustomAttributesCacheGeneratorP21CustomAttributesCache
ejb:__Z29ClearRepeatingLogMessageStatev
x_e:_InternalEnumerator_1_get_Current_m3191242573_gshared
C5d:_Byte_Equals_m1161982810_AdjustorThunk
hxc:__ZL35LoadMemoryBufferIntoTextureInternalR9Texture2DPKhj20LoadImageCompressionb
XGe:_SslCipherSuite_ComputeMasterSecret_m3963626850
DKa:__ZN7ApiGLESD2Ev
cSa:__ZN9Transform47ClearTransformHierarchyAndApplyToSerializedDataEv
yoc:__Z41Material_CUSTOM_Internal_CreateWithShaderP12Il2CppObjectS0_
mTa:__ZN6Camera23VirtualRedirectTransferER19StreamedBinaryWriteILb0EE
Lfk:dynCall_fidi
fDj:__ZN15dense_hashtableINSt3__24pairIK10KeyWrapperINS1_IPK9FieldInfoP11Il2CppClassEEEjEES9_17ReflectionMapHashIS8_EN14dense_hash_mapIS9_jSD_NS9_14EqualsComparerINS0_8equal_toIS8_EEEENS0_9allocatorISB_EEE9SelectKeyESI_SK_E12resize_deltaEjj
l4i:_GUILayoutEntry__ctor_m2229197035
X4:__ZN15dense_hashtableINSt3__24pairIKN9ShaderLab7Program23ShaderKeywordSetAndHashEPKNS2_10SubProgramEEES4_NS3_24ShaderKeywordHashFunctorEN14dense_hash_mapIS4_S8_SA_NS0_8equal_toIS4_EE13stl_allocatorIS9_L18MemLabelIdentifier67ELi16EEE9SelectKeyESD_SG_E15insert_noresizeERKS9_
$vg:_Renderer_set_material_m1157964140
j_a:__ZN13RenderTexture12SetDimensionE16TextureDimension
nHe:_SslClientStream_set_ClientCertSelectionDelegate_m1261530976
te:_SDL_FreeRW
ied:__Z34CanvasRenderer_Get_Custom_PropCullP12Il2CppObject
FN:__ZN20SoundChannelInstance8getDelayE14FMOD_DELAYTYPEPjS1_
m5:__ZNSt3__26vectorIN20GpuProgramParameters15StructParameterENS_9allocatorIS2_EEEC2ERKS5_
$Te:_ArrayReadOnlyList_1_Contains_m232667507_gshared
k9g:__Z77RuntimeInvoker_Boolean_t97287965_IntPtr_t_Int32_t2950945753_SByte_t1669577662PFvvEPK10MethodInfoPvPS4_
Fsg:_PlayableHandle_GetPlayableType_m432385838_AdjustorThunk
c6c:__ZNSt3__26vectorIN20TextRenderingPrivate8FontImpl13CharacterInfoE13stl_allocatorIS3_L18MemLabelIdentifier1ELi16EEE8__appendEj
v:tempBigInt
$gg:_Array_InternalArray__Insert_TisKeyframe_t4206410242_m1558638568_gshared
Be:_emscripten_glVertexAttrib1fv
Eja:__ZNSt3__26vectorIN9ShaderLab20SerializedSubProgram12UAVParameterENS_9allocatorIS3_EEE7reserveEj
Dck:__ZSt11__terminatePFvvE
jK:__ZN12AudioManager14systemCallbackEP11FMOD_SYSTEM24FMOD_SYSTEM_CALLBACKTYPEPvS3_
nGh:_ReadOnlyCollection_1_System_Collections_Generic_ICollectionU3CTU3E_Clear_m3451551308_gshared
evd:_BaseMeshEffect_OnEnable_m3291426649
SF:__ZN10SampleClip23VirtualRedirectTransferER24GenerateTypeTreeTransfer
vZa:__ZN16ReflectionProbes16UpdateSampleDataEv
o5f:_CultureInfo_GetCultureInfo_m56098747
eXb:__Z20AddActiveLocalLightsR11CullResultsR27LocalLightCullingParametersPPK15SharedLightDataPK8Vector4fRK9IndexListPfRSA_R12ActiveLightsSG_P5RectTIfEP13TargetEyeMask
n9h:__ZL80Hashtable_t1853889766_CustomAttributesCacheGenerator_Hashtable__ctor_m1763145853P21CustomAttributesCache
Lee:_Convert_ToDecimal_m1284148187
iyh:_Collection_1__ctor_m3489157029_gshared
Oik:_emscripten_glRenderbufferStorage__wrapper
rBj:__ZNK6il2cpp2vm14TypeNameParser10NextWillBeEcb
nXc:_cf2_getNormalizedVector
Ye:_JS_Sound_Play
kHh:_ReadOnlyCollection_1_System_Collections_IList_set_Item_m1538987737_gshared
jia:__ZN9ShaderLab16SerializedShader8TransferI14SafeBinaryReadEEvRT_
tCd:_GridLayoutGroup_set_constraint_m3308895167
LNe:_ConstructionCallDictionary_SetMethodProperty_m3145285304
_Md:_Int32_System_IConvertible_ToUInt32_m3557270157
fch:__Z243RuntimeInvoker_Void_t1185182177_Int16_t2552820387_RuntimeObject_Int32_t2950945753_Int32_t2950945753_Int32_t2950945753_SByte_t1669577662_SByte_t1669577662_SByte_t1669577662_SByte_t1669577662_Int16_t2552820387_SByte_t1669577662_SByte_t1669577662PFvvEPK10MethodInfoPvPS4_
UUe:_InternalEnumerator_1_System_Collections_IEnumerator_get_Current_m1503522504_gshared
OB:__ZN7mecanim8skeleton13SkeletonAlignEPKNS0_8SkeletonERKN4math7_float4ES7_i
Vac:__ZN19ShaderPropertySheet16SetVectorIndexedEN9ShaderLab16FastPropertyNameEifRK8Vector4fNS_8SetFlagsE
CIg:_Type_get_IsAbstract_m1120089130
cAg:_Vector3_get_normalized_m2454957984_AdjustorThunk
$2i:_UriFormatException__ctor_m1115096473
pLj:__ZN15dense_hashtableINSt3__24pairIK10KeyWrapperINS1_IP11Il2CppClassjEEES4_EES6_N6il2cpp8metadata14ArrayClassHashEN14dense_hash_mapIS6_S4_SB_NS6_14EqualsComparerINSA_17ArrayClassCompareEEENS0_9allocatorIS8_EEE9SelectKeyESF_SH_E9copy_fromERKSK_j
wfe:_Convert_ToInt32_m1085744762
W5i:_GUIUtility_IsExitGUIException_m3644066650
qV:__ZN11UnityEngine15CloudWebService14DataDispatcher4StopEv
gxd:_ColorBlock_GetHashCode_m4264192507
PKd:_Int16_System_IConvertible_ToUInt64_m134975563
Gja:__ZNSt3__26vectorIN9ShaderLab20SerializedSubProgram12UAVParameterENS_9allocatorIS3_EEE8__appendEj
Jyc:__ZN5IMGUI9GUIWindow5OnGUIER8GUIState
XQf:_Single_System_IConvertible_ToDecimal_m325860800_AdjustorThunk
Kfg:_Array_InternalArray__ICollection_CopyTo_TisSingle_t1397266774_m455540885_gshared
RNa:__ZN17ScriptingGCHandle7AcquireE18ScriptingObjectPtr25ScriptingGCHandleWeakness
ybh:__Z74RuntimeInvoker_RuntimeObject_RuntimeObject_Int64_t3736567304_RuntimeObjectPFvvEPK10MethodInfoPvPS4_
dcd:__ZN2UI14CanvasRenderer14AttachToCanvasER8JobFencePNS_6CanvasENS0_15InstructionTypeE
Cek:dynCall_iifiii
jza:__Z21HasAlphaTextureFormat13TextureFormat
oP:__ZN12AudioManager6UpdateEv
cza:__ZN14ImageReference9BlitImageERKS_NS_8BlitModeE
qt:__ZN8Animator12AddToManagerEv
aHf:_X509Chain__ctor_m2674663382
oGh:_ReadOnlyCollection_1_System_Collections_Generic_IListU3CTU3E_Insert_m1121807192_gshared
XGb:__ZN23CachedSerializationDataD2Ev
bZb:__ZNK25CameraStackRenderingState31CalculateStereoCameraTargetTypeEv
XYa:__ZN14RenderSettings23VirtualRedirectTransferER14SafeBinaryRead
F1e:_InternalEnumerator_1_get_Current_m114240259_gshared
OOc:__ZNK13b2CircleShape5CloneEP16b2BlockAllocator
JXj:__ZN6il2cpp2os10ThreadImpl15CurrentThreadIdEv
jhg:_Array_InternalArray__Insert_TisVector2_t2156229523_m2148694950_gshared
nNf:_SymmetricAlgorithm_get_Key_m3241860519
sif:_U3CMouseDragOutsideRectU3Ec__Iterator1_Reset_m2233410497
Kff:_InputField_set_customCaretColor_m720445789
N3c:_UNITY_tt_face_load_fpgm
YRa:__Z17IsObjectAvailablei
neb:__ZN12InputManagerD0Ev
L1h:_Queue_1_Peek_m1713833142_gshared
nFg:_ExecutionContext_Capture_m681135907
kWe:_InternalEnumerator_1_System_Collections_IEnumerator_get_Current_m2889979481_AdjustorThunk
xbk:_posix_memalign
kwf:_ASN1_GetBytes_m3305539297
Q_:__ZNK15MonoScriptCache7ReleaseEv
Wpj:__ZN6il2cpp2vm5Class13HasReferencesEP11Il2CppClass
lg:_glBindTexture
L9j:_snprintf
Kih:__Z50RuntimeInvoker_RuntimeObject_Resources_t1597885468PFvvEPK10MethodInfoPvPS4_
ekk:_emscripten_glVertexAttrib1fv__wrapper
Ekb:__Z36scripting_liveness_calculation_begin17ScriptingClassPtriPFvPP12Il2CppObjectiPvES3_PFvvES7_
mej:_AudioExtensionManager_RemoveExtensionFromManager_m442924172
Cik:_emscripten_glGetProgramInfoLog__wrapper
nE:__ZN25AnimatedPropertyEvaluator29BindCurveToScriptingObjectPtrERKN13AnimationClip10FloatCurveEj18ScriptingObjectPtrb
N0:__ZN17PersistentManager23DestroyFromFileInternalEi
Qlg:_Display__ctor_m501911701
YCh:_ReadOnlyCollection_1_System_Collections_Generic_IListU3CTU3E_Insert_m1020890112_gshared
ryd:_DefaultControls_SetDefaultTextValues_m1943359795
mSb:__Z19SetupMotionMatricesR6CameraR18RPDataMotionVector
Smj:__ZL7log2_64y
iD:__ZN26AnimatorControllerPlayable18PrepareForPlaybackERN7mecanim6memory9AllocatorE
GD:__ZN8Animator11AnimatorJob11AddPlayableEP17AnimationPlayablef
oCd:_GridLayoutGroup_get_cellSize_m2967185053
AVf:_CurrentSystemTimeZone_GetUtcOffset_m340358963
kWi:_PKCS12_Decrypt_m1280162536
nnj:_CustomEventData_AddChar_m2745147926
tWe:_InternalEnumerator_1_get_Current_m3081223448_gshared
D3i:_Event_get_isMouse_m1058251071
FXa:__ZN10VertexDataC2ERKS_17ShaderChannelMask10MemLabelId
bae:_CaseInsensitiveHashCodeProvider_AreEqual_m1790260777
u_c:_otv_JSTF_validate
p5:__ZN22CreateGpuProgramOutputC2Ev
$mg:_PersistentCallGroup_Initialize_m4253175514
R3d:_Boolean_System_IConvertible_ToChar_m4279513009_AdjustorThunk
pAf:_DictionaryNodeEnumerator__ctor_m1005316675
WNe:_LogicalCallContext__ctor_m1263247987
cMd:_NumberFormatter_ScaleOrder_m3813786990
Wsc:_UNITY_png_set_text_2
ryf:_PrivateKeyInfo_DecodeDSA_m771724585
yEj:__ZNK15dense_hashtableINSt3__24pairIK10KeyWrapperINS1_IPK10MethodInfoP11Il2CppClassEEEjEES9_17ReflectionMapHashIS8_EN14dense_hash_mapIS9_jSD_NS9_14EqualsComparerINS0_8equal_toIS8_EEEENS0_9allocatorISB_EEE9SelectKeyESI_SK_E23find_position_with_hashERSA_j
Ngd:__Z38CustomEventData_CUSTOM_InternalDestroyP12Il2CppObject
Pbc:__ZN8GUILayer12CleanupClassEv
kLg:_UInt32_System_IConvertible_ToSByte_m1061556466
LKe:_WellKnownClientTypeEntry__ctor_m2471908952
Vpj:__ZN6il2cpp2vm5Class4InitEP11Il2CppClass
ha:invoke_vidi
x0a:__ZN8Material17MainThreadCleanupEv
PIe:_RemotingServices_CreateClientProxyForContextBound_m783705199
ugc:__ZNK15GUIEventManager15GetEventAtIndexEi
ucd:__ZN2UI14CanvasRenderer17SyncDirtyElementsER8JobFence
W6e:_Enumerator_System_Collections_IEnumerator_get_Current_m3816090481_gshared
N_j:__ZN6il2cpp5utils11StringUtils15StringDuplicateEPKc
oUg:_DefaultComparer_Equals_m2480133610_gshared
G4:__ZNK9ShaderLab21ShaderRasterStateDesc16ToGfxRasterStateEPK19ShaderPropertySheetS3_R14GfxRasterState
dQi:_Array_Sort_TisVector3_t3722313464_m1915176437_gshared
S7j:__ZN6il2cpp2os9EventImplC2Ebb
uXh:_List_1_get_Item_m2113769949_gshared
ilf:_MaskableGraphic_OnTransformParentChanged_m329502413
F5:__Z20IsMatrixBuiltinParamPKcPi
GOf:_String_memcpy4_m979367827
rDg:_UnicodeEncoding_GetBytesInternal_m1902824297
Cac:__ZN8Renderer19PostInitializeClassEv
icg:_Array_FindIndex_TisRuntimeObject_m2504082708_gshared
bYi:_X509Chain_FindCertificateRoot_m1937726457
f4j:__ZN6il2cpp6icalls8mscorlib6System8Delegate23CreateDelegate_internalEP20Il2CppReflectionTypeP12Il2CppObjectP22Il2CppReflectionMethodb
X7e:_Enumerator_System_Collections_IEnumerator_get_Current_m921113401_AdjustorThunk
gYb:__ZNK13RendererScene22GetStaticBoundingBoxesEv
pGb:__ZN18DelayedCallManager18CancelCallDelayed2E4PPtrI6ObjectEPF15CallObjectStatePS1_PvES7_
dqg:_Matrix4x4_GetHashCode_m4034747639
FLa:__ZN25ThreadsafeLinearAllocator10ReallocateEPvji
qqb:__Z18Transfer_BlittableI14SafeBinaryReadLb1E11QuaternionfEvRK29SerializationCommandArgumentsR31RuntimeSerializationCommandInfo
Dha:__ZN18SpriteAtlasManagerD0Ev
bbb:__ZN10Matrix4x4f8TransferI14SafeBinaryReadEEvRT_
GGd:_CryptographicUnexpectedOperationException__ctor_m2381988196
PHj:__ZN14dense_hash_mapI10KeyWrapperIPK22Il2CppGenericParameterEPK24MonoGenericParameterInfoN6il2cpp5utils11PointerHashIS2_EENS4_14EqualsComparerINSt3__28equal_toIS3_EEEENSD_9allocatorINSD_4pairIKS4_S7_EEEEE15set_deleted_keyERSJ_
cD:__ZN14AvatarPlayback8StopTimeEv
YYe:_InternalEnumerator_1_System_Collections_IEnumerator_get_Current_m4213507601_gshared
gca:__Z6AppendRKN4core12basic_stringIcNS_20StringStorageDefaultIcEEEEPKc
P5i:_GUIUtility_RemoveCapture_m1294193818
dva:__ZN7ApiGLES18ClearBufferSubDataEjN2gl12BufferTargetEll
Skc:__Z37Camera_Get_Custom_PropAllCamerasCountv
y9a:__ZN14Texture2DArray8TransferI18StreamedBinaryReadILb0EEEEvRT_
nWb:__Z18ApplyOcclusionMaskR19ProbeOcclusionCacheRK17LightProbeContextRK10RenderNodeb
o5c:_Split_Cubic
gb:invoke_fiiii
Rhf:_InputField_OnSubmit_m3583210804
m2i:_Uri_CheckHostName_m2213216182
bkk:_emscripten_glBindRenderbuffer__wrapper
URi:_Mesh_SetUvsImpl_TisVector2_t2156229523_m3009194955_gshared
aNg:_ValueType_InternalEquals_m1384040357
fQi:_Array_Sort_TisVector4_t3319028937_TisVector4_t3319028937_m4254533673_gshared
m8d:_ArrayListWrapper_Contains_m2641184447
a5c:_ft_black_render
H8g:__Z177RuntimeInvoker_Int32_t2950945753_RuntimeObject_Int32_t2950945753_Int32_t2950945753_RuntimeObject_Int32_t2950945753_EncoderFallbackBufferU26_t2343550713_CharU5BU5DU26_t3299466565PFvvEPK10MethodInfoPvPS4_
Tfk:dynCall_viiifi
NDa:__ZN18GfxFramebufferGLES20ActiveContextChangedEPP17RenderSurfaceBaseS2_
EDa:__Z19PluginsRenderMarkeri
WE:__ZN10HumanTrait18InitializeBoneNameEv
Nja:__ZNSt3__26vectorIN9ShaderLab20SerializedSubProgram15StructParameterENS_9allocatorIS3_EEE6assignINS_11__wrap_iterIPS3_EEEENS_9enable_ifIXaasr21__is_forward_iteratorIT_EE5valuesr16is_constructibleIS3_NS_15iterator_traitsISC_E9referenceEEE5valueEvE4typeESC_SC_
eTj:__ZNSt3__214__split_bufferIN6il2cpp2vm5Image20EmbeddedResourceDataERNS_9allocatorIS4_EEEC2EjjS7_
xH:__ZN12AudioManager17RemoveAudioSourceEP11AudioSource
kGf:_X509Certificate2Collection_Add_m3151757943
x5e:_Comparer_1__cctor_m951016718_gshared
fae:_CaseInsensitiveHashCodeProvider_get_DefaultInvariant_m4264275163
Z8g:__Z195RuntimeInvoker_Int32_t2950945753_RuntimeObject_Int32_t2950945753_Int32_t2950945753_Int32_t2950945753_RuntimeObject_DecoderFallbackBufferU26_t3866396827_ByteU5BU5DU26_t4057885439_SByte_t1669577662PFvvEPK10MethodInfoPvPS4_
$Q:__ZN5physx14PxLightCpuTask12addReferenceEv
EOc:__Z10b2DistanceP16b2DistanceOutputP14b2SimplexCachePK15b2DistanceInput
Kmh:__Z86RuntimeInvoker_Int32_t2950945753_Color32_t2600501292_Color32_t2600501292_RuntimeObjectPFvvEPK10MethodInfoPvPS4_
a6a:__ZN21EnlightenSceneMapping8TransferI19StreamedBinaryWriteILb0EEEEvRT_
VUj:__ZN6il2cpp2gc16GarbageCollector19InitializeFinalizerEv
dz:__ZN7mecanim8skeleton18CreateSkeletonMaskEjPKNS0_19SkeletonMaskElementERNS_6memory9AllocatorE
oyc:__ZN10GUIManager10DoGUIEventER10InputEventb
iwb:__Z35Transfer_Blittable_FixedBufferFieldI24GenerateTypeTreeTransferxEvRK29SerializationCommandArgumentsR31RuntimeSerializationCommandInfo
i$c:_otv_LangSys_validate
Uug:_RectOffset_get_right_m2294081512
yhg:_Array_InternalArray__set_Item_TisLink_t544317964_m1234244240_gshared
T3c:_UNITY_TT_Init_Glyph_Loading
nRb:__Z20CalculateSqrDistanceRK8Vector3fRK4AABB
lEd:_SerializationInfo_GetBoolean_m1756153320
WL:__Z32AudioMixerDuckingProcessCallbackP21UnityAudioEffectStatePfS1_jii
Iqg:_Mesh_get_uv2_m3615020997
G9b:__ZN26CustomRenderTextureManagerD2Ev
oVg:_EqualityComparer_1_System_Collections_IEqualityComparer_Equals_m4172006498_gshared
pI:__ZN12AudioManager8TransferI24GenerateTypeTreeTransferEEvRT_
Rpg:_Mathf_Round_m4098141538
hya:__Z25GetBytesFromTextureFormat13TextureFormat
uOj:__ZN6il2cpp6icalls8mscorlib6System9Threading6Thread20Thread_free_internalEP12Il2CppThreadi
Ndk:dynCall_iiffi
dBf:__KeysEnumerator_get_Current_m2996478063
gE:__ZN16MecanimAnimation25RegisterIAnimationBindingEPKN5Unity4TypeEiP17IAnimationBinding
D0:__Z32scripting_class_get_assemblyname17ScriptingClassPtr
eid:__ZN11UnityEngine15PlatformWrapper15GetVRDeviceNameEv
xih:__Z99RuntimeInvoker_Boolean_t97287965_Int32_t2950945753_PointerEventDataU26_t867828220_SByte_t1669577662PFvvEPK10MethodInfoPvPS4_
EXe:_InternalEnumerator_1_get_Current_m2128158355_AdjustorThunk
HJa:__ZN9GfxDevice21RegisterNativeTextureE9TextureIDi16TextureDimension
$Ad:_GraphicRegistry__ctor_m1851575309
v5j:__ZN6il2cpp6icalls8mscorlib6System10Reflection4Emit11TypeBuilder20create_generic_classEP27Il2CppReflectionTypeBuilder
aMf:_SHA1Internal_FillBuff_m3615718415
U9f:_PlayableHandle_IsPlayableOfType_TisAnimationLayerMixerPlayable_t3631223897_m201603007_gshared
GQ:__Z60Register_UnityEngine_AudioListener_GetNumExtensionPropertiesv
fj:_emscripten_glUniformMatrix4fv
ELj:__ZN15dense_hashtableINSt3__24pairIK10KeyWrapperINS1_IP11Il2CppClassjEEES4_EES6_N6il2cpp8metadata14ArrayClassHashEN14dense_hash_mapIS6_S4_SB_NS6_14EqualsComparerINSA_17ArrayClassCompareEEENS0_9allocatorIS8_EEE9SelectKeyESF_SH_E13set_empty_keyERKS8_
jlb:__ZN12ScriptMapperD2Ev
Kmk:b100
Lqg:_Mesh_get_colors32_m1253190811
w1j:_GC_stopped_mark
Jhg:_AnimationCurve_Finalize_m2397002729
Vrf:_Text_OnEnable_m616205807
$sh:__Z50RuntimeInvoker_RuntimeObject_ColorTween_t809614380PFvvEPK10MethodInfoPvPS4_
cTe:_SerializationCallbacks__cctor_m1674315180
Cpc:__Z52Register_UnityEngine_RenderTexture_Internal_GetWidthv
q2j:_GC_check_leaked
Nma:__ZN9ShaderLab20SerializedSubProgram16TextureParameter8TransferI19StreamedBinaryWriteILb0EEEEvRT_
iLa:__ZNK7Hash12812PackToUInt32Ev
n9d:_SynchronizedArrayListWrapper_IndexOf_m3642674350
q2:__ZNSt3__227__insertion_sort_incompleteIRNS_6__lessI14ObjectLoadDataS2_EEPS2_EEbT0_S6_T_
yV:__ZN11UnityEngine15CloudWebService16SessionContainer8AddEventEPNS0_14CloudEventInfoE
wIa:__Z4TrimRKN4core12basic_stringIcNS_20StringStorageDefaultIcEEEES5_
xRc:__ZN13dynamic_arrayIN19CompositeCollider2D11SubColliderELj4EE12emplace_backEv
iRi:_Dictionary_2_Do_ICollectionCopyTo_TisKeyValuePair_2_t3842366416_m1399105608_gshared
wFf:_X509Certificate2_Import_m4026562329
j9e:_Enumerator_System_Collections_IEnumerator_get_Current_m2763095718_AdjustorThunk
llk:_glGetStringi__wrapper
Y7a:__ZN10VertexData8TransferI14SafeBinaryReadEEvRT_
FJ:__ZN4FMOD8ChannelI8setDelayE14FMOD_DELAYTYPEjj
k3j:_GC_malloc_atomic
Hwe:_ActivatedClientTypeEntry_ToString_m2494181680
nZg:_HashSet_1_GetEnumerator_m3346268098_gshared
U5j:__ZN6il2cpp5utils6Memory13AlignedMallocEjj
Xhf:_Selectable_get_animator_m2899312855
GZ:__ZL20SortItemByInstanceIDRKN18AwakeFromLoadQueue4ItemES2_
Kzg:_Vector2_op_Multiply_m2347887432
vBf:_TypeConverterAttribute__ctor_m1774069684
oz:__ZNK34AnimationStateMachineMixerPlayable26GetInterruptedPosePlayableEv
Xkd:__ZN20UnityConnectSettings8TransferI24GenerateTypeTreeTransferEEvRT_
pB:__ZN34BlobWriteTransferSTLStyleArrayImplI22OffsetPtrArrayTransferIbEEclERS1_17TransferMetaFlagsR9BlobWrite
F_d:_Byte_ToString_m4063101981
GXd:_MonoType_GetConstructors_m2574682189
rwg:_SceneManager_LoadSceneAsyncNameIndexInternal_m4031498323
fCf:_ServicePointManager_FindServicePoint_m4119451290
Mda:__ZL31InitializeRendererUpdateManagerPv
qke:_ParameterInfo__ctor_m2779026345
Rff:_InputField_set_onValueChange_m1251390545
fdd:__ZN2UI13CanvasManager14GetRenderOrderEPKNS_6CanvasE
_Yd:_NumberFormatter_get_IsZeroInteger_m2263284741
xUi:_X509Certificate_PEM_m2020851166
vgg:_Array_InternalArray__Insert_TisDateTime_t3738529785_m2308632330_gshared
Xeb:__ZN11TimeManager8TransferI19StreamedBinaryWriteILb0EEEEvRT_
tFe:_TlsServerCertificateRequest_ProcessAsTls1_m3214041063
E$c:_compare_uni_maps
Rid:__ZN11UnityEngine15PlatformWrapper27GetGraphicsCapsSupportFlagsEv
jRi:_Dictionary_2_Do_ICollectionCopyTo_TisRuntimeObject_m3695543300_gshared
Lzb:__ZN12NativeBufferI16Converter_StringE15SetupForWritingER9ArrayInfo
Wga:__ZN13RuntimeStaticI18AssetBundleManagerLb1EE16StaticInitializeEPv
Dhk:___cxa_end_catch__wrapper
b7d:_Char_ToString_m278452217
P0g:__Z32RuntimeInvoker_Boolean_t97287965PFvvEPK10MethodInfoPvPS4_
Oxe:_BigInteger_op_RightShift_m460065452
_Gb:__ZN13MonoBehaviour22DoScriptRebuildWarningEv
Ukc:__Z38Camera_CUSTOM_INTERNAL_CALL_RaycastTryP12Il2CppObjectRK3Rayfi
B9c:__Z38TextGenerator_Get_Custom_PropLineCountP12Il2CppObject
dUi:_InternalAsyncResult_SetComplete_m963842420
MBg:_Encoding_GetEncoding_m2801244948
qzc:__ZN11IMGUIModule25GetGUIStyleScriptingClassEv
g2c:_tt_get_interface
jIe:_SslStreamBase_EndRead_m495357226
fOj:__ZN6il2cpp5utils9PathUtils7CombineIcEENSt3__212basic_stringIT_NS3_11char_traitsIS5_EENS3_9allocatorIS5_EEEERKSA_SC_
_Ec:__ZN9JSONWrite8TransferI13dynamic_arrayIiLj4EEEEvRT_PKc17TransferMetaFlags
qbh:__Z64RuntimeInvoker_RuntimeObject_SByte_t1669577662_SByte_t1669577662PFvvEPK10MethodInfoPvPS4_
Rdc:__ZN13PlayableGraph21InvalidateMultithreadEv
k$g:_Enumerator_System_Collections_IEnumerator_get_Current_m713684915_AdjustorThunk
OXg:_GenericComparer_1_Compare_m459680062_gshared
Vle:_EnumBuilder_GetConstructorImpl_m3068576149
o$:__Z18ConvertUTF16toUTF8PPKtS0_PPhS2_15ConversionFlags
dZj:__ZN6il2cpp2os20PathErrnoToErrorCodeERKNSt3__212basic_stringIcNS1_11char_traitsIcEENS1_9allocatorIcEEEEi
GHi:__ZL68InputField_t3762917431_CustomAttributesCacheGenerator_m_KeyboardTypeP21CustomAttributesCache
mhc:__Z24GetActualTargetFrameRatev
Fmj:__ZL16my_g_bit_nth_msfj
Ami:__ZL65NonSerializedAttribute_t2945079482_CustomAttributesCacheGeneratorP21CustomAttributesCache
g1h:_Enumerator_MoveNext_m3662315381_AdjustorThunk
bFe:_TlsClientFinished_ProcessAsTls1_m2429863130
zPb:__Z23SetupStereoFlareElementP11FlareVertexRK8Vector2fS3_S3_RK11ColorRGBA32RK10Matrix4x4fRK8Vector3fb
ua:invoke_iiiifiiii
iFb:__ZNSt3__224__buffered_inplace_mergeIRN10vector_mapI17ScriptingClassPtrPKN5Unity4TypeENS_4lessIS2_EENS_9allocatorINS_4pairIS2_S6_EEEEE13value_compareENS_11__wrap_iterIPSB_EEEEvT0_SJ_SJ_T_NS_15iterator_traitsISJ_E15difference_typeESN_PNSM_10value_typeE
ETf:_String_Join_m2050845953
jbf:_ShimEnumerator_MoveNext_m2406150314_gshared
GEa:__ZL19BlitFramebufferImplRN4gles23BlitFramebufferDrawQuadER9GfxDevice9TextureIDRK8Vector4f
IDj:__ZN15dense_hashtableINSt3__24pairIK10KeyWrapperIPK10Il2CppTypeEjEES6_N6il2cpp8metadata14Il2CppTypeHashEN14dense_hash_mapIS6_jSB_NS6_14EqualsComparerINSA_26Il2CppTypeEqualityComparerEEENS0_9allocatorIS8_EEE9SelectKeyESF_SH_E4findERS7_
zek:dynCall_viiiiiiiiiiiiii
x3c:_UNITY_FT_List_Add
eac:__ZN14Texture2DArray11InitTextureEiii13TextureFormatb
wVi:_X509Extension__ctor_m1474351312
_Mh:_InvokableCall_1_Invoke_m1524307439_gshared
PPd:_Directory_CreateDirectoriesInternal_m3735342319
fkf:_LayoutUtility_GetLayoutProperty_m3731360667
EIj:__ZN15dense_hashtableINSt3__24pairIK10KeyWrapperINS1_IPK11Il2CppImageP11Il2CppClassEEEjEES9_17ReflectionMapHashIS8_EN14dense_hash_mapIS9_jSD_NS9_14EqualsComparerINS0_8equal_toIS8_EEEENS0_9allocatorISB_EEE9SelectKeyESI_SK_E14squash_deletedEv
cNf:_SHAConstants__cctor_m1699027474
IY:__ZNK6Camera26GetStereoSingleCullEnabledEv
bib:__Z14resize_trimmedINSt3__26vectorIN4core12basic_stringIcNS2_20StringStorageDefaultIcEEEE13stl_allocatorIS6_L18MemLabelIdentifier13ELi16EEEEEvRT_j
_qb:__Z18Transfer_BlittableI14SafeBinaryReadLb0EaEvRK29SerializationCommandArgumentsR31RuntimeSerializationCommandInfo
f7d:_CharEnumerator_System_Collections_IEnumerator_get_Current_m1328529384
Ogk:_emscripten_glFrustum__wrapper
Qlj:_AnimationLayerMixerPlayable__ctor_m860721801
b4c:_UNITY_FT_List_Iterate
A6d:_Char_System_IConvertible_ToUInt64_m3536560782
FUg:_EqualityComparer_1__cctor_m3452395357_gshared
eOb:__Z20SyncFenceCullResultsR11CullResults
iHa:__ZN15TextureTFMethod20IsBoneCountSupportedEi
L1f:_Double_ToString_m3828879243_AdjustorThunk
tvb:__Z22TransferField_NonArrayI17RemapPPtrTransfer27Converter_SimpleNativeClassI8GUIStyleEEvRK23StaticTransferFieldInfoR31RuntimeSerializationCommandInfoRT0_
cVd:_TextReader_Synchronized_m3004980758
s3b:__ZNK17AnimationCurveTplIfE20EvaluateWithoutCacheEfRf
lgh:__Z67RuntimeInvoker_Boolean_t97287965_Rect_t2360479859_SByte_t1669577662PFvvEPK10MethodInfoPvPS4_
nZa:__ZN19ShaderPropertySheet10SetTextureERK23FastTexturePropertyNameP7Texture
oje:_CustomAttributeData__ctor_m2966233049
iwd:_CanvasUpdateRegistry_PerformUpdate_m1793997159
rEe:_Context_set_ClientWriteIV_m3405909624
Vfc:__ZN4Mesh10SetNormalsEPK8Vector3fj
rVc:__Z66Register_UnityEngine_Physics2D_INTERNAL_CALL_GetRayIntersectionAllv
L6i:_AesManaged_CreateDecryptor_m692040246
Ks:__ZN17AnimationCurveTplIfE8TransferI14SafeBinaryReadEEvRT_
uNi:_Array_InternalArray__set_Item_TisInt16_t2552820387_m2544074754_gshared
U0d:_ArithmeticException__ctor_m3551809662
d3b:__Z46CleanupLineParametersAnimationBindingInterfacev
oQd:_MonoIO_ExistsDirectory_m2182482658
K0b:__Z29StdTemplateConversionFunctionIybEbPvR14SafeBinaryRead
x6a:__ZNSt3__26vectorIN15QualitySettings14QualitySettingENS_9allocatorIS2_EEE6assignIPS2_EENS_9enable_ifIXaasr21__is_forward_iteratorIT_EE5valuesr16is_constructibleIS2_NS_15iterator_traitsIS9_E9referenceEEE5valueEvE4typeES9_S9_
f:HEAPU32
HRh:_List_1_CheckCollection_m1671972112_gshared
O8e:_Enumerator_System_Collections_IEnumerator_get_Current_m1747693366_gshared
DDg:_UnicodeEncoding_GetPreamble_m3002287178
Rdj:_AudioSource_get_spatialize_m3609701298
Qfh:__Z52RuntimeInvoker_Color_t2555686324_Color32_t2600501292PFvvEPK10MethodInfoPvPS4_
koa:__ZN20GpuProgramParameters14AddVectorParamEPKcii15ShaderParamTypeiiiP16PropertyNamesSet
Tmd:__ZNK12HeaderHelper3GetERKN4core12basic_stringIcNS0_20StringStorageDefaultIcEEEE
Deb:__ZN9InputAxis8TransferI14SafeBinaryReadEEvRT_
$Z:__ZNK21ExecutionOrderManager30GetCustomAwakeFromLoadQueueForEPKN5Unity4TypeE
kmd:__Z27RegisterModule_UnityConnectv
JSd:_MemoryStream_Expand_m3554752073
$Gj:__ZN6il2cpp2vm10Reflection27GetCustomAttributesCacheForEP25Il2CppReflectionParameter
Dwg:_ScriptableObject_CreateInstance_m2611081756
nRe:_ObjectRecord_get_IsInstanceReady_m2304516395
E1e:_InternalEnumerator_1_System_Collections_IEnumerator_get_Current_m1635397542_gshared
oTd:_Path__cctor_m3273994011
l7i:_AnalyticsEventTracker__ctor_m3064238498
Jck:__ZNSt11logic_errorD2Ev
sWf:_DateTimeUtils_CountRepeat_m3396693018
xTc:__ZNK17Physics2DSettings22GetTypeVirtualInternalEv
pjk:_glBindRenderbuffer__wrapper
ZK:__ZN10ObjectPoolIN4FMOD12ChannelGroupENS0_13ChannelGroupIEE7SetSizeEi
w6i:_SymmetricTransform_FinalDecrypt_m764004682
PXj:__ZN6il2cpp2os10ThreadImpl33UnregisterCurrentThreadForCleanupEv
g$i:_Parser_ParseGroupingConstruct_m263270497
q6b:__ZN9Polygon2D7SetPathEiRK13dynamic_arrayI8Vector2fLj4EE
KIj:__ZN14dense_hash_mapI10KeyWrapperINSt3__24pairIPK9EventInfoP11Il2CppClassEEEj17ReflectionMapHashIS8_ENS9_14EqualsComparerINS1_8equal_toIS8_EEEENS1_9allocatorINS2_IKS9_jEEEEE15set_deleted_keyERSH_
ux:__ZN27AnimationLayerMixerPlayable22PrepareAnimationEventsEfR13dynamic_arrayI22AnimationClipEventInfoLj4EE
Ksb:__Z14resize_trimmedINSt3__26vectorI17AnimationCurveTplIfE13stl_allocatorIS3_L18MemLabelIdentifier1ELi16EEEEEvRT_j
$Yb:__ZN25CameraStackRenderingState19SetupLastEyeCamerasERK11CameraStack
HQa:__Z12GUIDToStringRK9UnityGUID
PGe:_RSASslSignatureDeformatter_SetKey_m2204705853
WG:__ZN11SoundHandleC2ERKS_
Ft:__ZN17AnimationPlayableC2E18DirectorPlayerType
Zef:_InputField_set_shouldHideMobileInput_m1650743574
hvj:__ZNK6il2cpp5utils11collections13ArrayValueMapIPK10Il2CppType17Il2CppInteropData26InteropDataToTypeConverterNS_8metadata14Il2CppTypeLessENS8_26Il2CppTypeEqualityComparerEE10find_firstERKS5_
lRd:_FileStream_get_CanSeek_m331583577
JHd:_DSAParameters_t1885824122_marshal_pinvoke_back
Uz:__ZN8Animator22OnGraphTopologyChangedEP8Playablei
Gvf:_Kernel_MultiplyByDword_m1266935086
B_j:__ZN4utf89unchecked8utf8to16INSt3__220back_insert_iteratorINS2_12basic_stringIDsNS2_11char_traitsIDsEENS2_9allocatorIDsEEEEEEPKcEET_T0_SE_SD_
Ife:_Convert_ToInt64_m3916071102
J_b:__ZN6Camera25StandaloneRenderToCubemapEP7TextureiPFvPK9SceneNodePK4AABBR9IndexListPvESA_j
BSf:_String_Trim_m3384720403
$Ya:__ZN14RenderSettings18TransferDeprecatedI14SafeBinaryReadEEvRT_
e9g:__Z93RuntimeInvoker_Single_t1397266774_SingleU26_t1922108698_Single_t1397266774_Single_t1397266774PFvvEPK10MethodInfoPvPS4_
m3i:_Event__ctor_m526447123
nch:__Z88RuntimeInvoker_RuntimeObject_RuntimeObject_RuntimeObject_RuntimeObject_Int32_t2950945753PFvvEPK10MethodInfoPvPS4_
AJg:_Type_ToString_m3975981286
TZ:__ZN12TLSAllocatorI14StackAllocatorE8AllocateEji
U$:__ZN16ScriptingManager18GetMonoScriptCacheEi
asi:__ZL90LineRenderer_t3154350270_CustomAttributesCacheGenerator_LineRenderer_SetColors_m2426480585P21CustomAttributesCache
u$i:_ExpressionAssertion__ctor_m2554412824
UOi:_Array_Resize_TisCustomAttributeTypedArgument_t2723150157_m3021884250_gshared
b_g:_Enumerator_System_Collections_IEnumerator_get_Current_m2237476582_gshared
frb:__Z18Transfer_BlittableI14SafeBinaryReadLb1EyEvRK29SerializationCommandArgumentsR31RuntimeSerializationCommandInfo
LYd:_NullReferenceException__ctor_m3076065613
WBc:__ZN8JSONRead8TransferIfEEvRT_PKc17TransferMetaFlagsb
Jna:__ZN9ShaderLab7Program22ComputeSupportsShadowsEv
iEf:_X509SubjectKeyIdentifierExtension_Decode_m1505409124
Vna:__ZL23AddGpuProgramParametersR20GpuProgramParametersRKNSt3__26vectorIN9ShaderLab20SerializedSubProgram15MatrixParameterENS1_9allocatorIS5_EEEERKNS2_INS4_15VectorParameterENS6_ISB_EEEEiiP16PropertyNamesSet
yBa:__ZN6prcoreL17RemapGenericFloatI18TexFormatARGBFloat17TexFormatRGBAHalfEEvPKNS_9InnerInfoE
i7i:_AnalyticsEventParamListContainer__ctor_m1995104893
eSf:_String_System_IConvertible_ToUInt16_m2888090399
GM:__ZN11AudioSource21ApplyCachedParametersE12SoundChannel
fie:_Assembly_InternalGetType_m3065345470
$ue:_ResourceSet__ctor_m3356376607
Xxe:_PrimeGeneratorBase_get_PrimalityTest_m2487240563
fei:__ZL56_ParameterInfo_t489405856_CustomAttributesCacheGeneratorP21CustomAttributesCache
C5a:__ZN15SerializeTraitsI33EnlightenTerrainChunksInformationE8TransferI14SafeBinaryReadEEvRS0_RT_
uMc:__ZN6b2Body12SetTransformERK6b2Vec2f
Sac:__ZNK32RendererMaterialAnimationBinding9BindValueER6ObjectRKN11UnityEngine9Animation14GenericBindingERNS3_10BoundCurveE
Ecf:_Transform_1_Invoke_m1731820209_gshared
WZa:__Z13GetIAnimationv
Hza:__ZL18stbir__support_onef
xRf:_Single_CompareTo_m189772128
HDc:__Z26Transfer_UnityEngineObjectI9JSONWriteLb0EEvRK29SerializationCommandArgumentsR31RuntimeSerializationCommandInfo
T3e:_DefaultComparer_Compare_m4042058291_gshared
XCd:_Image_set_overrideSprite_m3213596394
i1a:__ZNSt3__26vectorIN4core12basic_stringIcNS1_20StringStorageDefaultIcEEEE13stl_allocatorIS5_L18MemLabelIdentifier1ELi16EEE6assignINS_11__wrap_iterIPS5_EEEENS_9enable_ifIXaasr21__is_forward_iteratorIT_EE5valuesr16is_constructibleIS5_NS_15iterator_traitsISF_E9referenceEEE5valueEvE4typeESF_SF_
Cbd:__ZNSt3__27__sort5IRNS_6__lessIN2UI14DepthSortEntryES3_EEPS3_EEjT0_S7_S7_S7_S7_T_
YQd:_FileLoadException_ToString_m2989457882
hej:_AudioListener_ClearExtensionProperties_m3849891634
WWc:_UNITY_FT_DivFix
vSi:_Array_InternalArray__get_Item_TisDecimal_t2948259380_m3511003792_gshared
SOf:_SecurityElement_IsValidAttributeValue_m948345692
PVc:__ZN19ControllerHitReport15onControllerHitERKN5physx16PxControllersHitE
Da:invoke_vdd
Nn:FUNCTION_TABLE_fiii
nVd:_TextWriter_Write_m2252948084
gdc:__Z19RegisterModule_Corev
j9b:__ZNK30SpriteRendererAnimationBinding12GetPPtrValueERKN11UnityEngine9Animation10BoundCurveE
f9c:__ZZ29InitializeTextRenderingModulevEN27cleanupAfterLoadRegistrator7ForwardEv
lmb:__ZNSt3__26__sortIRPFbRK23TransformAccessReadOnlyS3_EPS1_EEvT0_S8_T_
C3f:_CCFixed_FromDateTime_m3894190577
OYb:__Z29PluginsIssueRenderingExtEvent26UnityRenderingExtEventTypePv
d4g:__Z116RuntimeInvoker_RuntimeObject_RuntimeObject_Int32_t2950945753_RuntimeObject_RuntimeObject_RuntimeObject_RuntimeObjectPFvvEPK10MethodInfoPvPS4_
RRe:_MessageFormatter_ReadMethodCall_m2327590823
T9b:__Z14RandomRotationP9Texture2DPhiiii
Heg:_Array_InternalArray__ICollection_Add_TisUInt16_t2177724958_m3981262878_gshared
z_f:_Decimal_GetBits_m453754410
kZg:_HashSet_1_Contains_m3173358704_gshared
c9i:_ToggleEvent__ctor_m834619998
Uze:_PKCS1_Encode_v15_m2077073129
Sug:_RectOffset_get_left_m1232181034
uj:_JS_WebRequest_SetResponseHandler
Ymk:_glDeleteProgram__wrapper
flc:__Z50Register_UnityEngine_Camera_INTERNAL_get_pixelRectv
QAa:__ZN6prcoreL18BlitFloatToIntegerERK14ImageReferenceRS0_
wZf:_DBNull_System_IConvertible_ToUInt32_m3784627971
uDe:_ClientSessionCache_Add_m964342678
SGa:__ZN13dynamic_arrayI15ComputeShaderCBLj4EE6assignEPKS0_S3_
TU:__ZN11UnityEngine15CloudWebService14RestDownloader17OnCompleteContentEv
zCj:__ZN15dense_hashtableINSt3__24pairIK10KeyWrapperINS1_IPK14Il2CppAssemblyP11Il2CppClassEEEjEES9_17ReflectionMapHashIS8_EN14dense_hash_mapIS9_jSD_NS9_14EqualsComparerINS0_8equal_toIS8_EEEENS0_9allocatorISB_EEE9SelectKeyESI_SK_E15insert_noresizeERKSB_
Nyg:_Transform_get_localScale_m129152068
T_f:_DivideByZeroException__ctor_m3496959969
Ta:invoke_viffi
Az:__ZN17AnimationPlayable28UpdateInternalStateRecursiveILi1ELb0EEEvPK35AnimationPlayableEvaluationConstant
hVj:__ZN6il2cpp2gcL10CleanupCCWEPvS1_
Wa:invoke_vifff
Klk:_glGetVertexAttribiv__wrapper
Xe:_emscripten_request_fullscreen
tLh:_Predicate_1_Invoke_m851618236_gshared
UHb:__ZN20LocalFileSystemWebGL6DeleteER13FileEntryDatab
Ze:_emscripten_glDisableVertexAttribArray
p9f:_Array_InternalArray__ICollection_Remove_TisSingle_t1397266774_m3361324455_gshared
gn:FUNCTION_TABLE_iiiifiiii
Eha:__ZN4core8hash_mapINS_12basic_stringIcNS_20StringStorageDefaultIcEEEE13dynamic_arrayI4PPtrI6SpriteELj4EENS_4hashIS4_EENSt3__28equal_toIS4_EEE12delete_nodesEv
iuc:_UNITY_png_gamma_significant
tc:invoke_fifffi
myh:_Collection_1_System_Collections_IList_Add_m2969482770_gshared
pwf:_BitConverterLE_GetBytes_m4130646282
cxa:__ZN4gles23ClearCurrentFramebufferEP7ApiGLESbbbRK10ColorRGBAffi
Zx:__ZN7mecanim12statemachine20CreateStateWorkspaceEjjjRNS_6memory9AllocatorE
yOh:_UnityEvent_1_Invoke_m3604335408_gshared
jf:_emscripten_glDeleteObjectARB
eqd:_EventSystem_RaycastComparer_m3685368675
dg:_IMG_Load
xvc:_decode_mcu_AC_refine
Z7g:__Z131RuntimeInvoker_Void_t1185182177_RuntimeObject_RuntimeObject_Int64_t3736567304_ObjectU26_t2146539884_SerializationInfoU26_t419328957PFvvEPK10MethodInfoPvPS4_
Dpc:__Z53Register_UnityEngine_RenderTexture_Internal_GetHeightv
Rzf:_PKCS12_RemoveCertificate_m1421555398
$qf:_Slider_FindSelectableOnLeft_m1667068522
RBa:__ZN6prcoreL17RemapGenericFloatI17TexFormatRGBAHalf18TexFormatARGBFloatEEvPKNS_9InnerInfoE
APc:__ZNSt3__27__sort4IRN18Overlap2DQueryBase29ColliderHitsByDepthComparitorEPP10Collider2DEEjT0_S7_S7_S7_T_
gzc:__Z14GetBuiltinSkini
DOe:_MethodDictionary_get_Item_m1201458851
hRf:_Single_System_IConvertible_ToSingle_m1939829239_AdjustorThunk
F8:___cxx_global_var_init_18
ul:_JS_SystemInfo_GetBrowserVersionString
Nlb:__ZN2UI13RectTransform23VirtualRedirectTransferER14SafeBinaryRead
cla:__ZNSt3__26vectorIN9ShaderLab20SerializedSubProgramENS_9allocatorIS2_EEE6assignIPS2_EENS_9enable_ifIXaasr21__is_forward_iteratorIT_EE5valuesr16is_constructibleIS2_NS_15iterator_traitsIS9_E9referenceEEE5valueEvE4typeES9_S9_
TFc:__Z18Transfer_BlittableI8JSONReadLb0E8BitFieldEvRK29SerializationCommandArgumentsR31RuntimeSerializationCommandInfo
a7d:_Char_ToString_m3588025615_AdjustorThunk
eZg:_HashSet_1_CopyTo_m2849056227_gshared
dBb:__ZL17Transfer_GUIStyleI18StreamedBinaryReadILb1EELb0EEvRK29SerializationCommandArgumentsR31RuntimeSerializationCommandInfo
ovf:_ModulusRing_Multiply_m343333088
Tia:__ZN9ShaderLab14SerializedPass8TransferI14SafeBinaryReadEEvRT_
_zc:__Z71Register_UnityEngine_GUILayoutUtility_INTERNAL_CALL_Internal_MoveWindowv
sP:__ZN12AudioManager16SetListenerPauseEb
MRc:__ZNSt3__26__sortIRN10ClipperLib12LocMinSorterEPNS1_12LocalMinimumEEEvT0_S6_T_
cag:_SetPropertyUtility_SetStruct_TisSingle_t1397266774_m2805350785_gshared
CPj:__ZN6il2cpp2vm9Exception25RaiseOutOfMemoryExceptionERKNS_5utils10StringViewIDsEE
ea:invoke_viiiiiiiiiii
x8j:___syscall_ret
nWi:_DeriveBytes_set_Salt_m1400945044
nsd:_PointerEventData_set_worldNormal_m1888481930
c0i:_AnchorInfo__ctor_m46784903
aCe:_CipherSuiteCollection_get_Item_m4188309062
KHe:_SslHandshakeHash_HashFinal_m2573455475
zMe:_SynchronizationAttribute_ReleaseLock_m1030353464
v6b:__ZN14qsort_internal30FindAndMovePivotToLastPositionIP8Vector2fi26PointDistanceSortPredicateEEvT_S4_T0_T1_
lhd:__Z56Register_UnityEngine_Analytics_CustomEventData_AddDoublev
A8a:__ZN11ChannelInfo8TransferI19StreamedBinaryWriteILb0EEEEvRT_
PJi:__ZL53ToggleGroup_t123837990_CustomAttributesCacheGeneratorP21CustomAttributesCache
nQb:__ZN14qsort_internal13Partition3WayIP17RODataReplacementi19ROSorterReplacementEENSt3__24pairIT_S6_EES6_S6_T0_T1_
Ihf:_InputField_CreateCursorVerts_m3585916868
rmc:__Z34Register_UnityEngine_Gradient_Initv
NLe:_Context_ToString_m1073616138
y7a:__ZN13ScreenManager23SetIsOrientationEnabledE18EnabledOrientationb
Tef:_InputField_EnforceTextHOverflow_m3400115777
QX:__ZN12LineRenderer23VirtualRedirectTransferER24GenerateTypeTreeTransfer
Heb:__ZN9InputAxis8TransferI19StreamedBinaryWriteILb0EEEEvRT_
mLd:__Z33il2cpp_codegen_check_sub_overflowxx
yek:dynCall_viififiii
Gff:_InputField_get_caretColor_m2973283772
b1f:_Double_System_IConvertible_ToInt16_m3591921965_AdjustorThunk
CJh:_Comparison_1_Invoke_m2925518770_gshared
FRa:__ZN10GameObject23VirtualRedirectTransferER18StreamedBinaryReadILb0EE
f6i:_SymmetricTransform__ctor_m2693628991
khe:_ObjectDisposedException__ctor_m1034312941
Ag:_glFrontFace
Oug:_RectOffset__ctor_m3236153262
glf:_MaskUtilities_IsDescendantOrSelf_m2247511982
jVb:__ZNSt3__26vectorI16ShadowCasterData13stl_allocatorIS1_L18MemLabelIdentifier2ELi16EEE21__push_back_slow_pathIKS1_EEvRT_
P9c:__Z51Register_UnityEngine_TextGenerator_GetLinesInternalv
Wcf:_Enumerator_get_Current_m2250080680_AdjustorThunk
S6i:_AesManaged_set_Key_m767972181
oKd:_Int16_System_IConvertible_ToBoolean_m1656400658_AdjustorThunk
h5d:_Byte_System_IConvertible_ToInt64_m285584218
vua:__ZN13GfxDeviceGLES22SetScissorRectPlatformERK5RectTIiE
gBa:__ZN6prcoreL17RemapGenericFloatI17TexFormatRGBFloat18TexFormatRGBAFloatEEvPKNS_9InnerInfoE
$dg:_Array_InternalArray__ICollection_Add_TisDictionaryEntry_t3123975638_m665385049_gshared
CWd:_MissingMemberException__ctor_m2707802176
cmd:__ZN20UnityConnectSettings10InitializeEv
lkj:_Canvas_get_renderMode_m841659411
I5a:__ZN15SerializeTraitsI13dynamic_arrayI28EnlightenRendererInformationLj8EEE19ResizeSTLStyleArrayERS2_i
VUc:__ZN16PhysicsManager2D12BeginContactEP9b2Contact
fEd:_SerializationInfo_GetValue_m42271953
NG:__ZN9AudioClip11CreateSoundEv
YIj:__ZN14dense_hash_mapI10KeyWrapperINSt3__24pairIPK9FieldInfoP11Il2CppClassEEEj17ReflectionMapHashIS8_ENS9_14EqualsComparerINS1_8equal_toIS8_EEEENS1_9allocatorINS2_IKS9_jEEEEEC2EjRKSB_RKSF_
uEj:__ZNK15dense_hashtableINSt3__24pairIK10KeyWrapperINS1_IPK10MethodInfoP11Il2CppClassEEEjEES9_17ReflectionMapHashIS8_EN14dense_hash_mapIS9_jSD_NS9_14EqualsComparerINS0_8equal_toIS8_EEEENS0_9allocatorISB_EEE9SelectKeyESI_SK_E13find_positionERSA_
m4b:__Z10tesvertLeqP10TESSvertexS0_
Cta:__ZN13GfxDeviceGLES20CreateComputeProgramEPKhj
qbj:_Timescript__ctor_m282304186
sld:__ZN11UnityEngine7Connect16PersistentValues13RestoreValuesER8JSONRead
e7f:_Guid_BaseToString_m3600006650
kPa:__ZN20ArchiveStorageReader31TryToReadDirectoryFromBlockDataEyPKvj
IRj:__ZN6il2cpp2vmL11GetIdentityEP14Il2CppIUnknown
$1j:_GC_push_gc_structures
lFe:_TlsServerCertificate_ProcessAsTls1_m819212276
yRi:_Dictionary_2_Do_ICollectionCopyTo_TisRuntimeObject_m3942192587_gshared
jzj:__ZN6il2cpp6icalls8mscorlib6SystemL8IsPublicEPK9EventInfo
gye:_PrimalityTests_RabinMillerTest_m2544317101
rxe:_Kernel_DwordDivMod_m1540317819
b1h:_Enumerator_System_Collections_IEnumerator_get_Current_m1399273671_gshared
Ope:_TypeBuilder_GetPropertyImpl_m3104345782
U8a:__ZNSt3__213__stable_sortIRNS_4lessI4PPtrI11SpriteAtlasEEENS_11__wrap_iterIPS4_EEEEvT0_SA_T_NS_15iterator_traitsISA_E15difference_typeEPNSD_10value_typeEi
COd:_Int64_ToString_m2085073918_AdjustorThunk
gcf:_Transform_1_Invoke_m4084479750_gshared
uqe:_FieldInfo_GetFieldOffset_m1356898082
jdg:_Array_InternalArray__IndexOf_TisTypeTag_t3541821701_m2988972362_gshared
X9:__ZN8keywords6CreateEPKc
Tmj:__ZL7log2_32j
S:Math_imul
rdb:__ZN14SpriteRenderer15SetupPropertiesEv
GFe:_TlsServerKeyExchange_Update_m453798279
L6a:__ZN11PlayerPrefs6GetIntERKN4core12basic_stringIcNS0_20StringStorageDefaultIcEEEEi
hCe:_CipherSuiteCollection_System_Collections_IList_IndexOf_m1361500977
Urf:_Text_set_fontStyle_m648756124
x9c:__Z45TextGenerator_CUSTOM_INTERNAL_get_rectExtentsP12Il2CppObjectP5RectTIfE
MVf:_DateTime__ctor_m2135476686_AdjustorThunk
Cvg:_RectTransform_GetLocalCorners_m823861473
MNa:__Z18ReadStringFromFilePN4core17string_with_labelILi1EEERKNS_12basic_stringIcNS_20StringStorageDefaultIcEEEE
Oog:_LineRenderer_SetWidth_m4045074374
a$:__ZN18ScriptingArguments9AddObjectE18ScriptingObjectPtr
Ldd:__Z39CanvasGroup_Get_Custom_PropInteractableP12Il2CppObject
XR:__ZN11UnityEngine15CloudWebService16SessionContainerD2Ev
Cld:__ZL38InitializeUnityConnectScriptingClassesv
wZb:__ZN13ProbeRenderer8ConvolveEbijjb
L5i:_GUIUtility_set_systemCopyBuffer_m608712289
wxa:__ZN17GenericDynamicVBOC2ER9GfxDevice13GfxBufferModejj
PPc:__Z28GetPhysics2DScriptingClassesv
hyc:__ZZN10GUIManager14InitGUIManagerEvEN41PreUpdateIMGUISendQueuedEventsRegistrator7ForwardEv
lDf:_ServicePointManager_get_SecurityProtocol_m966397919
aEa:__ZN13dynamic_arrayIN18GlslGpuProgramGLES9GLProgramELj4EE6insertEPS1_jRKS1_
N3f:_CCGregorianCalendar_day_from_fixed_m1674702403
oT:__ZN11UnityEngine15CloudWebService17SessionEventQueue10PurgeItemsEj
a_b:__ZN6Camera16StandaloneRenderENS_10RenderFlagEP6ShaderRKN4core12basic_stringIcNS3_20StringStorageDefaultIcEEEE
OFf:_X509Chain_PrepareForNextCertificate_m3691934993
xAb:__Z18Transfer_BlittableI18StreamedBinaryReadILb1EELb1EtEvRK29SerializationCommandArgumentsR31RuntimeSerializationCommandInfo
KAi:__ZL58EventType_t3528516131_CustomAttributesCacheGenerator_keyUpP21CustomAttributesCache
ngi:__ZL57X509Certificate_t713131622_CustomAttributesCacheGeneratorP21CustomAttributesCache
Mbb:__ZN12BoneWeights48TransferI19StreamedBinaryWriteILb0EEEEvRT_
Hra:__ZN9GfxDevice20DeallocRenderSurfaceEP17RenderSurfaceBase
_na:__ZN20GpuProgramParameters36UpdatePrepareValuesMaximumBufferSizeEv
ftf:_SimpleCollator_GetContraction_m2205549079
Vzg:_Vector3__ctor_m1719387948_AdjustorThunk
Qye:_ARC4Managed_GenerateKey_m1607343060
qfg:_Array_InternalArray__ICollection_CopyTo_TisDecimal_t2948259380_m2749946216_gshared
dTa:__ZN12BaseRenderer23RendererBecameInvisibleEv
k6c:__ZN20TextRenderingPrivate8FontImpl13CharacterInfo8TransferI18StreamedBinaryReadILb0EEEEvRT_
Mxb:__Z29Transfer_Blittable_ArrayFieldI24GenerateTypeTreeTransferfEvRT_R9ArrayInfoRK23StaticTransferFieldInfo
zca:__ZNSt3__26__treeINS_12__value_typeIN4core12basic_stringIcNS2_20StringStorageDefaultIcEEEES6_EENS_19__map_value_compareIS6_S7_NS_4lessIS6_EELb1EEE13stl_allocatorIS7_L18MemLabelIdentifier13ELi16EEE7destroyEPNS_11__tree_nodeIS7_PvEE
jng:_UnityEvent_FindMethod_Impl_m2312362624
q$b:__ZN19CustomRenderTexture9AddParentE4PPtrIS_E
K7:__ZN8Gradient8TransferI14SafeBinaryReadEEvRT_
Iig:_Vector3_GetHashCode_m2879461828
e$i:_Parser_ParseSpecial_m1961501104
pRf:_Single_System_IConvertible_ToUInt64_m3299129161_AdjustorThunk
h1a:__ZNSt3__26vectorIN4core12basic_stringIcNS1_20StringStorageDefaultIcEEEE13stl_allocatorIS5_L18MemLabelIdentifier1ELi16EEE7reserveEj
SCf:_IPv6Address_AsIPv4Int_m844941024
Ihe:_Random__ctor_m3209279193
bGe:_RecordProtocol__cctor_m1280873827
jwe:_Marshal__cctor_m4007734770
V0j:_GC_new_free_list_inner
Zyf:_SymmetricTransform_Random_m2004892672
A0j:_GC_err_printf
uAe:_RSAManaged_DecryptValue_m1804388365
CUe:_InternalEnumerator_1_System_Collections_IEnumerator_get_Current_m2980550840_AdjustorThunk
HGc:__ZN8JSONRead8TransferI10RectOffsetEEvRT_PKc17TransferMetaFlagsb
YS:__ZN9JSONWrite8TransferIN11UnityEngine15CloudWebService14DataErrorEvent15FileErrorDetailEEEvRT_PKc17TransferMetaFlags
nNd:_Int32_Parse_m2087562008
ecg:_Array_compare_TisVector4_t3319028937_m1974066282_gshared
ite:_MonoProperty_GetAccessors_m412928203
wcj:_TweenRunner_1_Start_m3757154622_gshared
TJ:__ZN12SoundManager20RegisterModifiedClipEP10SampleClip
XIe:_RemotingServices_GetClientChannelSinkChain_m1499550585
gie:_Assembly_FillName_m1660001542
Wdi:__ZL56_EventBuilder_t2558055199_CustomAttributesCacheGeneratorP21CustomAttributesCache
EMf:_SHA384Managed_processBlock_m1272529332
xM:__ZN11AudioSource4PlayEd
c7d:_Char_ToString_m278452217_AdjustorThunk
Msj:__ZN15dense_hashtableI10KeyWrapperIPK17Il2CppGenericInstES4_N6il2cpp8metadata21Il2CppGenericInstHashEN14dense_hash_setIS4_S7_NS4_14EqualsComparerINS6_24Il2CppGenericInstCompareEEENSt3__29allocatorIS4_EEE8IdentityESB_SE_E13set_empty_keyERKS4_
G1g:__Z63RuntimeInvoker_Char_t3634460470_Int16_t2552820387_RuntimeObjectPFvvEPK10MethodInfoPvPS4_
Xee:_Convert_ToDouble_m2924063577
rPh:_Enumerator_System_Collections_IEnumerator_get_Current_m3594024719_gshared
Kje:_CustomAttributeNamedArgument_ToString_m1488801416_AdjustorThunk
def:_ValueCollection_System_Collections_Generic_ICollectionU3CTValueU3E_Remove_m3673494156_gshared
J3a:__ZN7Cubemap23VirtualRedirectTransferER18StreamedBinaryReadILb0EE
Hnc:__ZNSt3__27__sort4IRNS_6__lessI11KeyframeTplIfES3_EEPS3_EEjT0_S7_S7_S7_T_
N2c:_Read_CVT
lM:__ZN11AudioSource23VirtualRedirectTransferER19StreamedBinaryWriteILb0EE
htf:_SimpleCollator_GetTailContraction_m2107754083
Awb:__ZL26Transfer_SimpleNativeClassI24GenerateTypeTreeTransfer17AnimationCurveTplIfELb0EEvRK29SerializationCommandArgumentsR31RuntimeSerializationCommandInfo
Iee:_Convert_ToDecimal_m1783778724
HHc:__ZN8JSONRead21TransferSTLStyleArrayI13dynamic_arrayI9BoundsIntLj4EEEEvRT_17TransferMetaFlags
Q5a:__ZN24GenerateTypeTreeTransfer8TransferI13dynamic_arrayI33EnlightenTerrainChunksInformationLj4EEEEvRT_PKc17TransferMetaFlags
CWf:_DateTimeFormatInfo__ctor_m3106345035
ZCe:_TlsServerKeyExchange_verifySignature_m3412856769
wUg:_EqualityComparer_1_System_Collections_IEqualityComparer_GetHashCode_m4137147946_gshared
Wda:__ZN16LightmapSettings20DidChangeActiveSceneEP10UnitySceneS1_
aNi:__ZL59g_AssemblyU2DCSharp_Assembly_CustomAttributesCacheGeneratorP21CustomAttributesCache
xzj:__ZN6il2cpp5utils9PathUtils8BasenameIcEENSt3__212basic_stringIT_NS3_11char_traitsIS5_EENS3_9allocatorIS5_EEEERKSA_
JQe:_RemotingProxy__cctor_m4096951805
Mzc:__Z35Register_UnityEngine_Event_get_typev
NPj:__ZN6il2cpp2vm9Exception23GetInvalidCastExceptionERKNS_5utils10StringViewIDsEE
Osc:_UNITY_png_free
Bz:__ZN8Animator28BuildControllerPlayableCacheEv
JZ:__Z63ThreadAndSerializationSafeCheckGetMonoBehaviourBeingTransferredv
B0f:_StackTrace__ctor_m206492268
HUh:_List_1_set_Item_m4224739467_gshared
zxd:_ColorTween_set_startColor_m2562993758_AdjustorThunk
Ake:_ConstructorBuilder_get_Name_m2426555260
onc:__Z37Register_UnityEngine_Input_GetAxisRawv
f$i:_Parser_ParseCharacterClass_m4285351396
Ufe:_Convert_ToSByte_m2653418303
hce:_SyncHashtable__ctor_m2449935938
jM:__ZN11AudioSource5ResetEv
QLf:_RSAPKCS1SignatureFormatter_SetKey_m2935054088
NPb:__ZN12ImageFilters27SetSurfaceUseResolvedBufferEP13RenderTextureb
h9a:__ZN14Texture2DArray23VirtualRedirectTransferER18StreamedBinaryReadILb0EE
mEg:_UTF7Encoding_GetByteCount_m209415911
Elb:__ZN2UI13RectTransform13AwakeFromLoadE17AwakeFromLoadMode
N1i:_RegularExpression_Compile_m2385682508
X3f:_CompareInfo__cctor_m1837489679
JUb:__ZN14qsort_internal30FindAndMovePivotToLastPositionIP20ShadowCasterSortDatai26ShadowCasterSortDataSorterEEvT_S4_T0_T1_
Ypb:__Z18Transfer_BlittableI14SafeBinaryReadLb1EiEvRK29SerializationCommandArgumentsR31RuntimeSerializationCommandInfo
UFf:_X509ExtensionEnumerator_get_Current_m256207749
_8:__GLOBAL__sub_I_modules_profiler_public_0_cpp
ekb:__ZN17PersistentManager13GetAllFileIDsERKN4core12basic_stringIcNS0_20StringStorageDefaultIcEEEER13dynamic_arrayIxLj8EE
B2d:_Array_Sort_m182264525
_if:_LayoutGroup_set_padding_m282562135
cje:_Default_IsArrayAssignable_m953489228
NKg:_UInt16_ToString_m355311020_AdjustorThunk
mJd:_RC2__ctor_m1146135664
Qk:_glGetStringi
CUf:_DecoderExceptionFallback_CreateFallbackBuffer_m1133375601
GTj:__ZNK15dense_hashtableI10KeyWrapperIP18Il2CppGenericClassES3_N6il2cpp8metadata22Il2CppGenericClassHashEN14dense_hash_setIS3_S6_NS3_14EqualsComparerINS5_25Il2CppGenericClassCompareEEENSt3__29allocatorIS3_EEE8IdentityESA_SD_E10test_emptyERK30dense_hashtable_const_iteratorIS3_S3_S6_SF_SA_SD_E
E7e:_Enumerator_get_CurrentKey_m889650866_gshared
TA:__ZN8Animator9WriteStepEy
X6e:_Enumerator_VerifyCurrent_m829026141_gshared
Zdc:__ZN16PropertyAccessorC2Ev
U6a:__ZNSt3__23mapIN4core12basic_stringIcNS1_20StringStorageDefaultIcEEEE9PrefValueNS_4lessIS5_EENS_9allocatorINS_4pairIKS5_S6_EEEEEixERSB_
tdc:__ZN15DirectorManager22ConstructPlayableGraphEv
f4h:_Collection_1_ConvertItem_m1743542180_gshared
E9c:__Z38Register_UnityEngine_Font_HasCharacterv
GYb:__Z35IntersectSpherePlaneBoundsOptimizedRKN4math7_float4EPS1_i
hpc:__Z54Register_UnityEngine_SpriteRenderer_SetSprite_INTERNALv
XKf:_RNGCryptoServiceProvider__cctor_m3587754670
uWj:__ZN6il2cpp2os5posix15PosixWaitObject13InterruptWaitEv
tda:__Z22CleanupLODGroupManagerPv
Izc:__Z21Event_CUSTOM_PopEventP12Il2CppObject
Al:_glUniform3fv
P6j:__ZNK6il2cpp8metadata24Il2CppGenericInstCompareclERK10KeyWrapperIPK17Il2CppGenericInstES8_
chb:__ZNSt3__218__insertion_sort_3IRN15ResourceManager10Dependency6SorterEPS2_EEvT0_S6_T_
nGf:_X509ChainElement_Set_m655180762
snj:_CustomEventData_AddInt32_m548429697
frg:_MonoBehaviour_StopCoroutine_m615723318
uTb:__ZNK16LightmapSettings31GetRealtimeLightmapDecodeValuesEv
lL:__ZN5audio5mixer12SetSuspendedERNS0_16AudioMixerMemoryEb
Ykb:__ZN17PersistentManager21UnloadNonDirtyStreamsEv
J8g:__Z96RuntimeInvoker_Int32_t2950945753_RuntimeObject_Int32_t2950945753_RuntimeObject_Int32_t2950945753PFvvEPK10MethodInfoPvPS4_
F7i:_AnalyticsEventTracker_OnEnable_m1121905268
n2i:_Uri_get_Parser_m3737125102
ukj:_Canvas_get_overrideSorting_m2740418462
tlg:_Debug_LogFormat_m309087137
nug:_Rect_set_xMin_m2413290617_AdjustorThunk
iab:__ZN12ImageFilters4BlitER17ShaderPassContextP7TextureP13RenderTextureiPK18SharedMaterialDataPKcP6ShaderiNS_9BlitFlagsE11CubemapFaceRK8Vector2fSH_
bTf:_String_LastIndexOf_m3451222878
bZi:_Mark_get_Index_m3048692661
gKi:__ZL69CanvasScaler_t2767979955_CustomAttributesCacheGenerator_m_ScaleFactorP21CustomAttributesCache
MOg:_Dictionary_2_ToTValue_m692436965_gshared
yT:__ZN11UnityEngine15CloudWebService10RestClientINS0_23WebRequestRestHeaderMapEED2Ev
Wl:_emscripten_glDepthMask
OIe:_RemotingServices_CreateClientProxy_m3886727610
Lya:__ZN4crnd25static_huffman_data_model22prepare_decoder_tablesEv
gGe:_RecordProtocol_GetMessage_m2086135164
Hyc:__Z23GUIStatePopDisplayIndexv
$da:__Znaj
wnk:_emscripten_glEnableClientState__wrapper
Jaa:__ZN17MessageIdentifierC2EPKcNS_7OptionsEPKN5Unity4TypeES1_
Zqg:_Mesh_SetTriangles_m1523451247
eRf:_Single_System_IConvertible_ToSByte_m1208276900
hOi:_Array_InternalArray__set_Item_TisVector4_t3319028937_m757305038_gshared
a7g:__Z105RuntimeInvoker_Void_t1185182177_RuntimeObject_RuntimeObject_RuntimeObject_RuntimeObject_Int32_t2950945753PFvvEPK10MethodInfoPvPS4_
Odf:_ValueCollection_System_Collections_Generic_ICollectionU3CTValueU3E_Add_m3298059628_gshared
b2g:__Z64RuntimeInvoker_RuntimeObject_Int16_t2552820387_Int16_t2552820387PFvvEPK10MethodInfoPvPS4_
NQ:__Z55Register_UnityEngine_AudioSource_get_spatializeInternalv
$La:__ZN14SafeBinaryRead8TransferI14ConstantStringEEvRT_PKc17TransferMetaFlags
_Nb:__ZNK6Camera16GetStereoEnabledEv
Kbh:__Z72RuntimeInvoker_Int32_t2950945753_TimeSpan_t881159249_TimeSpan_t881159249PFvvEPK10MethodInfoPvPS4_
HGe:_SendRecordAsyncResult_SetComplete_m153213906
Eoa:__ZL24FindBelongingStructParamRPKcRNSt3__26vectorIN9ShaderLab20SerializedSubProgram14ConstantBufferENS2_9allocatorIS6_EEEE
uac:__ZN12LightManager15InitializeClassEv
XGg:_WaitHandle__cctor_m4242752477
g0a:__ZN9ShaderLab11shaderprops16GetComputeBufferEPK19ShaderPropertySheetS3_NS_16FastPropertyNameE
S_j:__ZN6il2cpp6icalls8mscorlib6System10Reflection10MethodBase31GetMethodFromHandleInternalTypeEii
q$:__ZN18ScriptingArgumentsC2Ev
cjg:_Vector3_op_Equality_m4231250055
Pik:_emscripten_glBlendFuncSeparate__wrapper
zQd:_FileSystemInfo__ctor_m3769019897
dTi:_Array_InternalArray__get_Item_TisContentType_t1787303396_m421427711_gshared
Ova:__Z17HasSampledTexture14GraphicsFormat13formatSupport
nPb:__ZNK25CameraStackRenderingState27GetStereoImageEffectTextureEb
GId:_HMACSHA384__ctor_m1677515580
TKf:_RIPEMD160Managed_J_m1336489154
Vwj:__ZN6il2cpp6icalls6System6System3Net7Sockets6Socket7ReceiveEiP11Il2CppArrayiiNS4_11SocketFlagsEPi
$gc:__ZN13BuildSettings13GetSceneIndexERKN4core12basic_stringIcNS0_20StringStorageDefaultIcEEEE
Qo:FUNCTION_TABLE_ii
VSa:__ZN10TagManager8TransferI18StreamedBinaryReadILb0EEEEvRT_
hDc:__Z18Transfer_BlittableI9JSONWriteLb0E8BitFieldEvRK29SerializationCommandArgumentsR31RuntimeSerializationCommandInfo
zSd:_MemoryStream_set_Capacity_m1773624579
wLj:__ZNK15dense_hashtableINSt3__24pairIK10KeyWrapperINS1_IP11Il2CppClassjEEES4_EES6_N6il2cpp8metadata14ArrayClassHashEN14dense_hash_mapIS6_S4_SB_NS6_14EqualsComparerINSA_17ArrayClassCompareEEENS0_9allocatorIS8_EEE9SelectKeyESF_SH_E10test_emptyEj
Oja:__ZNSt3__26vectorIN9ShaderLab20SerializedSubProgram15StructParameterENS_9allocatorIS3_EEE8__appendEj
Ab:invoke_diiii
_ec:__ZNK6Sprite15GenerateOutlineEfhbRNSt3__26vectorI13dynamic_arrayI8Vector2fLj4EENS0_9allocatorIS4_EEEEi
Pdh:__Z95RuntimeInvoker_Void_t1185182177_RuntimeObject_RuntimeObject_SByte_t1669577662_SByte_t1669577662PFvvEPK10MethodInfoPvPS4_
zNa:__Z24CreateDirectoryRecursiveRKN4core12basic_stringIcNS_20StringStorageDefaultIcEEEE
chk:b41
ima:__ZN9ShaderLab20SerializedSubProgram8TransferI18StreamedBinaryReadILb0EEEEvRT_
bhk:b40
rvi:__ZL54ContextMenu_t1295656858_CustomAttributesCacheGeneratorP21CustomAttributesCache
jaa:__ZN13RuntimeStaticI21ScalableBufferManagerLb0EE13StaticDestroyEPv
kad:__ZN2UI13CanvasManager9AddCanvasEPNS_6CanvasE
$9a:__ZN9Texture3D8TransferI19StreamedBinaryWriteILb0EEEEvRT_
SPb:__ZNK6Camera22CalculateRenderingPathEv
BEc:__ZN9JSONWrite8TransferI5RectTIfEEEvRT_PKc17TransferMetaFlags
CC:__ZN11UnityEngine9Animation37SetGenericRootTransformPropertyValuesERKNS0_30AnimatorGenericBindingConstantERKN7mecanim10ValueArrayER9Transformbb
YEa:__Z13ConvertMipmap14GraphicsFormatPKvS_Pviiii
gvb:__ZL12InvokeMethodI17RemapPPtrTransferEvRK29SerializationCommandArgumentsR31RuntimeSerializationCommandInfo
WBf:_RemoteCertificateValidationCallback_Invoke_m3086073466
aUf:_StringComparer_Compare_m991165676
u0c:_tt_sbit_decoder_load_image
icj:_U3CStartU3Ec__Iterator0_Dispose_m261027331_gshared
XFa:__ZN4core8hash_mapIPK17RenderSurfaceBaseP13RenderTexture19PointerHashFunctionIS3_ENSt3__28equal_toIS3_EEE6insertERKNS8_4pairIKS3_S5_EE
Byc:__ZNSt3__24listIN10GUIManager12SortedScriptE11memory_poolIS2_EE6__sortI13OldSortScriptEENS_15__list_iteratorIS2_PvEESA_SA_jRT_
bVh:_List_1_AddEnumerable_m3500350831_gshared
b8:__ZN12LineRenderer8TransferI18StreamedBinaryReadILb0EEEEvRT_
fAe:_PrivateKeyInfo_get_PrivateKey_m3647771102
Jjd:__ZN18UnityConnectClient12CloseServiceEv
tOj:__ZN6il2cpp6icalls8mscorlib6System9ThreadingL11ThreadStartEPv
Tfa:__ZN15DirectorManager12OnSampleTimeEv
Joe:_TypeBuilder_check_not_created_m3652863637
P2i:_Uri_GetHashCode_m321999866
Jtd:_StandaloneInputModule_UpdateModule_m450861257
kjj:_Font_add_textureRebuilt_m2164317336
iIh:_ReadOnlyCollection_1_System_Collections_IList_Insert_m2928873627_gshared
dWg:_EqualityComparer_1__cctor_m314889309_gshared
Q6:__ZN12CachedReader10Align4ReadEv
TMc:__ZN15b2WorldManifold10InitializeEPK10b2ManifoldRK11b2TransformfS5_f
$Wi:_X501__cctor_m2428304915
tkj:_Canvas_get_renderOrder_m1489855841
A2g:__Z50RuntimeInvoker_Void_t1185182177_Single_t1397266774PFvvEPK10MethodInfoPvPS4_
G3i:_Event_ToString_m1688862299
aLa:__ZNK9Behaviour22GetTypeVirtualInternalEv
M3f:_CCGregorianCalendar_month_from_fixed_m4268992710
Xbg:_Array_compare_TisUICharInfo_t75501106_m1310495481_gshared
qZb:__Z21GetScriptingArraySize17ScriptingArrayPtr
I5c:__ZN20TextRenderingPrivate8FontImpl8TransferI14SafeBinaryReadEEvRT_
xGh:_ReadOnlyCollection_1_System_Collections_IList_Clear_m4022532825_gshared
OBg:_Encoding_get_ASCII_m3595602635
Dsa:__ZN9GfxDevice17ImmediateTexCoordEifff
pSc:__ZN10ClipperLib7Clipper13AppendPolygonEPNS_5TEdgeES2_
yle:_DerivedType_GetCustomAttributes_m3536779709
fji:__ZL93Interlocked_t2273387594_CustomAttributesCacheGenerator_Interlocked_CompareExchange_m388540288P21CustomAttributesCache
Lpe:_MethodBase_get_IsAbstract_m428833029
Jvb:__Z35Transfer_Blittable_FixedBufferFieldI24GenerateTypeTreeTransferhEvRK29SerializationCommandArgumentsR31RuntimeSerializationCommandInfo
Ggk:_emscripten_glUniform4f__wrapper
HPh:_Enumerator_MoveNext_m2595190390_AdjustorThunk
udg:_Array_InternalArray__IndexOf_TisColor32_t2600501292_m3783551884_gshared
WY:__ZNK6Camera16GetProjectionFarEv
ir:__Z24InverseTransformRotationRK23TransformAccessReadOnlyRKN4math7_float4E
$Xi:_X509Chain_Build_m2469702749
qM:__ZN11AudioSource6UpdateEv
dqf:_Selectable_OnPointerEnter_m3378734298
xmd:__Z31GetPerformanceReportingSettingsv
j2a:__ZNK14PlayableOutput11DerivesFromE17ScriptingClassPtr
w3a:__ZN7Texture34CreateFileTextureUploadInstructionE18TextureUploadFlagsj
LGa:__ZN13ComputeShader14SetBufferParamEjRKN9ShaderLab16FastPropertyNameE15ComputeBufferID
Hoe:_TypeBuilder_DefineConstructor_m2989882735
eQa:__ZN25SingleBlockMemoryFileDataC2E10MemLabelIdPvjb
KD:__ZN8Animator8TransferI14SafeBinaryReadEEvRT_
dYb:__ZN27IntermediateRendererManager24GetIntermediateRenderersEi
KNc:__ZNK14b2CapsuleShape5CloneEP16b2BlockAllocator
pu:__ZN17AnimationPlayable34CollectAnimatorControllerPlayablesER13dynamic_arrayIP26AnimatorControllerPlayableLj4EE
kP:__ZN16BaseVideoTexture19UpdateVideoTexturesEv
hse:_MonoField_GetValue_m3124733531
fXa:__Z28BuildSingleStreamChannelInfo17ShaderChannelMaskRK20VertexChannelsLayoutS_S2_P11ChannelInfo
F7a:__ZN6Sprite23VirtualRedirectTransferER19StreamedBinaryWriteILb0EE
Npc:__Z38Transform_CUSTOM_INTERNAL_set_positionP12Il2CppObjectRK8Vector3f
uqd:_EventTrigger_Execute_m2453060771
qJh:_Comparison_1_Invoke_m517083441_gshared
a9g:__Z253RuntimeInvoker_Int32_t2950945753_RuntimeObject_Int32_t2950945753_Int32_t2950945753_RuntimeObject_Int32_t2950945753_UInt32U26_t3735378166_UInt32U26_t3735378166_RuntimeObject_DecoderFallbackBufferU26_t3866396827_ByteU5BU5DU26_t4057885439_SByte_t1669577662PFvvEPK10MethodInfoPvPS4_
wDj:__ZNK15dense_hashtableINSt3__24pairIK10KeyWrapperINS1_IPK9FieldInfoP11Il2CppClassEEEjEES9_17ReflectionMapHashIS8_EN14dense_hash_mapIS9_jSD_NS9_14EqualsComparerINS0_8equal_toIS8_EEEENS0_9allocatorISB_EEE9SelectKeyESI_SK_E5beginEv
Roa:__ZNK9ShaderLab7Program19HasMatchingVariantsERK13dynamic_arrayI16ShaderKeywordSetLj4EE
GB:__ZN15SerializeTraitsIN4math4trsXEE8TransferI8BlobSizeEEvRS1_RT_
xwa:__ZN14DataBufferGLES11CopySubDataEPKS_jjj
pe:_emscripten_glVertexPointer
mcd:__ZN2UI13PrepareOutputERNS_7BatchesEjjNS_30AdditionalCanvasShaderChannelsE
Kzj:__ZN6il2cpp2vm7Runtime47RaiseExecutionEngineExceptionIfMethodIsNotFoundEPK10MethodInfo
JZi:_PatternCompiler_GetMachineFactory_m3758869886
mVb:__Z17GetFrustumPortionPK8Vector3fffPS_
dRj:__ZN15dense_hashtableINSt3__24pairIK10KeyWrapperIP14Il2CppIUnknownEjEES5_N6il2cpp5utils11PointerHashIS3_EEN14dense_hash_mapIS5_jSB_NS5_14EqualsComparerINS0_8equal_toIS4_EEEENS0_9allocatorIS7_EEE9SelectKeyESG_SI_E14squash_deletedEv
Lqd:_EventTrigger_OnCancel_m585099428
S4i:_GUILayoutEntry_ApplyOptions_m1741659338
jFd:_RuntimeTypeHandle_Equals_m2857439487_AdjustorThunk
uqa:__ZNK9GfxDevice27GetPlatformAdjustedViewportEv
EDh:_ReadOnlyCollection_1_System_Collections_Generic_IListU3CTU3E_set_Item_m88350439_gshared
C8i:_StandardEventPayload_IsRequiredDataValid_m361738930
AKh:_Func_3_Invoke_m1194147890_gshared
s0i:_Reference_Compile_m4195878675
SFh:_ReadOnlyCollection_1_System_Collections_ICollection_CopyTo_m2672196987_gshared
bec:__ZN16StreamedResource8TransferI24GenerateTypeTreeTransferEEvRT_
YKc:__ZN11b2GearJoint4DumpEv
evg:_RectTransform_get_anchorMin_m2928307238
n7d:_ArrayList__ctor_m3828927650
Fua:__ZThn9568_N13GfxDeviceGLES26EnableScissorRectsPlatformEv
GHa:__ZN10Matrix3x3f15InvertTransposeEv
c5i:_GUILayoutGroup_SetHorizontal_m996475327
V4i:_GUILayoutEntry__cctor_m663865902
uNb:__Z11IsBatchmodev
j$g:_Enumerator_System_Collections_IEnumerator_get_Current_m713684915_gshared
Itb:__Z29Transfer_Blittable_ArrayFieldI14SafeBinaryRead8Vector3fEvRT_R9ArrayInfoRK23StaticTransferFieldInfo
x6c:__ZN20TextRenderingPrivate8FontImpl18ResetCachedTextureEv
myj:__ZN6il2cpp6icalls8mscorlib6SystemL16GetFieldFromTypeINS_5utils10functional6FilterINSt3__212basic_stringIcNS7_11char_traitsIcEENS7_9allocatorIcEEEENS4_13VmStringUtils21CaseSensitiveComparerEEEEEP21Il2CppReflectionFieldP11Il2CppClassSK_iRKT_
lEf:_X509KeyUsageExtension_Decode_m3150759625
D1j:_GC_print_finalization_stats
MKc:__ZNK12b2WheelJoint10GetAnchorBEv
J5i:_GUITargetAttribute_GetGUITargetAttrValue_m2954410352
wkc:__Z53Register_UnityEngine_Behaviour_get_isActiveAndEnabledv
J2d:_SimpleEnumerator_get_Current_m72361444
Dq:__ZNSt3__26vectorIN4core12basic_stringIcNS1_20StringStorageDefaultIcEEEENS_9allocatorIS5_EEE8__appendEj
zP:__ZN13ProduceHelperI10SampleClipLb0EE7ProduceE10MemLabelId18ObjectCreationMode
rgb:__ZN26PlayerSettingsSplashScreen8TransferI17RemapPPtrTransferEEvRT_
hwf:_ASN1_set_Value_m2803403806
tyj:__ZN6il2cpp6icalls8mscorlib6SystemL17CollectTypeFieldsINS_5utils10functional10TrueFilterEEEvP11Il2CppClassPKS7_iRNSt3__26vectorIP9FieldInfoNSB_9allocatorISE_EEEERKT_
$5b:__Z13GetTagManagerv
m0d:_Hashtable__ctor_m1815022027
JEg:_UTF8Encoding_GetChars_m1433288684
Kmj:__ZL10roundUp128PyS_
HR:__ZN11UnityEngine15CloudWebService17CloudJobSchedulerD0Ev
LTe:_ArrayReadOnlyList_1_Contains_m381552673_gshared
rIg:_TimeZone_ToUniversalTime_m2789507578
w2g:__Z96RuntimeInvoker_Boolean_t97287965_RuntimeObject_RuntimeObject_Int32_t2950945753_Int32_t2950945753PFvvEPK10MethodInfoPvPS4_
ycg:_Array_IndexOf_TisUICharInfo_t75501106_m3198896198_gshared
Iad:__ZNK2UI11CanvasGroup22GetTypeVirtualInternalEv
zEe:_Context_get_Current_m2853615040
nSc:__ZN10ClipperLib7Clipper14IntersectEdgesEPNS_5TEdgeES2_RNS_8IntPointE
Vyc:__Z21CleanupGlobalGUIStatev
vJg:_Type_IsContextfulImpl_m3693603908
ePh:_Enumerator_VerifyState_m2873941769_gshared
XCb:__Z18Transfer_BlittableI18StreamedBinaryReadILb0EELb1EN4math12int3_storageEEvRK29SerializationCommandArgumentsR31RuntimeSerializationCommandInfo
dJa:__ZN22VertexDeclarationCache5ClearEv
RGd:_CspParameters__ctor_m3852972821
r0b:__ZN17PersistentManager12SetPathRemapERKN4core12basic_stringIcNS0_20StringStorageDefaultIcEEEES6_
Uw:__Z27ProcessRootMotionEmptyMixerP35AnimationPlayableEvaluationConstantP32AnimationPlayableEvaluationInputP33AnimationPlayableEvaluationOutput
PWb:__ZN6Camera24PrepareCullingParametersERK23CameraCullingParameters13RenderingPathR11CullResults
Mgc:__Z12SetIUISystemP9IUISystem
Kib:__ZN19RuntimeSceneManager22EndIntegrateMainThreadEP10UnitySceneNS_11LoadingModeE
TPi:_Array_Sort_TisUICharInfo_t75501106_m3474449559_gshared
ivb:__Z26Transfer_UnityEngineObjectI17RemapPPtrTransferLb0EEvRK29SerializationCommandArgumentsR31RuntimeSerializationCommandInfo
G_i:_QuickSearch_GetShiftDistance_m2542665852
DSi:_Array_InternalArray__get_Item_TisCustomAttributeTypedArgument_t2723150157_m2639399822_gshared
yuf:_BigInteger_GenerateRandom_m3141592944
Dxb:__Z29Transfer_Blittable_ArrayFieldI24GenerateTypeTreeTransfer4AABBEvRT_R9ArrayInfoRK23StaticTransferFieldInfo
bKf:_Interval_Contains_m1454846757
aBd:_Graphic_CacheCanvas_m1120385152
jLc:__ZN13b2PulleyJoint24SolveVelocityConstraintsERK12b2SolverData
t8j:_emscripten_GetProcAddress
Ea:invoke_fiiifii
P9j:_modff
EZa:__ZN20SphericalHarmonicsL219AddDirectionalLightERKN4math7_float3ERKNS0_7_float4E
Kfa:__Z26ScheduleJobForEachInternalR8JobFencePFvPvjES1_iPFvS1_E11JobPriority
fNb:__ZZ23InitPlayerLoopCallbacksvEN41PostLateUpdateProfilerEndFrameRegistrator7ForwardEv
jhc:__ZN9Scripting18RaiseMonoExceptionEPKcz
iad:__ZN2UI13UIInstruction19ClearSharedMeshDataER8JobFence
Pcc:__ZN10GameObject17WillHandleMessageERK17MessageIdentifier
_Of:_StrongNamePublicKeyBlob_Equals_m3655422942
XPf:_SecurityContext__ctor_m1730177197
Elj:_RectTransformUtility_GetTransposed_m3952754222
Tac:__ZN9ShaderLab16FastPropertyName15InitBy28BitHashEj
bUh:_List_1_System_Collections_IList_set_Item_m4182383657_gshared
E5g:__Z96RuntimeInvoker_Void_t1185182177_Int32_t2950945753_Single_t1397266774_RuntimeObject_RuntimeObjectPFvvEPK10MethodInfoPvPS4_
f6e:_Enumerator_System_Collections_IDictionaryEnumerator_get_Key_m195047678_AdjustorThunk
skj:_Canvas_get_pixelPerfect_m333060872
$ab:__ZN17PackedFloatVector12UnpackFloatsEPfiiii
dEj:__ZN30dense_hashtable_const_iteratorINSt3__24pairIK10KeyWrapperIPK10Il2CppTypeEjEES6_N6il2cpp8metadata14Il2CppTypeHashEN14dense_hash_mapIS6_jSB_NS6_14EqualsComparerINSA_26Il2CppTypeEqualityComparerEEENS0_9allocatorIS8_EEE9SelectKeyESF_SH_EppEv
Zz:__ZN17AnimationPlayable28UpdateInternalStateRecursiveILi3ELb0EEEvPK35AnimationPlayableEvaluationConstant
vsc:_UNITY_png_handle_IHDR
Dta:__ZN13GfxDeviceGLES21DestroyComputeProgramER12ObjectHandleI18ComputeProgram_TagPvE
d_i:_PatternCompiler_EmitIfDefined_m2075050865
o_f:_Decimal_System_IConvertible_ToInt64_m1446427516_AdjustorThunk
xda:__ZN17UniqueIDGenerator16DestroyPureIndexEj
GYd:_NotImplementedException__ctor_m3095902440
E0:__ZL21AppendNestedClassName17ScriptingClassPtrRN4core17string_with_labelILi1EEE
vja:__ZN14SafeBinaryRead21TransferSTLStyleArrayINSt3__26vectorIN9ShaderLab20SerializedSubProgram12UAVParameterENS1_9allocatorIS5_EEEEEEvRT_17TransferMetaFlags
njj:_FontTextureRebuildCallback_Invoke_m3604797831
QS:__ZN24TextDOMTransferWriteBaseI9JSONWriteE12PushMetaFlagEi
obj:_Resoluation_Start_m3555897369
gei:__ZL59_PropertyBuilder_t1366136710_CustomAttributesCacheGeneratorP21CustomAttributesCache
iCa:__ZN6prcoreL26RemapGenericIntegerToFloatI17TexFormatARGB888815TexFormatRFloatEEvPKNS_9InnerInfoE
Nxj:__ZN6il2cpp2vm10ThreadPool10InitializeEv
xXh:_List_1__ctor_m808270210_gshared
vBj:__ZN6il2cpp2vm17TypeNameParseInfoD2Ev
TYg:_PrimeHelper_ToPrime_m3704362632_gshared
rJ:__ZN4FMOD7Channel7setModeEj
YZf:_Decimal_System_IConvertible_ToType_m2919262279
Rzg:_Vector2_get_right_m1027081661
$X:__ZNK8Renderer8GetLayerEv
wTd:_Stream_Close_m771352034
a4e:__ZN21InterfaceFuncInvoker1Ii19TimeSpan_t881159249E6InvokeEjP11Il2CppClassP12Il2CppObjectS0_
zRb:__ZNK6Camera20GetReplacementShaderEv
u_h:_List_1_System_Collections_IList_Remove_m4226673807_gshared
R5j:__ZNSt3__26__treeINS_12__value_typeINS_12basic_stringIcNS_11char_traitsIcEENS_9allocatorIcEEEEPFvvEEENS_19__map_value_compareIS7_SA_NS_4lessIS7_EELb1EEENS5_ISA_EEE4findIS7_EENS_15__tree_iteratorISA_PNS_11__tree_nodeISA_PvEEiEERKT_
xza:__ZL23stbir__calculate_memoryP11stbir__info
I9e:_KeyCollection_System_Collections_Generic_ICollectionU3CTKeyU3E_Clear_m1261840136_gshared
Hsc:_UNITY_png_handle_sRGB
lJf:_Interpreter_Close_m126356671
uab:__ZNK6Camera18GetRenderRectangleEv
Q8a:__ZN13sorted_vectorIN4core12basic_stringIcNS0_20StringStorageDefaultIcEEEENSt3__24lessIS4_EE13stl_allocatorIS4_L18MemLabelIdentifier81ELi16EEE4findIS4_EENS5_11__wrap_iterIPS4_EERKT_
Y_i:_Parser_HandleExplicitNumericGroups_m1412234891
bTi:_Array_InternalArray__get_Item_TisRaycastHit2D_t2279581989_m2440275162_gshared
Dje:_CustomAttributeNamedArgument_Equals_m1414002036
aGc:__ZL26Transfer_SimpleNativeClassI8JSONRead10RectOffsetLb1EEvRK29SerializationCommandArgumentsR31RuntimeSerializationCommandInfo
Epg:_Material_SetInt_m475299667
Tdd:__Z44CanvasRenderer_CUSTOM_INTERNAL_CALL_SetColorP12Il2CppObjectRK10ColorRGBAf
y_g:_Enumerator_System_Collections_IEnumerator_Reset_m959124362_AdjustorThunk
JRc:__ZN10ClipperLib11ClipperBaseD0Ev
z2f:_Enum_ToObject_m121831801
pDd:_Image_get_hasBorder_m3423344180
RCc:__Z18Transfer_BlittableI9JSONWriteLb1EsEvRK29SerializationCommandArgumentsR31RuntimeSerializationCommandInfo
fSc:__ZN10ClipperLib8JoinHorzEPNS_5OutPtES1_S1_S1_NS_8IntPointEb
ohd:__Z48UnityAnalyticsHandler_CUSTOM_SendCustomEventNameP12Il2CppObjectP12Il2CppString
Uhc:__ZN9Transform16SetLocalRotationERK11Quaternionf
wAd:_FontData_set_richText_m993590067
QNb:__ZN13RenderManager37RenderCamerasWithScriptableRenderLoopEi
hHg:_TimeSpan__ctor_m3689759052
PB:__ZN7mecanim8skeleton25SkeletonPoseComputeLocalQEPKNS0_8SkeletonEPKNS0_13SkeletonPoseTIN4math4trsXEEEPS7_ii
qsh:__Z37RuntimeInvoker_Enumerator_t3123848928PFvvEPK10MethodInfoPvPS4_
mUj:__ZN6il2cpp2os19ReleaseSocketHandleEj
xO:__ZN11AudioModule16GetDSPSampleRateEv
GKb:__ZN15InstancingProps11NewConstantERKN9ShaderLab16FastPropertyNameEj15ShaderParamTypehhjjP6Object
uff:_InputField_get_characterValidation_m4196664041
zIg:_Type_get_Attributes_m58528356
YZd:_Array_GetUpperBound_m4018715963
IYi:_X509Store__ctor_m2736551756
nWj:__ZN6il2cpp2os5posix15PosixWaitObjectC2ENS2_4TypeE
MPb:__ZN6Camera21PostMultiCustomRenderENS_10RenderFlagEb
Igg:_Array_InternalArray__Insert_TisMonoResource_t4103430009_m1997865927_gshared
WMf:_SHA512Managed_HashFinal_m2173184560
qGa:__ZN12_GLOBAL__N_112UploadImagesEP7ApiGLESjji14GraphicsFormatPKhjS2_iiii16TextureUsageModePh
uKb:__ZN23ShaderVariantCollection13WarmupShadersEv
I8b:__ZN13ProduceHelperI9TransformLb0EE7ProduceE10MemLabelId18ObjectCreationMode
m0:__Z25GetCommonScriptingClassesv
gjb:__Z27scripting_gc_collect_unsafei
Hze:_MD5SHA1_HashFinal_m4115488658
beg:_Array_InternalArray__ICollection_Add_TisKeyValuePair_2_t71524366_m3468275433_gshared
vej:_AudioSettings_InvokeOnAudioManagerUpdate_m4044425648
EQ:__Z59Register_UnityEngine_AudioExtensionManager_GetAudioListenerv
Wwb:__Z26Transfer_UnityEngineObjectI24GenerateTypeTreeTransferLb0EEvRK29SerializationCommandArgumentsR31RuntimeSerializationCommandInfo
Vee:_Convert_ToDouble_m278900635
jZc:_UNITY_FT_GlyphLoader_CheckPoints
phf:_InputField_LineDownCharacterPosition_m2798128425
I7e:_Enumerator_System_Collections_IDictionaryEnumerator_get_Value_m684446183_AdjustorThunk
zVa:__ZN15SharedLightData7PrecalcEv
v2:__ZN10Matrix4x4fmLERKS_
Stg:_Vector2__ctor_m3970636864
sAb:__Z35Transfer_Blittable_FixedBufferFieldI18StreamedBinaryReadILb1EEsEvRK29SerializationCommandArgumentsR31RuntimeSerializationCommandInfo
X2f:_Environment_InternalGetFolderPath_m468390978
YOa:__ZN15ArchiveReadFileD0Ev
Xid:__ZN11UnityEngine15PlatformWrapper18GetOperatingSystemEv
FQf:_SecurityFrame_ToString_m339310712
Vw:__Z25ProcessRootMotionMixBeginP35AnimationPlayableEvaluationConstantP32AnimationPlayableEvaluationInputP33AnimationPlayableEvaluationOutput
Vek:dynCall_iiiiifiiii
EGc:__ZN8GUIStyle8TransferI8JSONReadEEvRT_
o7:__ZN8DrawUtil36DrawLineOrTrailMultipleFromNodeQueueERK15RenderNodeQueueRK18RenderMultipleData17ShaderChannelMask
kud:_TouchInputModule_ProcessTouchPress_m3504077560
_pf:_Selectable_IsInteractable_m2611421038
OYc:_FT_MSB
Ykk:_emscripten_glReadPixels__wrapper
f6j:__ZN6il2cpp6icalls8mscorlib4Mono8Security12Cryptography18KeyPairPersistence10_CanSecureEP12Il2CppString
d8f:_Array_InternalArray__ICollection_Contains_TisParameterModifier_t1461694466_m1000453323_gshared
UQg:_Dictionary_2_System_Collections_ICollection_CopyTo_m4047192178_gshared
oAj:__ZN6il2cpp2os4File11GetFileStatERKNSt3__212basic_stringIcNS2_11char_traitsIcEENS2_9allocatorIcEEEEPNS0_8FileStatEPi
xKf:_RIPEMD160Managed_Initialize_m2173168986
Gac:__ZN9TransformC2E10MemLabelId18ObjectCreationMode
Ppa:__ZN13GfxDeviceGLES14SetRasterStateEPK17DeviceRasterState
lie:_Assembly_ToString_m2053237013
hqg:_Vector4_Equals_m1779210055
d$c:_otv_Coverage_get_count
Yte:_ParameterModifier_t1461694466_marshal_pinvoke_back
n3:__ZN14SafeBinaryRead11EndTransferEv
oXg:_EqualityComparer_1__cctor_m2741186979_gshared
Irb:__ZN14SafeBinaryRead8TransferI8MonoPPtrEEvRT_PKc17TransferMetaFlags
p2f:_Enum_System_IConvertible_ToUInt16_m4216751959
nHa:__ZN21UniformBufferTFMethod13MapBoneBufferEj
zgg:_Array_InternalArray__Insert_TisInt32_t2950945753_m4073217122_gshared
fdf:_Enumerator_get_Current_m2897627569_AdjustorThunk
Xce:_SortedList_Remove_m2784369438
vya:__ZN4crnd12crn_unpacker10unpack_dxnEPPhjjj
W0:__ZN14SerializedFileD2Ev
Czc:__Z30Event_Get_Custom_PropModifiersP12Il2CppObject
ooj:_Physics2D_Raycast_m2858866636
Eu:__ZN7mecanim9animation16CreateClipOutputEPKNS0_4ClipERNS_6memory9AllocatorE
Wlf:_RawImage_get_mainTexture_m2396337033
Jnj:_CustomEventData_Add_m1638466298
rCj:__ZN6il2cpp2vm10Reflection17GetAssemblyObjectEPK14Il2CppAssembly
gFb:__ZNSt3__218__stable_sort_moveIRN10vector_mapI17ScriptingClassPtrPKN5Unity4TypeENS_4lessIS2_EENS_9allocatorINS_4pairIS2_S6_EEEEE13value_compareENS_11__wrap_iterIPSB_EEEEvT0_SJ_T_NS_15iterator_traitsISJ_E15difference_typeEPNSM_10value_typeE
Zha:__ZN6Shader21AwakeFromLoadThreadedEv
kBa:__ZN6prcoreL17RemapGenericFloatI17TexFormatRGBFloat17TexFormatRGBAHalfEEvPKNS_9InnerInfoE
tuf:_BigInteger__ctor_m3991350270
Ezg:_Vector2_GetHashCode_m3916089713_AdjustorThunk
r7j:__ZN6il2cpp2os9SemaphoreC2Eii
Krb:__ZNSt3__26vectorI8MonoPPtr13stl_allocatorIS1_L18MemLabelIdentifier1ELi16EEE8__appendEj
pQb:__ZN14qsort_internal30FindAndMovePivotToLastPositionIP17RODataReplacementi19ROSorterReplacementEEvT_S4_T0_T1_
yHa:__ZN15UniformTFMethod20IsBoneCountSupportedEi
OMg:_UnauthorizedAccessException__ctor_m246605039
$9b:__Z12BuildTextureIA4_tPFvP9Texture2DPS0_iiiiEES2_PKcii13TextureFormatRKT0_17TextureColorSpaceb
lek:dynCall_viidi
s9e:_KeyCollection__ctor_m1356492051_gshared
C$:__ZN24ScriptingMethodFiltering17FilterOnSignatureENS_18MethodSearchFilterE
R$b:__ZN18ScreenManagerWebGL13SetLockCursorE14CursorLockMode
OBe:_CipherSuite_DecryptRecord_m1495386860
xXi:_X509Certificate_VerifySignature_m3538124832
ATd:_StreamAsyncResult_SetComplete_m1102187093
b1i:_CharacterClass_GetIntervalCost_m4036989868
yKi:__ZL64HorizontalLayoutGroup_t2586782146_CustomAttributesCacheGeneratorP21CustomAttributesCache
g8b:__ZN13MonoBehaviour19HandleNotificationsEPviR11MessageData
Pug:_RectOffset_Init_m2028508611
U7j:__ZN6il2cpp2os9EventImpl5ResetEv
SAe:_Alert__ctor_m3135936936
ONd:_Int64_System_IConvertible_ToInt32_m772105781
oUi:_TlsClientSettings__ctor_m3220697265
rFf:_X509Certificate2_get_Version_m2534012675
sGj:__ZNK15dense_hashtableINSt3__24pairIK10KeyWrapperINS1_IPK9EventInfoP11Il2CppClassEEEjEES9_17ReflectionMapHashIS8_EN14dense_hash_mapIS9_jSD_NS9_14EqualsComparerINS0_8equal_toIS8_EEEENS0_9allocatorISB_EEE9SelectKeyESI_SK_E23find_position_with_hashERSA_j
Nhk:b58
iQg:_Dictionary_2_make_pair_m2250450206_gshared
qCg:_ForwardingDecoder_GetChars_m4228908854
GJf:_InterpreterFactory_get_GroupCount_m2226373271
whk:b53
thk:b50
uhk:b51
Jhk:b56
Khk:b57
xhk:b54
yhk:b55
ntf:_SimpleCollator_IsSafe_m310268646
h_d:_X509Certificate_get_RawData_m2387471414
wjk:_glDetachShader__wrapper
Q2d:_ArrayTypeMismatchException__ctor_m3375008173
rbf:_Transform_1_BeginInvoke_m1757796657_gshared
Omh:__Z88RuntimeInvoker_Int32_t2950945753_UIVertex_t4057497605_UIVertex_t4057497605_RuntimeObjectPFvvEPK10MethodInfoPvPS4_
icc:__ZN10GameObject12CleanupClassEv
Dqa:__ZN9GfxDevice25SetShaderPropertiesSharedERK19ShaderPropertySheet
dvd:_BaseMeshEffect_get_graphic_m1852367505
gae:_CaseInsensitiveHashCodeProvider_GetHashCode_m2168170016
G5b:__ZN19SpriteMeshGenerator4path9clip_edgeEi
Cbc:__ZL25InitializeDefaultMaterialv
red:__Z53Register_UnityEngine_CanvasRenderer_get_materialCountv
ope:_PropertyBuilder_GetCustomAttributes_m3798356764
aue:_PropertyInfo_get_MemberType_m2794839864
r8i:_EventTrigger_RemoveRule_m1596811726
a5e:_Comparer_1_System_Collections_IComparer_Compare_m4179495191_gshared
jNa:__ZN17PersistentManager12UnloadStreamERKN4core12basic_stringIcNS0_20StringStorageDefaultIcEEEEb
XPa:__ZN10MemoryFile4ReadEyyPvPy
fhg:_Array_InternalArray__Insert_TisUICharInfo_t75501106_m2924156520_gshared
Tdg:_MonoProperty_GetterAdapterFrame_TisRuntimeObject_TisRuntimeObject_m458718082_gshared
Z6a:__ZN13ScreenManager17RequestResolutionEiibi
zKj:_il2cpp_unity_liveness_calculation_from_statics
ly:__ZNK26AnimatorControllerPlayable11DerivesFromE17ScriptingClassPtr
q2e:_InternalEnumerator_1_System_Collections_IEnumerator_get_Current_m2649471526_gshared
J6:__ZN8Renderer8TransferI17RemapPPtrTransferEEvRT_
bqa:__ZN13GfxDeviceGLES26UpdateViewProjectionMatrixEv
b6e:_Enumerator_System_Collections_IDictionaryEnumerator_get_Entry_m522483686_gshared
oyf:_PrivateKeyInfo_RemoveLeadingZero_m3921889925
RFg:_Thread_get_CurrentContext_m1695017876
Y7:__ZN12LineRenderer8TransferI24GenerateTypeTreeTransferEEvRT_
PZb:__Z24LookRotationToQuaternionRK8Vector3fS1_P11Quaternionf
NZb:__ZN16ReflectionProbes9GetCameraEv
Rna:__ZL18IsGpuProgramUsable20ShaderGpuProgramTypePK6Shader
Ucd:__ZN2UI6Canvas17SetSortingLayerIDEi
kWj:__ZN6il2cpp2vm11MethodStack23CleanupForCurrentThreadEv
bBh:_Collection_1_ConvertItem_m618594517_gshared
Qge:_Convert_ToUInt64_m388601487
vWa:__ZN20TierGraphicsSettings8TransferI24GenerateTypeTreeTransferEEvRT_
nuj:__ZN15dense_hashtableINSt3__24pairIK10KeyWrapperIN6il2cpp5utils13dynamic_arrayIPK10Il2CppTypeLj4EEEEPFvvEEESA_NS3_8metadata19Il2CppSignatureHashEN14dense_hash_mapISA_SD_SG_NSA_14EqualsComparerINSF_22Il2CppSignatureCompareEEENS0_9allocatorISE_EEE9SelectKeyESK_SM_E16reset_thresholdsEv
Eqg:_Mesh_get_vertices_m3585684815
xtb:__ZN14SafeBinaryRead21TransferSTLStyleArrayI13dynamic_arrayI4AABBLj4EEEEvRT_17TransferMetaFlags
gyg:_TouchScreenKeyboard_get_text_m1797464608
exc:_output_message
X_b:__ZN26CustomRenderTextureManager25UpdateCustomRenderTextureEP19CustomRenderTexturei
Oga:__ZNSt3__26__treeINS_12__value_typeIiN11TypeManager18TypeCallbackStructEEENS_19__map_value_compareIiS4_NS_4lessIiEELb1EEENS_9allocatorIS4_EEE7destroyEPNS_11__tree_nodeIS4_PvEE
bHb:__ZN13MonoBehaviour18TransferEngineDataI24GenerateTypeTreeTransferEE4PPtrI10MonoScriptERT_
PSc:__ZN16PhysicsManager2D42RegisterTransformChangeInterestForColliderEP10Collider2D
Udc:__ZNK14PlayableOutput23GetSourcePlayableUnsafeEv
Whd:__ZN11UnityEngine7Connect17XRDeviceInfoEventD0Ev
lfi:__ZL60SoapTypeAttribute_t1750930817_CustomAttributesCacheGeneratorP21CustomAttributesCache
Tie:_Binder_ConvertArgs_m2124461494
iW:__ZN21UnityDefaultAllocatorI17LowLevelAllocatorE10DeallocateEPv
Qs:__ZN15PackedIntVector8TransferI14SafeBinaryReadEEvRT_
Tzg:_Vector3__ctor_m3353183577_AdjustorThunk
WWe:_InternalEnumerator_1_System_Collections_IEnumerator_get_Current_m1514266661_gshared
Gze:_MD5SHA1_Initialize_m675470944
Peg:_Array_InternalArray__ICollection_Add_TisKeyframe_t4206410242_m442111799_gshared
ZXh:_List_1_CheckMatch_m3263549496_gshared
VH:__ZN13AudioListener8DoUpdateEv
zNd:_Int32_GetTypeCode_m1648562395_AdjustorThunk
jWd:__Z13bankers_roundd
ggb:__ZN14SafeBinaryRead8TransferI5RectTIfEEEvRT_PKc17TransferMetaFlags
Ci:_emscripten_glGenFramebuffers
Iga:__ZN17BaseObjectManager16StaticInitializeEPv
yTh:_List_1_CheckCollection_m2602703205_gshared
xDc:__Z18Transfer_BlittableI9JSONWriteLb0EyEvRK29SerializationCommandArgumentsR31RuntimeSerializationCommandInfo
s$a:__ZN13RenderTexture15ThreadedCleanupEv
ZEf:_X509BasicConstraintsExtension__ctor_m3721156175
J2a:__ZN12CubemapArray23VirtualRedirectTransferER14SafeBinaryRead
Iu:__ZN21AnimationClipPlayable16ProcessHumanPassEPK35AnimationPlayableEvaluationConstantPK32AnimationPlayableEvaluationInputP33AnimationPlayableEvaluationOutput
_Pd:_Path_GetFileName_m1354558116
Bwf:_BitConverterLE_ToDouble_m1601000678
tik:_emscripten_glUniform3i__wrapper
xug:_Rect_Contains_m1232228501_AdjustorThunk
boc:__Z43RectTransform_CUSTOM_INTERNAL_set_sizeDeltaP12Il2CppObjectRK13Vector2fIcall
XNd:_Int64_System_IConvertible_ToType_m3223988955_AdjustorThunk
_Rj:__ZN15dense_hashtableINSt3__24pairIK10KeyWrapperINS1_IPKcS4_EEEiEES6_24NamespaceAndNamePairHashN14dense_hash_mapIS6_iS9_NS6_14EqualsComparerI26NamespaceAndNamePairEqualsEENS0_9allocatorIS8_EEE9SelectKeyESD_SF_E6insertERKS8_
G6:__ZN24GenerateTypeTreeTransfer18BeginArrayTransferEPKcS1_Ri17TransferMetaFlags
$Si:_Array_InternalArray__get_Item_TisPlayableBinding_t354260709_m3837494573_gshared
Am:___syscall51
LTf:_String_CreateString_m4016935005
sZi:_MatchCollection_get_FullList_m1829231879
Em:___syscall54
F1d:_Array_GetValue_m2528415604
gNf:_SymmetricAlgorithm_Clear_m3302238152
Fvg:_Transform_INTERNAL_CALL_TransformPoint_m4261269221
c7f:_Guid_AppendShort_m791023083
tYh:_List_1__ctor_m4212503576_gshared
_oa:__ZN9ShaderLab9SubShader19CreateFromSubShaderERKS0_
kZc:_cff_builder_add_point1
hTj:__ZN6il2cpp2vm5Image21GetCachedResourceDataEPK11Il2CppImageRKNSt3__212basic_stringIcNS5_11char_traitsIcEENS5_9allocatorIcEEEE
rqb:__Z18Transfer_BlittableI14SafeBinaryReadLb0E10ColorRGBAfEvRK29SerializationCommandArgumentsR31RuntimeSerializationCommandInfo
Ba:invoke_iiiiiiiiii
gQ:__ZN11AudioSource25GetNumExtensionPropertiesEv
agg:_Array_InternalArray__ICollection_CopyTo_TisUILineInfo_t4195266810_m104406798_gshared
X6d:_Char_ToLowerInvariant_m1926695830
zlg:_Debug_LogErrorFormat_m3558239521
YAd:_Graphic_get_canvas_m3320066409
Ogf:_InputField_ActivateInputFieldInternal_m3360893886
AG:__ZN4FMOD7SystemI11createSoundEPKcjP22FMOD_CREATESOUNDEXINFOPPNS_5SoundE
Z1b:__ZN10FileSystem19SetCurrentDirectoryERKN4core12basic_stringIcNS0_20StringStorageDefaultIcEEEE
Ekg:_Component_get_gameObject_m442555142
mWd:_Math_Log_m2526073084
okc:__Z47Register_UnityEngine_Coroutine_ReleaseCoroutinev
GI:__ZN15AudioReverbZone13SetFMODValuesEv
o_:__ZN14SafeBinaryRead4InitERK16TypeTreeIteratorxx24TransferInstructionFlags10MemLabelId
Tha:__ZL19StaticDestroyShaderPv
ke:_glRenderbufferStorageMultisample
Ddc:__ZN8Playable4PlayEv
xce:_SyncHashtable_Clone_m3726939774
wz:__ZN23AnimationPlayableOutput17SetTargetAnimatorEP8Animator
UEc:__ZN9JSONWrite8TransferI13dynamic_arrayIN4math12int3_storageELj4EEEEvRT_PKc17TransferMetaFlags
FSb:__ZN22MotionVectorRenderLoopD2Ev
Blg:_Debug_LogException_m2207318968
Xdg:_Array_InternalArray__ICollection_Add_TisClientCertificateType_t1004704908_m2622721177_gshared
Ys:__ZN17PackedFloatVector8TransferI18StreamedBinaryReadILb0EEEEvRT_
K3a:__ZN7Cubemap23VirtualRedirectTransferER17RemapPPtrTransfer
Qqc:__Z37Register_UnityEngine_Screen_get_widthv
knj:_UnityAnalyticsHandler_SendCustomEvent_m1223269116
I2i:_Uri_get_Authority_m3816772302
Sec:__ZN22BlockMemoryCacheWriter11GetPathNameEv
Mxe:_BigInteger_op_Division_m3713793389
Zxg:_Touch_get_position_m3109777936
lte:_ParameterInfo__ctor_m3269320476
_Hf:_X509SubjectKeyIdentifierExtension_FromHexChars_m3244835916
qRf:_Single_CompareTo_m2785801815
gWi:_PKCS12_MAC_m3355614022
up:stackAlloc
Qkc:__Z44Camera_CUSTOM_INTERNAL_CALL_ScreenPointToRayP12Il2CppObjectRK8Vector3fR3Ray
hQa:__ZN25SingleBlockMemoryFileData4LockEPPv
cmk:_glProgramParameteri__wrapper
j_:__ZN17PersistentManager23PostReadActivationQueueEiPK8TypeTreeb
Fmc:__Z32RectOffset_Get_Custom_PropBottomP12Il2CppObject
vlg:_Debug_LogError_m2850623458
fyh:_Collection_1_CheckWritable_m3225530705_gshared
Cmk:_emscripten_glGetObjectParameterivARB__wrapper
$9j:_stat
$4:__ZN9ShaderLab10SubProgram7CompileEv
IKb:__ZN15InstancingProps14CombineBuiltinEN10Instancing11BuiltinPropES1_S1_
hpe:_PropertyBuilder_get_CanRead_m3783190070
Z0:__ZN14SerializedFile14SerializedTypeD2Ev
ceg:_Array_InternalArray__ICollection_Add_TisKeyValuePair_2_t3699644050_m4052349323_gshared
$Be:_CipherSuiteCollection_System_Collections_IList_get_Item_m2175128671
ULc:__ZN15b2DistanceJoint23InitVelocityConstraintsERK12b2SolverData
fTa:__ZN6CameraD2Ev
na:invoke_iiiiiiiiiiii
KWf:_DateTime_System_IConvertible_ToType_m1242864300_AdjustorThunk
apc:__Z48Register_UnityEngine_Sprite_INTERNAL_CALL_Createv
A1e:_InternalEnumerator_1_get_Current_m2446410893_AdjustorThunk
eXa:__Z29CalculateDefaultChannelsToAdd17ShaderChannelMaskS_
KSa:__ZN10TagManager13RegisterLayerEjRKN4core12basic_stringIcNS0_20StringStorageDefaultIcEEEE
kJa:__ZNSt3__26__treeI20DeviceBlendStateGLES14MemoryCompLessI16DeviceBlendStateENS_9allocatorIS1_EEE7destroyEPNS_11__tree_nodeIS1_PvEE
clj:_CanvasRenderer_SetMaterial_m633746949
CL:__ZN10AudioMixer12RebindOutputEv
ULj:__ZNK15dense_hashtableINSt3__24pairIK10KeyWrapperIP11Il2CppClassES4_EES5_N6il2cpp8metadata16SZArrayClassHashEN14dense_hash_mapIS5_S4_SA_NS5_14EqualsComparerINS9_19SZArrayClassCompareEEENS0_9allocatorIS7_EEE9SelectKeyESE_SG_E5beginEv
Sjf:_LayoutRebuilder_PerformLayoutControl_m4241054021
Opj:__ZN6il2cpp2vm17SetupFieldsLockedEP11Il2CppClassRKNS_2os12FastAutoLockE
uJb:__ZNK9GfxDevice20IsViewportFullscreenEv
fM:__ZN11AudioSourceD0Ev
ZDa:__ZN18GlslGpuProgramGLES13SwitchProgramEj
WQa:__ZN20ArchiveStorageReaderC2E10MemLabelId
W1g:__Z132RuntimeInvoker_Int32_t2950945753_RuntimeObject_Int32_t2950945753_Int32_t2950945753_RuntimeObject_Int32_t2950945753_Int32_t2950945753PFvvEPK10MethodInfoPvPS4_
Kob:__ZN16MemoryFileSystem4NameEv
Lqc:__Z13SetCopyBufferRKN4core12basic_stringIcNS_20StringStorageDefaultIcEEEE
GUi:_TlsException__ctor_m818940807
v_d:_X509CertificateEnumerator_System_Collections_IEnumerator_get_Current_m418791713
J7c:_UNITY_FT_New_Size
Iic:__Z42ScriptingGetComponentsOfTypeFromGameObjectRK26ScriptingGetComponentsArgs
xwi:__ZL73ArgumentCache_t2187958399_CustomAttributesCacheGenerator_m_ObjectArgumentP21CustomAttributesCache
wQi:_Array_swap_TisRaycastResult_t3360306849_TisRaycastResult_t3360306849_m3400922624_gshared
_dj:_AudioListener_ReadExtensionName_m929423100
QGd:_CspParameters__ctor_m2741097571
S1a:__ZNSt3__27__sort4IRPFbRKNS_4pairIN9ShaderLab16FastPropertyNameEN18UnityPropertySheet11UnityTexEnvEEES8_EPS6_EEjT0_SD_SD_SD_T_
iYc:_cf2_hintmap_build
Ixg:_Texture_get_width_m888163864
r5c:_Line_Up
re:_emscripten_glBufferSubData
mTf:_String_ReplaceUnchecked_m1381393810
f4e:_DefaultComparer_Compare_m3278268937_gshared
lq:__Z17CalculateGlobalRS23TransformAccessReadOnly
E4j:__ZNSt3__210__list_impIPN6il2cpp5utils10MemoryPool6RegionENS_9allocatorIS5_EEE5clearEv
T0e:_InternalEnumerator_1_get_Current_m1523142935_gshared
ttb:__ZN14SafeBinaryRead21TransferSTLStyleArrayI13dynamic_arrayI9BoundsIntLj4EEEEvRT_17TransferMetaFlags
alb:__ZN22MemoryCacherReadBlocks14LockCacheBlockEjPPhS1_
eBj:__ZN6il2cpp2vm14TypeNameParser17ParseAssemblyNameEv
mvc:_decompress_onepass
pab:__ZNK9GfxDevice26GetSinglePassStereoEyeMaskEv
Llg:_DebugLogHandler_Internal_Log_m4175774469
M_j:__ZN4utf88internal15increase_safelyIPKcEENS0_9utf_errorERT_S5_
Ppj:__ZN6il2cpp2vmL21SetupPropertiesLockedEP11Il2CppClassRKNS_2os12FastAutoLockE
Y6c:__ZN20TextRenderingPrivate8FontImpl16CacheFontForTextEPtiifjPK13dynamic_arrayINS_16TextFormatChangeELj4EE
g7d:_CharEnumerator_get_Current_m525608209
Npd:__Z21ArrayElementTypeCheckP11Il2CppArrayPv
glk:_emscripten_glTexSubImage2D__wrapper
C0f:_StackTrace_init_frames_m641783388
MEf:_PublicKey_DecodeRSA_m1824703659
Vbk:__ZNSt3__212basic_stringIcNS_11char_traitsIcEENS_9allocatorIcEEE6appendEjc
JUc:__ZN16PhysicsManager2D20WorldContactFilter2D13ShouldCollideEP9b2FixtureS2_
xfd:__Z42Register_UnityEngine_Canvas_get_rootCanvasv
c8d:_ArrayListWrapper_set_Item_m3849584877
_e:_TTF_RenderText_Solid
WRh:_List_1__ctor_m3947764094_gshared
z1i:_Parser_IsIgnorePatternWhitespace_m2107132682
YBf:_HttpRequestCreator_Create_m400548686
Wld:__ZN11UnityEngine7Connect16PersistentValuesC2Ev
GHh:_ReadOnlyCollection_1_System_Collections_IList_Insert_m134149130_gshared
bDc:__Z18Transfer_BlittableI9JSONWriteLb0E5RectTIiEEvRK29SerializationCommandArgumentsR31RuntimeSerializationCommandInfo
xuf:_BigInteger_get_Rng_m4216817480
rXc:_cf2_getStdVW
W8f:_Array_InternalArray__ICollection_Remove_TisDateTime_t3738529785_m2250893026_gshared
pEa:__Z15IsIEEE754Format14GraphicsFormat
nvb:__Z19TransferField_ArrayI17RemapPPtrTransfer27Converter_UnityEngineObjectEvRK23StaticTransferFieldInfoR31RuntimeSerializationCommandInfoRT0_
ab:invoke_iifiii
Vae:_KeyNotFoundException__ctor_m541499307
rag:_SetPropertyUtility_SetStruct_TisSpriteState_t1362986479_m665096788_gshared
q2g:__Z61RuntimeInvoker_Single_t1397266774_RuntimeObject_RuntimeObjectPFvvEPK10MethodInfoPvPS4_
a9f:_Array_InternalArray__ICollection_Remove_TisIntPtr_t_m3807208150_gshared
gfh:__Z71RuntimeInvoker_Void_t1185182177_Vector3_t3722313464_Vector3_t3722313464PFvvEPK10MethodInfoPvPS4_
_Ze:_InternalEnumerator_1_get_Current_m2316281569_AdjustorThunk
NVf:_DateTime__ctor_m1095105629
Yra:__ZN13GfxDeviceGLES15UploadTexture2DE9TextureID16TextureDimensionPKhiii14GraphicsFormati18TextureUploadFlags16TextureUsageMode
n3i:_Event_Cleanup_m2477919477
yK:__ZN4FMOD6System9createDSPEP20FMOD_DSP_DESCRIPTIONPPNS_3DSPE
wji:__ZL87Thread_t2300836069_CustomAttributesCacheGenerator_Thread_GetCompressedStack_m2923422412P21CustomAttributesCache
iHe:_SslClientStream_get_ClientCertificates_m998716871
yG:__ZN4FMOD8ChannelI11EndCallbackEv
laj:_U3CStartU3Ec__Iterator0_Reset_m695822495
fzc:__ZN8GUIStyle14SetDefaultFontEPN13TextRendering4FontE
r6a:__ZN15QualitySettings23VirtualRedirectTransferER24GenerateTypeTreeTransfer
mSe:_ObjectReader_ReadValue_m3145979203
Uvd:_CanvasScaler_OnDisable_m3424669401
GIi:__ZL68Scrollbar_t1494447233_CustomAttributesCacheGenerator_m_NumberOfStepsP21CustomAttributesCache
Csj:__ZN30dense_hashtable_const_iteratorINSt3__24pairIK10KeyWrapperIPK19Il2CppGenericMethodEPK26Il2CppGenericMethodIndicesEES6_N6il2cpp8metadata23Il2CppGenericMethodHashEN14dense_hash_mapIS6_SA_SE_NS6_14EqualsComparerINSD_26Il2CppGenericMethodCompareEEENS0_9allocatorISB_EEE9SelectKeyESI_SK_EppEv
XWc:_UNITY_FT_Request_Metrics
VQj:__ZN6il2cpp6icalls8mscorlib6System10Reflection10MonoMethod29get_IsGenericMethodDefinitionEP22Il2CppReflectionMethod
oNj:__ZN6il2cpp2vm6Thread21AllocThreadStaticDataEi
Yie:_Default_SelectMethod_m469311730
qog:_Input_get_mousePosition_m1616496925
io:FUNCTION_TABLE_difi
IZj:__ZN30dense_hashtable_const_iteratorINSt3__24pairIK10KeyWrapperIPK19Il2CppGenericMethodEP10MethodInfoEES6_N6il2cpp8metadata23Il2CppGenericMethodHashEN14dense_hash_mapIS6_S9_SD_NS6_14EqualsComparerINSC_26Il2CppGenericMethodCompareEEENS0_9allocatorISA_EEE9SelectKeyESH_SJ_EppEv
LLg:_UInt32_ToString_m2066897296_AdjustorThunk
uP:__Z13RegisterClassI13AudioListenerEvv
ylb:__ZN24GenerateTypeTreeTransfer19TransferSTLStyleMapINSt3__23mapI4PPtrI6ShaderEN4core12basic_stringIcNS6_20StringStorageDefaultIcEEEENS1_4lessIS5_EENS1_9allocatorINS1_4pairIKS5_SA_EEEEEEEEvRT_17TransferMetaFlags
kbe:_Enumerator_Reset_m4274366540
ACc:__Z18Transfer_BlittableI9JSONWriteLb0E8Vector3fEvRK29SerializationCommandArgumentsR31RuntimeSerializationCommandInfo
Zf:_emscripten_glUniform4i
f$c:_otv_FeatureList_validate
kf:_emscripten_glUniform4f
Jj:___unlock
n_c:_otv_validate
t0b:__ZN13sorted_vectorINSt3__24pairIN4core12basic_stringIcNS2_20StringStorageDefaultIcEEEES6_EEN10vector_mapIS6_S6_27compare_tstring_insensitiveIS6_E13stl_allocatorIS7_L18MemLabelIdentifier38ELi16EEE13value_compareESD_E9erase_oneIS6_EEjRKT_
pOf:_X509Certificate_Equals_m3784196370
d0h:_List_1__ctor_m3376067838_gshared
SM:__ZN20SoundChannelInstance19setReverbPropertiesEP29FMOD_REVERB_CHANNELPROPERTIES
kPh:_Enumerator_MoveNext_m1446151600_gshared
dMf:_SHA1Internal_ProcessFinalBlock_m1403775421
H_j:__ZN4utf88internal13validate_nextIPKcEENS0_9utf_errorERT_S5_Rj
uqc:__Z40Register_UnityEngine_Transform_IsChildOfv
wQe:_RemotingServices_GetOrCreateClientIdentity_m648299611
C3e:_InternalEnumerator_1_get_Current_m2356858238_AdjustorThunk
Mlc:__Z45Register_UnityEngine_Display_GetSystemExtImplv
Eyf:_RSAManaged_ImportParameters_m1844641996
i6e:_Enumerator_System_Collections_IDictionaryEnumerator_get_Value_m3325938730_AdjustorThunk
Iv:__ZN7mecanim9animation23TransformValuesFromClipEiiiRKNS_10ValueArrayERKNS0_10ClipOutputERKNS0_12ClipBindingsERS1_RNS_14ValueArrayMaskEb
xef:_ValueCollection_System_Collections_ICollection_get_SyncRoot_m1114275063_gshared
Qmj:__ZL17log2withScale_128yyi
U6f:_Guid_Equals_m1866984197
Dbd:__ZNSt3__218__insertion_sort_3IRNS_6__lessIN2UI14DepthSortEntryES3_EEPS3_EEvT0_S7_T_
Fhe:_PlatformNotSupportedException__ctor_m1787918017
Gea:__ZN13RuntimeStaticI15DirectorManagerLb0EE16StaticInitializeEPv
MEh:_ReadOnlyCollection_1_System_Collections_ICollection_CopyTo_m2643246984_gshared
Ueb:__ZN11TimeManager6UpdateEv
YPh:_Enumerator_System_Collections_IEnumerator_get_Current_m209407522_gshared
Nvd:_CanvasScaler_get_fallbackScreenDPI_m2811935689
DWf:_DateTimeFormatInfo_ReadOnly_m890935083
gak:_fflush
p4:__ZN17LightProbeContext4InitERK16LightmapSettingsRK14RenderSettings
MVb:__ZN18DeferredRenderLoop14RenderLightingER21ActiveLightingContextP13RenderTexture9TextureIDPS3_iRK8Vector4fRK14LightingLayersR10MinMaxAABBb12ObjectHandleI17RenderSurface_TagP17RenderSurfaceBaseE
uwg:_SceneManager_Internal_ActiveSceneChanged_m3676176255
a1f:_Double_System_IConvertible_ToInt16_m3591921965
A9a:__ZN9Texture3DD2Ev
Oyh:_Collection_1_set_Item_m4280581817_gshared
uee:_Convert_ToChar_m2796006345
ehg:_Array_InternalArray__Insert_TisContentType_t1787303396_m3566390691_gshared
x8d:_ArrayListWrapper_GetEnumerator_m2336495952
cYb:__Z34ProcessIndexListIsNodeVisibleStep2RK22SceneCullingParametersPK9SceneNodePK4AABBR9IndexList
lHb:__ZN10MonoScriptD2Ev
lIa:__ZN19ConstantBuffersGLES8UpdateCBE5CbKeyPKvj
Edj:_AudioSource_get_spatializeInternal_m2117549793
anc:__Z39Input_CUSTOM_INTERNAL_get_mousePositionP8Vector3f
B1d:_SimpleEnumerator__ctor_m353509656
U0c:_tt_cmap13_char_next
ODi:__ZL117EventSystem_t1003666588_CustomAttributesCacheGenerator_EventSystem_t1003666588____lastSelectedGameObject_PropertyInfoP21CustomAttributesCache
Xoa:__ZN9ShaderLab4Pass16SetupPassOptionsEv
oh:_JS_Sound_ReleaseInstance
Vqa:__ZN13GfxDeviceGLES19DrawBuffersIndirectEP9GfxBufferPK18VertexStreamSourceiP17VertexDeclaration17ShaderChannelMask16GfxPrimitiveType15ComputeBufferIDj
G6f:_Guid_CheckArray_m921056615
nKe:_ConfigHandler_ReadLifetine_m208994800
_Jg:_UInt16_System_IConvertible_ToByte_m3185614807_AdjustorThunk
bug:_Rect_get_max_m350137314_AdjustorThunk
Pm:FUNCTION_TABLE_diddi
BNj:__ZN6il2cpp6icalls8mscorlib6System5Array8FastCopyEP11Il2CppArrayiS5_ii
voc:__Z26Material_CUSTOM_SetIntImplP12Il2CppObjectii
Smc:__Z42Register_UnityEngine_RectOffset_get_bottomv
J9j:_newlocale
utb:__ZN9BoundsInt8TransferI14SafeBinaryReadEEvRT_
hjk:_emscripten_glUniform1f__wrapper
Vdk:dynCall_di
wmg:_BaseInvokableCall_AllowInvoke_m878393606
hCc:__Z28RegisterModule_JSONSerializev
Slb:__ZN2UI13RectTransform8TransferI14SafeBinaryReadEEvRT_
tDc:__Z35Transfer_Blittable_FixedBufferFieldI9JSONWriteaEvRK29SerializationCommandArgumentsR31RuntimeSerializationCommandInfo
Big:_Behaviour_get_enabled_m753527255
Fgc:__Z20IsHumanControllingUsv
ZW:__ZNK20DynamicHeapAllocatorI17LowLevelAllocatorE10GetPtrSizeEPKv
mai:__ZL51TextInfo_t3810425522_CustomAttributesCacheGeneratorP21CustomAttributesCache
yNa:__ZN10systeminfo21GetPersistentDataPathEv
Iqa:__ZN13GfxDeviceGLES17DestroyGpuProgramEPK10GpuProgram
WNi:_Array_InternalArray__set_Item_TisRaycastResult_t3360306849_m730888808_gshared
Qpb:__Z44InitializeTransferFunctionScriptingTraitsForI18StreamedBinaryReadILb0EEEvR31TransferFunctionScriptingTraits
gUb:__ZNSt3__218__insertion_sort_3IR23CompareReflectionProbesP31RuntimeReflectionProbeBlendInfoEEvT0_S5_T_
xvb:__ZN12NativeBufferI27Converter_SimpleNativeClassI8GradientEE15SetupForWritingER9ArrayInfo
dvf:_Kernel_RightShift_m2207393597
oha:__ZNSt3__213__stable_sortIRNS_4lessIN4core12basic_stringIcNS2_20StringStorageDefaultIcEEEEEENS_11__wrap_iterIPS6_EEEEvT0_SC_T_NS_15iterator_traitsISC_E15difference_typeEPNSF_10value_typeEi
LLi:__ZL48Shadow_t773074319_CustomAttributesCacheGeneratorP21CustomAttributesCache
i9:__ZN12_GLOBAL__N_113StaticDestroyEPv
Ynk:_glUnmapBuffer__wrapper
$Gc:__ZN8JSONRead21TransferSTLStyleArrayINSt3__26vectorI8Gradient13stl_allocatorIS3_L18MemLabelIdentifier1ELi16EEEEEEvRT_17TransferMetaFlags
pfb:__ZNSt3__218__insertion_sort_3IRNS_6__lessINS_4pairIPKN5Unity4TypeE7Hash128EES8_EEPS8_EEvT0_SC_T_
Sff:_InputField_set_onValueChanged_m3658917578
fxb:__ZN10RectOffset8TransferI24GenerateTypeTreeTransferEEvRT_
kPd:_BinaryReader__ctor_m2266204403
NBe:__ZN21InterfaceFuncInvoker5IiP22ByteU5BU5D_t4116647657iiS1_iE6InvokeEjP11Il2CppClassP12Il2CppObjectS1_iiS1_i
uOc:__ZN22b2EdgeAndCircleContact8EvaluateEP10b2ManifoldRK11b2TransformS4_
VTc:__ZNK10Collider2D15GetAttachedBodyEv
Q_g:_Enumerator_VerifyState_m3047769867_AdjustorThunk
rwb:__Z18Transfer_BlittableI24GenerateTypeTreeTransferLb1E5RectTIiEEvRK29SerializationCommandArgumentsR31RuntimeSerializationCommandInfo
Wyc:__ZN16GUIKeyboardStateD2Ev
nbd:__ZN2UI13CanvasManager19RemoveDirtyRendererEPNS_6CanvasEPNS_14CanvasRendererE
L8j:_isspace
VQe:_BinaryFormatter__ctor_m2620705134
Jid:__ZN11UnityEngine15PlatformWrapper25GetGraphicsRendererStringEv
cEg:_UTF7Encoding_InternalGetBytes_m797138468
GV:__ZN11UnityEngine15CloudWebService17WebFileDownloaderINS0_20WebRequestRestClientENS0_23WebRequestRestHeaderMapEED2Ev
Yb:invoke_vi
Z_d:_SmallXmlParser_HandleWhitespaces_m549588711
IEc:__ZN9JSONWrite8TransferI13dynamic_arrayI9BoundsIntLj4EEEEvRT_PKc17TransferMetaFlags
Wb:invoke_vd
wb:invoke_vf
oZi:_Regex_get_RightToLeft_m2317867572
_3:__ZNK10GameObject8IsActiveEv
tlc:__Z34Component_Get_Custom_PropTransformP12Il2CppObject
$Bi:__ZL67g_UnityEngine_PhysicsModule_Assembly_CustomAttributesCacheGeneratorP21CustomAttributesCache
ODa:__ZN18GfxFramebufferGLES23SetupDefaultFramebufferEPP17RenderSurfaceBaseS2_N2gl6HandleILNS3_10ObjectTypeE9EEE
Eyd:_DefaultControls_CreateDropdown_m3286664171
v7a:__ZN13ScreenManager18RequestOrientationE17ScreenOrientation
lqj:__ZN6il2cpp2vm5Class12SetupMethodsEP11Il2CppClass
hic:__Z39DeleteLastPathNameComponentWithAnySlashRKN4core12basic_stringIcNS_20StringStorageDefaultIcEEEE
fyc:__ZN10GUIManager14InitGUIManagerEv
AKg:_UInt16_Equals_m642257745
f1d:_Array_System_Collections_IList_IndexOf_m3301661616
vie:_AssemblyFileVersionAttribute__ctor_m3720707642
pve:_RuntimeResourceSet_CloneDisposableObjectIfPossible_m2725520898
oAc:__Z37Register_UnityEngine_GUIStyle_Cleanupv
Pa:invoke_iiifii
oqf:_SliderEvent__ctor_m3149452941
rZd:_DeriveBytes__cctor_m1212925033
mBd:_Graphic_OnDisable_m1097930217
dzj:__ZN6il2cpp6icalls8mscorlib6System8MonoType13IsPointerImplEP20Il2CppReflectionType
$i:_emscripten_glFramebufferRenderbuffer
RWb:__ZN19CullingGroupManager17CullAndSendEventsERK22SceneCullingParametersiRK13CullingOutputRK8JobFence
hSa:__ZN9Transform30EnsureTransformHierarchyExistsEv
wIg:_Type_FilterName_impl_m2651733559
V1d:_Array_GetValue_m116098292
_jc:__Z46Register_UnityEngine_Application_get_isPlayingv
h0b:__ZNSt3__26vectorINS_4pairIN4core12basic_stringIcNS2_20StringStorageDefaultIcEEEEPK17MessageIdentifierEENS_9allocatorISA_EEE12__move_rangeEPSA_SE_SE_
qQb:__ZN14qsort_internal17MedianOfThreeSwapIP17RODataReplacement19ROSorterReplacementEEvT_S4_S4_T0_
pSf:_String_Split_m3646115398
bvg:_RectOffset_ToString_m2007443979
bpj:__ZNK15dense_hashtableINSt3__24pairIK10KeyWrapperIPK22Il2CppGenericParameterEP11Il2CppClassEES6_N6il2cpp5utils11PointerHashIS4_EEN14dense_hash_mapIS6_S9_SE_NS6_14EqualsComparerINS0_8equal_toIS5_EEEENS0_9allocatorISA_EEE9SelectKeyESJ_SL_E3endEv
cic:__ZN17TransformInternal36OnScaleChangedCalculateTransformTypeE15TransformAccess
kOa:__ZN17ArchiveFileSystem10ToAbsoluteEPKc
d5i:_GUILayoutGroup_CalcHeight_m1669391299
vjd:__ZN19UnityConnectService15GetPlayerUserIdEv
kdg:_Array_InternalArray__IndexOf_TisSByte_t1669577662_m4156538463_gshared
Fr:__ZN7mecanim6CRCKeyENS_7eStringE
wfc:__ZL12SetPrefValueRKN4core12basic_stringIcNS_20StringStorageDefaultIcEEEERK9PrefValue
cab:__ZN19ShaderPropertySheet20ReservePropertyCountEj
s_j:__ZN6il2cpp5utils11StringUtils6PrintfEPKcz
iMj:__ZNSt3__26vectorIN6il2cpp8metadata18GenericArrayMethodENS_9allocatorIS3_EEE7reserveEj
Bna:__ZN15NameToObjectMapI6ShaderNSt3__23mapI4PPtrIS0_EN4core12basic_stringIcNS5_20StringStorageDefaultIcEEEENS1_4lessIS4_EENS1_9allocatorINS1_4pairIKS4_S9_EEEEEENS1_8multimapIS9_S4_NSA_IS9_EENSC_INSD_IKS9_S4_EEEEEEE4FindERSK_
h3a:__ZN24GenerateTypeTreeTransfer21TransferResourceImageE19ActiveResourceImagePKcR13StreamingInfoPvjiPKN5Unity4TypeE
eQi:_Array_Sort_TisVector3_t3722313464_m1030213405_gshared
MVj:__ZN6il2cpp2vm6Object5CloneEP12Il2CppObject
Usc:_UNITY_png_zstream_error
d6j:__ZN6il2cpp6icalls8mscorlib6System9Threading5Mutex20CreateMutex_internalEbP12Il2CppStringPb
snk:_emscripten_glLinkProgram__wrapper
Skg:_Coroutine_Finalize_m1957108547
d6i:_KeyBuilder_Key_m2503211157
KYa:__ZNSt3__212__deque_baseI18ReflectionProbeJobNS_9allocatorIS1_EEED2Ev
$z:__ZN11UnityEngine9Animation27DestroyAnimationSetBindingsEPNS0_20AnimationSetBindingsERN7mecanim6memory9AllocatorE
kja:__ZN15dense_hashtableINSt3__24pairIKiN4core17string_with_labelILi1EEEEEi18SInt32HashFunctionN14dense_hash_mapIiS5_S7_NS0_8equal_toIiEE13stl_allocatorIS6_L18MemLabelIdentifier1ELi16EEE9SelectKeyESA_SD_E13set_empty_keyERKS6_
Hkg:_Component_GetComponentInChildren_m388868270
tYg:_GenericEqualityComparer_1_Equals_m1705889345_gshared
JE:__ZN8Animator12CleanupClassEv
ZGc:__Z13TransferFieldI8JSONReadLb0E27Converter_SimpleNativeClassI10RectOffsetEEvRK23StaticTransferFieldInfoR31RuntimeSerializationCommandInfoRT1_
UBf:_FtpWebRequest__cctor_m699542155
mTj:__GLOBAL__sub_I_GenericMetadata_cpp
kaj:_U3CStartU3Ec__Iterator0_Dispose_m2253585971
TAf:_NameObjectCollectionBase_GetEnumerator_m3677320185
FXb:__Z24CalculateSpotLightBoundsffRK10Matrix4x4fR15SpotLightBounds
BPg:_Dictionary_2_TryGetValue_m3495031886_gshared
B_a:__ZNK13RenderTexture21GetShadowSamplingModeEv
PR:__ZN23CloudWebServicesManager23VirtualRedirectTransferER14SafeBinaryRead
Vzf:_PKCS12_AddCertificate_m3857004455
TGb:__Z19ShouldTransferFieldR32SerializationCommandQueueBuilder17ScriptingClassPtriR18TransferField_InfoRK20CoreScriptingClasses
HPf:_SecurityElement_IsValidText_m1346599242
LIa:__ZN26SinglePassStereoSupportExt21SetStereoMatrixCommonE21MonoOrStereoscopicEye24BuiltinShaderMatrixParamRK10Matrix4x4f
gL:__ZN5audio5mixer22UpdateAudioMixerMemoryERKNS0_18AudioMixerConstantERNS0_16AudioMixerMemoryEfPN4FMOD6SystemEf
iWc:__ZL21InitializeCachedStripPv
UPg:_Dictionary_2_System_Collections_Generic_ICollectionU3CSystem_Collections_Generic_KeyValuePairU3CTKeyU2CTValueU3EU3E_Add_m3652125112_gshared
wOj:__ZN6il2cpp6icalls8mscorlib6System9Threading6Thread23GetCachedCurrentCultureEP12Il2CppThread
QY:__ZNK6Camera22GetWorldToCameraMatrixEv
adk:runPostSets
aWj:__ZN6il2cpp2vm12GenericClass11IsValueTypeEP18Il2CppGenericClass
OFb:__ZN13MonoBehaviour7SetNameEPKc
COe:_MethodDictionary_IsOverridenKey_m946843558
BRd:_FileStream_BeginRead_m2419864669
lcj:_U3CStartU3Ec__Iterator0_MoveNext_m4270440387_gshared
Ytj:__ZN10KeyWrapperIN6il2cpp5utils13dynamic_arrayIPK10Il2CppTypeLj4EEEEC2ERKS7_
JKb:__ZN17InstancingBatcher22FindCBUpperBoundKonstsEv
W8:__GLOBAL__sub_I_runtime_shaders_shaderimpl_0_cpp
Nib:__ZN18AwakeFromLoadQueue5ClearEv
ZRd:_FileStream_SetLength_m99749826
gWb:__ZNSt3__27__sort5IR15ReflProbeSorterPP15ReflectionProbeEEjT0_S6_S6_S6_S6_T_
tfa:__ZN8Playable10DisconnectEPS_i
Gk:_glGenTransformFeedbacks
$Ma:__ZN13LoadOperationD2Ev
JKd:_Int16_System_IConvertible_ToType_m3672347013
pJg:_Type_GetProperty_m4206634422
G$d:_AttrListImpl_GetValue_m3657391095
EJb:__Z21PlayerStartFirstSceneb
K0h:_List_1_CheckIndex_m3933537097_gshared
T1a:__ZNSt3__27__sort5IRPFbRKNS_4pairIN9ShaderLab16FastPropertyNameEN18UnityPropertySheet11UnityTexEnvEEES8_EPS6_EEjT0_SD_SD_SD_SD_T_
$va:__ZNK7ApiGLES18GetExtensionStringEv
k0h:_List_1_System_Collections_IList_IndexOf_m2444653486_gshared
ijk:_emscripten_glVertexAttrib1f__wrapper
Tmb:__ZNK12HandlerChain4SizeERK13FileEntryData
sp:FUNCTION_TABLE_iiiiiiiii
jFh:_ReadOnlyCollection_1_System_Collections_Generic_ICollectionU3CTU3E_Remove_m4177779688_gshared
KJc:__Z22GetPhysicsGroundBody2Dv
N6d:_Char_IsLetter_m3996985877
A1h:_Queue_1_Peek_m2302800625_gshared
c1j:_GC_allochblk
Xib:__Z15UnloadGameScenev
Vfg:_Array_InternalArray__ICollection_CopyTo_TisKeyframe_t4206410242_m2132255743_gshared
Tnk:_glCheckFramebufferStatus__wrapper
UCd:_Image__ctor_m2551076292
lOg:_Dictionary_2_System_Collections_ICollection_CopyTo_m3143696177_gshared
p4g:__Z103RuntimeInvoker_Void_t1185182177_Int32_t2950945753_Int32_t2950945753_Int32_t2950945753_SByte_t1669577662PFvvEPK10MethodInfoPvPS4_
Vqc:__Z36Renderer_Get_Custom_PropSortingOrderP12Il2CppObject
ODj:__ZNK15dense_hashtableINSt3__24pairIK10KeyWrapperIPK10Il2CppTypeEjEES6_N6il2cpp8metadata14Il2CppTypeHashEN14dense_hash_mapIS6_jSB_NS6_14EqualsComparerINSA_26Il2CppTypeEqualityComparerEEENS0_9allocatorIS8_EEE9SelectKeyESF_SH_E13find_positionERS7_
r_a:__ZN7Texture5ResetEv
HNc:__ZNK14b2CapsuleShape7RayCastEP15b2RayCastOutputRK14b2RayCastInputRK11b2Transformi
FLe:_Context_get_HasDynamicSinks_m3952434387
sCg:_Latin1Encoding_GetByteCount_m1145650505
Ivb:__Z18Transfer_BlittableI24GenerateTypeTreeTransferLb1EhEvRK29SerializationCommandArgumentsR31RuntimeSerializationCommandInfo
Gyc:__ZN8GUIState18CycleKeyboardFocusERNSt3__26vectorIP6IDListNS0_9allocatorIS3_EEEEb
CCb:__Z13TransferFieldI18StreamedBinaryReadILb1EELb0E16Converter_StringEvRK23StaticTransferFieldInfoR31RuntimeSerializationCommandInfoRT1_
Ijc:__ZNK16TypeTreeIterator10ByteOffsetEv
pek:dynCall_iiifii
pea:__ZnwjRKSt9nothrow_t
jD:__ZN8Animator11ClearObjectEv
WKh:_Nullable_1_GetHashCode_m4232053575_gshared
A0d:_ApplicationException__ctor_m2557611022
M0a:__ZN14SafeBinaryRead19TransferSTLStyleMapINSt3__23mapI39DeprecatedFastPropertyNameSerializationN18UnityPropertySheet11UnityTexEnvENS1_4lessIS3_EENS1_9allocatorINS1_4pairIKS3_S5_EEEEEEEEvRT_17TransferMetaFlags
RZh:_List_1_CheckMatch_m579516778_gshared
L4d:_Buffer_ByteLengthInternal_m1388208719
ufg:_Array_InternalArray__ICollection_CopyTo_TisInt64_t3736567304_m2845057751_gshared
Djc:__Z35UnregisterSerializationCacheBuilderPFv17ScriptingClassPtrR23CachedSerializationDataRbE
$Nd:_Int64_System_IConvertible_ToUInt32_m109903525_AdjustorThunk
I4:__Z30GetBuiltinVectorParamArraySize24BuiltinShaderVectorParam
$fg:_Array_InternalArray__ICollection_CopyTo_TisUICharInfo_t75501106_m4268526610_gshared
k_a:__ZN13RenderTextureC2E10MemLabelId18ObjectCreationMode
ZKd:_Int32_GetFormatException_m519586683
Dii:__ZL46StringBuilder_t_CustomAttributesCacheGeneratorP21CustomAttributesCache
r_g:_Enumerator_MoveNext_m1131351993_gshared
Mhe:_RankException__ctor_m2226473861
iTi:_Array_InternalArray__get_Item_TisVector2_t2156229523_m2502961026_gshared
g7:__ZN21RendererUpdateManager11AddRendererER8Renderer
t7b:__Z13RegisterClassI15ResourceManagerEvv
uej:_AudioConfigurationChangeHandler_Invoke_m1233557945
zqb:__Z35Transfer_Blittable_FixedBufferFieldI14SafeBinaryReadsEvRK29SerializationCommandArgumentsR31RuntimeSerializationCommandInfo
fbb:__ZN14SafeBinaryRead21TransferSTLStyleArrayI13dynamic_arrayIfLj4EEEEvRT_17TransferMetaFlags
yee:_Convert_ToDateTime_m3802186295
t_j:__ZN6il2cpp5utils11StringUtils11Utf16ToUtf8EPKDs
whb:__ZN18StreamedBinaryReadILb0EE21TransferSTLStyleArrayINSt3__26vectorIN15ResourceManager10DependencyE13stl_allocatorIS5_L18MemLabelIdentifier52ELi16EEEEEEvRT_17TransferMetaFlags
tMg:_UInt64_CompareTo_m1614517204_AdjustorThunk
_id:__ZN11UnityEngine15PlatformWrapper20IsRootedOrJailbrokenEv
nNb:__ZZ23InitPlayerLoopCallbacksvEN52PreLateUpdateScriptRunBehaviourLateUpdateRegistrator7ForwardEv
AXb:__Z33IntersectAABBPlaneBoundsOptimizedRK4AABBPKN4math7_float4Ei
Zqa:__ZN9GfxDevice19EndGeometryJobFrameEv
$3i:_GUILayoutUtility_Layout_m1159951704
$ef:_InputField_get_shouldActivateOnSelect_m3055465770
Cvb:__ZN27Converter_SimpleNativeClassI17AnimationCurveTplIfEE17ScriptingToNativeER18ScriptingObjectPtrPS1_
vIg:_Type__cctor_m2371893800
Q6j:__ZN6il2cpp8metadata24Il2CppGenericInstCompare7CompareERK10KeyWrapperIPK17Il2CppGenericInstES8_
zsj:__ZNK15dense_hashtableINSt3__24pairIK10KeyWrapperIPK19Il2CppGenericMethodEPK26Il2CppGenericMethodIndicesEES6_N6il2cpp8metadata23Il2CppGenericMethodHashEN14dense_hash_mapIS6_SA_SE_NS6_14EqualsComparerINSD_26Il2CppGenericMethodCompareEEENS0_9allocatorISB_EEE9SelectKeyESI_SK_E5beginEv
Qqd:_ExecuteEvents_Execute_m3049310229
Ut:__ZN27AnimationLayerMixerPlayable21UpdateLayerParametersEv
ykc:__Z33Camera_Set_Custom_PropFieldOfViewP12Il2CppObjectf
k3b:__ZNK17AnimationCurveTplIfE8EvaluateEfPNS0_5CacheE
rMb:__Z31ManagerContextInitializeClassesv
sFh:_ReadOnlyCollection_1_System_Collections_IList_Contains_m2650112051_gshared
y7f:_Array_get_swapper_TisVector3_t3722313464_m1221246401_gshared
w2c:_UNITY_FT_List_Finalize
gY:__ZThn32_N12LineRendererD1Ev
tRb:__Z20LightAttenuateApproxRKfS0_
n8:__ZN9Scripting30SetCachedPtrOnScriptingWrapperE18ScriptingObjectPtrP6Object
Wqg:_Mesh_GetIndices_m2873123901
tJf:_RepeatContext_get_IsMinimum_m3640286252
zLc:__ZN16b2PrismaticJoint4DumpEv
XSe:_ObjectRecord_ChainFixup_m1889316362
NVa:__ZN18BlockRangeInternal16PopLastNodeIndexEP10BlockRangeji
O$j:__ZN6il2cpp2vm13CachedCCWBaseINS0_13ManagedObjectEE6AddRefEv
dud:_TouchInputModule_UpdateModule_m2582897964
Bab:__ZN4MeshD0Ev
sod:__ZL42RequestRecreateEyeTexturesBeforeNextUpdatev
FFa:__ZNK6Camera20IsCurrentlyRenderingEv
Hv:__ZN21AnimationClipPlayable23ProcessRootMotionNoClipEPK35AnimationPlayableEvaluationConstantPK32AnimationPlayableEvaluationInputP33AnimationPlayableEvaluationOutput
aed:__Z36CanvasRenderer_CUSTOM_SetPopMaterialP12Il2CppObjectS0_i
ADc:__Z18Transfer_BlittableI9JSONWriteLb0EdEvRK29SerializationCommandArgumentsR31RuntimeSerializationCommandInfo
Y_c:_otv_u_O_O_u_O_O
WKc:__ZNK11b2GearJoint16GetReactionForceEf
sZf:_DBNull_System_IConvertible_ToSByte_m3533624679
e9j:_wctomb
D6d:_Char_CompareTo_m42489266
kwc:_jpeg_CreateDecompress
Loh:__Z67RuntimeInvoker_Void_t1185182177_Int32_t2950945753_Double_t594665363PFvvEPK10MethodInfoPvPS4_
Tkc:__Z27Camera_CUSTOM_GetAllCamerasP11Il2CppArray
ed:___cxa_rethrow
Rte:_ParameterInfo_GetCustomAttributes_m2376494592
dFc:__Z18Transfer_BlittableI8JSONReadLb1EhEvRK29SerializationCommandArgumentsR31RuntimeSerializationCommandInfo
eBd:_Graphic_get_canvasRenderer_m315509948
rvh:_Collection_1_System_Collections_IList_Contains_m3397768605_gshared
Sfh:__Z90RuntimeInvoker_Void_t1185182177_Int64_t3736567304_Int32_t2950945753_RuntimeObject_IntPtr_tPFvvEPK10MethodInfoPvPS4_
HPc:__ZN18Overlap2DQueryBase13ReportFixtureEP9b2Fixture
k5f:_CultureInfo_construct_internal_locale_from_name_m3254739477
NGe:_RSASslSignatureDeformatter_VerifySignature_m1061897602
u_b:__ZN13MonoBehaviour8SetClassE17ScriptingClassPtr18ScriptingObjectPtr
kJd:_RandomNumberGenerator_Create_m4162970280
Ggg:_Array_InternalArray__Insert_TisLabelFixup_t858502054_m171542753_gshared
W2e:_InternalEnumerator_1_System_Collections_IEnumerator_get_Current_m3539708496_AdjustorThunk
Hnb:__ZN20LocalFileSystemPosix4ReadER13FileEntryDatayyPvPy
RUb:__ZNSt3__211__sift_downIRN23ForwardShaderRenderLoop18RenderObjectSorterILb0EEEP21ForwardRenderPassDataEEvT0_S7_T_NS_15iterator_traitsIS7_E15difference_typeES7_
sOf:_SecurityPermission__ctor_m1462427327
Ifk:dynCall_iiiiiiffiiiiiiiiiffffiiii
cGb:__ZN13MonoBehaviour5DoGUIENS_13GUILayoutTypeEii
tJe:_ChannelData_get_ClientProviders_m594662942
F_i:_QuickSearch_GetChar_m1297698557
RLa:__ZNK12TLSAllocatorI14StackAllocatorE8ContainsEPKv
Web:__ZN11TimeManager8TransferI18StreamedBinaryReadILb0EEEEvRT_
H0g:__Z68RuntimeInvoker_Boolean_t97287965_Int16_t2552820387_SByte_t1669577662PFvvEPK10MethodInfoPvPS4_
RXf:_DateTime__ParseEnum_m253019513
Dge:_Convert_ToUInt32_m2194577773
Oab:__ZN14BlendShapeData8TransferI14SafeBinaryReadEEvRT_
x7:__ZN15dense_hashtableINSt3__24pairIKyP17VertexDeclarationEEy14GfxGenericHashIyEN14GfxDoubleCacheIyS4_S7_NS0_8equal_toIyEEN31GfxDoubleCacheConcurrencyPolicy11LocklessGetE42GfxDoubleCacheDefaultEmptyDeletedGeneratorIyEE9SelectKeyESA_13stl_allocatorIS5_L18MemLabelIdentifier24ELi16EEE12resize_deltaEjj
Ebe:_Hashtable_Remove_m4032631466
Xwf:_DSAManaged_GenerateKeyPair_m2236915969
V2a:__ZN7Texture25ReloadFromStorageIfNeededEPvb
Gcg:_Array_InternalArray__IndexOf_TisBoolean_t97287965_m1161209222_gshared
H5j:__ZN6il2cpp2os12Cryptography24OpenCryptographyProviderEv
j9d:_SynchronizedArrayListWrapper_Clear_m2191301493
y3c:_Update_Max
KNj:__ZN6il2cpp6icalls8mscorlib6SystemL15ThrowNoWideningEv
H3b:__ZNK23TransformChangeDispatch24GetChangeMaskForInterestENS_12InterestTypeE
Edc:__ZN8Playable5PauseEv
Zpc:__Z45Transform_CUSTOM_INTERNAL_CALL_TransformPointP12Il2CppObjectRK8Vector3fRS1_
kne:_GenericTypeParameterBuilder_InvokeMember_m1647304778
RCd:_HorizontalOrVerticalLayoutGroup_set_childControlWidth_m3261460516
nlf:_MaskableGraphic_UnityEngine_UI_IClippable_get_gameObject_m1739855597
b1a:__ZNSt3__26__treeINS_12__value_typeI39DeprecatedFastPropertyNameSerializationfEENS_19__map_value_compareIS2_S3_NS_4lessIS2_EELb1EEENS_9allocatorIS3_EEE7destroyEPNS_11__tree_nodeIS3_PvEE
s1c:_tt_cmap4_char_index
Mud:_AspectRatioFitter_GetParentSize_m3159144324
CQf:_SecurityFrame_get_Assembly_m2874566710
$0h:_Enumerator_System_Collections_IEnumerator_Reset_m1487823313_gshared
bnb:__ZNK12HandlerChain8IsHiddenERK13FileEntryData
Sub:__ZL26Transfer_SimpleNativeClassI17RemapPPtrTransfer10RectOffsetLb0EEvRK29SerializationCommandArgumentsR31RuntimeSerializationCommandInfo
s8c:__Z14ValidateFormatR13dynamic_arrayIN20TextRenderingPrivate16TextFormatChangeELj4EE
yNd:_Int32_ToString_m2507389746_AdjustorThunk
B$f:_Decimal_op_Explicit_m438967917
kmj:_AnimatorControllerPlayable_SetHandle_m2260644454_AdjustorThunk
Eka:__ZNSt3__26vectorIN9ShaderLab20SerializedSubProgram13BufferBindingENS_9allocatorIS3_EEEC2ERKS6_
Mff:_InputField_set_selectionColor_m2084640295
pwc:__ZL17fill_input_bufferP22jpeg_decompress_struct
E4:__ZNK9ShaderLab20ShaderBlendStateDesc15ToGfxBlendStateEPK19ShaderPropertySheetS3_R13GfxBlendState
P8e:_Enumerator_System_Collections_IEnumerator_get_Current_m1747693366_AdjustorThunk
nwc:_jpeg_consume_input
Fz:__ZN11UnityEngine9AnimationL22GenericBindingCallbackEPvS1_i
d3c:_Compute_Point_Displacement
dpa:__ZN9ShaderLab9IntShaderC2Ev
kzj:__ZN6il2cpp6icalls8mscorlib6SystemL9IsPrivateEPK9EventInfo
y5j:__ZN6il2cpp6icalls8mscorlib6System10Reflection4Emit11TypeBuilder20setup_internal_classEP27Il2CppReflectionTypeBuilderS7_
ggc:__Z18TransformPoints3x4RK10Matrix4x4fPK8Vector3fjPS2_ji
ddg:_Array_InternalArray__IndexOf_TisILTokenInfo_t2325775114_m2602704009_gshared
Xsi:__ZL52Matrix4x4_t1817901843_CustomAttributesCacheGeneratorP21CustomAttributesCache
hDg:_StringBuilder_AppendFormat_m3255666490
Bhe:_OverflowException__ctor_m4029085969
$pe:_TypeBuilder_GetGenericArguments_m2872156836
Noj:__ZN13Il2CppHashMapIPK22Il2CppGenericParameterP11Il2CppClassN6il2cpp5utils11PointerHashIS1_EENSt3__28equal_toIS2_EENS9_9allocatorINS9_4pairIK10KeyWrapperIS2_ES4_EEEEEC2EjRKS8_RKSB_
vGc:__ZN8JSONRead21TransferSTLStyleArrayI31ArrayOfManagedObjectsTransfererEEvRT_17TransferMetaFlags
ANa:__Z15CreateDirectoryRKN4core12basic_stringIcNS_20StringStorageDefaultIcEEEE
zZa:__Z21CalculateGlobalMatrix23TransformAccessReadOnly
aqe:_TypeBuilder_GetGenericTypeDefinition_m1632720438
N7f:_Array_InternalArray__ICollection_Contains_TisLink_t544317964_m163190451_gshared
IYf:_DateTimeOffset_System_IComparable_CompareTo_m176229495_AdjustorThunk
mpg:_ManagedStreamHelpers_ValidateLoadFromStream_m580138133
$eb:__ZNK13BuildSettings22GetTypeVirtualInternalEv
A:tempBigIntD
S_h:_List_1_CheckIndex_m2250397830_gshared
r7b:__Z13RegisterClassI14RenderSettingsEvv
z:tempBigIntI
SJf:_Interval_get_Empty_m3617514670
hie:_Assembly_GetName_m981771927
Wx:__ZN7mecanim12statemachine24CreateStateMachineOutputEPKNS0_20StateMachineConstantEjRNS_6memory9AllocatorE
_Vj:__ZN6il2cpp2vm12GenericClass8GetClassEP18Il2CppGenericClass
yra:__ZNK9GfxDevice27GetActiveRenderSurfaceWidthEv
CFi:__ZL114StandaloneInputModule_t2760469101_CustomAttributesCacheGenerator_StandaloneInputModule_ForceAutoSelect_m2837047882P21CustomAttributesCache
Lid:__ZN11UnityEngine15PlatformWrapper28GetCleanGraphicsFixedVersionEv
llf:_MaskableGraphic_RecalculateClipping_m1772937317
afc:__ZN4core8hash_mapI12TriangleEdgei16TriangleEdgeHashNSt3__28equal_toIS1_EEEixERKS1_
RVd:_UnmanagedMemoryStream_SetLength_m3752964620
WBj:__ZN6il2cpp2vm4Type7GetTypeEPK10Il2CppType
c5b:__ZN16SpriteRenderData28PrepareRenderingDataIfNeededEv
D7c:_open_face_PS_from_sfnt_stream
GZe:_InternalEnumerator_1_get_Current_m165106323_AdjustorThunk
TDg:_UTF32Encoding_GetByteCount_m3610769032
rBa:__ZN6prcoreL17RemapGenericFloatI18TexFormatRGBAFloat17TexFormatRGBAHalfEEvPKNS_9InnerInfoE
RNb:__Z16FindCameraStacksRKNSt3__24listI4PPtrI6CameraENS_9allocatorIS3_EEEERNS_6vectorI11CameraStackNS4_ISA_EEEE
xZi:_MatchCollection_CopyTo_m3807326147
s5a:__ZN10GISettings8TransferI14SafeBinaryReadEEvRT_
Jn:FUNCTION_TABLE_vifff
LJi:__ZL54Text_t1901882714_CustomAttributesCacheGenerator_m_TextP21CustomAttributesCache
$Id:_MD5CryptoServiceProvider__ctor_m3271163125
m$b:__ZN19CustomRenderTexture12ClearGPUDataEv
A_a:__ZN13RenderTexture13ApplySettingsEv
YRe:_ObjectReader_RegisterObject_m1853376334
Noe:_ModuleBuilderTokenGenerator_GetToken_m2588853565
W3d:_Boolean_System_IConvertible_ToDecimal_m3176932461_AdjustorThunk
cf:_JS_Sound_SetListenerPosition
Bn:FUNCTION_TABLE_fiffi
Yof:_ScrollRect_OnInitializePotentialDrag_m3139711961
mFh:_ReadOnlyCollection_1_System_Collections_Generic_IListU3CTU3E_set_Item_m711370667_gshared
hje:_Default_check_arguments_with_score_m3467814020
Wkk:_glGetActiveUniform__wrapper
qUd:_StreamWriter_LowLevelWrite_m1081676583
Pea:__ZZN15DirectorManager15InitializeClassEvEN45FixedUpdateDirectorFixedSampleTimeRegistrator7ForwardEv
Tkb:__ZNK8Material16MarkDependenciesER27GarbageCollectorThreadState
vqf:_Slider_set_handleRect_m1101657556
WYf:_DateTimeOffset_ToString_m3985341516_AdjustorThunk
DDc:__ZL17Transfer_GUIStyleI9JSONWriteLb0EEvRK29SerializationCommandArgumentsR31RuntimeSerializationCommandInfo
lSb:__Z28GetHaloVertexPositionsStereoP8Vector3fRKS_S2_f
gCa:__ZN6prcoreL27StretchGenericFloatBilinearI15TexFormatRGHalfEEvPKNS_9InnerInfoE
S8:__GLOBAL__sub_I_runtime_misc_0_cpp
s6f:_SortKey_GetHashCode_m3547067087
hDb:__Z18Transfer_BlittableI18StreamedBinaryReadILb0EELb1E9BoundsIntEvRK29SerializationCommandArgumentsR31RuntimeSerializationCommandInfo
HJi:__ZL71SpriteState_t1362986479_CustomAttributesCacheGenerator_m_DisabledSpriteP21CustomAttributesCache
NEf:_PublicKey_DecodeDSA_m3490622362
qoc:__Z49Register_UnityEngine_Resources_GetBuiltinResourcev
lJg:_Type_GetMethod_m1479779718
f1c:_tt_cmap10_char_index
HUi:_TlsException__ctor_m3242533711
Aye:_BitConverterLE_GetUIntBytes_m795219058
Cce:_SortedList__ctor_m3676552745
ppj:__ZN15dense_hashtableINSt3__24pairIK10KeyWrapperIPK22Il2CppGenericParameterEP11Il2CppClassEES6_N6il2cpp5utils11PointerHashIS4_EEN14dense_hash_mapIS6_S9_SE_NS6_14EqualsComparerINS0_8equal_toIS5_EEEENS0_9allocatorISA_EEE9SelectKeyESJ_SL_E3endEv
kQ:__ZN11AudioSource24ClearExtensionPropertiesE12PropertyName
Kma:__ZN9ShaderLab22SerializedBindChannels8TransferI19StreamedBinaryWriteILb0EEEEvRT_
ctb:__ZN15SerializeTraitsI5RectTIiEE8TransferI14SafeBinaryReadEEvRS1_RT_
izc:__ZN5IMGUI20MoveWindowFromLayoutER8GUIStateiRK5RectTIfE
w_:__ZNK10MonoScript22GetScriptFullClassNameEv
LZc:_UNITY_FT_Stream_ReadUShort
Wmc:__Z51Register_UnityEngine_GUILayer_INTERNAL_CALL_HitTestv
Pia:__ZNSt3__26__treeINS_12__value_typeIN4core12basic_stringIcNS2_20StringStorageDefaultIcEEEES6_EENS_19__map_value_compareIS6_S7_NS_4lessIS6_EELb1EEE13stl_allocatorIS7_L18MemLabelIdentifier1ELi16EEE7destroyEPNS_11__tree_nodeIS7_PvEE
mGg:_Thread_get_ManagedThreadId_m1068113671
gxa:__Z13IsDepthFormat14GraphicsFormat
mgb:__ZN12AspectRatios8TransferI24GenerateTypeTreeTransferEEvRT_
LXd:_MonoType_GetFields_m4176012508
Veh:__Z73RuntimeInvoker_Single_t1397266774_Vector3_t3722313464_Vector3_t3722313464PFvvEPK10MethodInfoPvPS4_
IVc:__Z12FormatBufferPciPKcz
xVf:_CurrentSystemTimeZone_GetTimeZoneData_m2641861607
GX:__ZN12LineRenderer5ResetEv
Cpj:__ZN6il2cpp2vm5Class13GetArrayClassEP11Il2CppClassj
xtd:_StandaloneInputModule_set_inputActionsPerSecond_m4057208843
QJb:__ZN19RuntimeSceneManager18LoadSceneAsyncIntoER10UnitySceneRKN4core12basic_stringIcNS2_20StringStorageDefaultIcEEEENS_11LoadingModeEb
YCc:__Z35Transfer_Blittable_FixedBufferFieldI9JSONWritetEvRK29SerializationCommandArgumentsR31RuntimeSerializationCommandInfo
pzc:__ZN11IMGUIModule12AddGUIScriptER8ListNodeI13MonoBehaviourE
ub:invoke_difi
Y3i:_GUILayoutUtility_BeginWindow_m2240221150
Pjk:_glDeleteSamplers__wrapper
Tda:__ZL50StaticRegisterSceneLoadedCallback_LightmapSettingsPv
gAf:_HybridDictionary_set_Item_m2997363718
XMa:__ZNSt3__26__treeIiNS_4lessIiEE13stl_allocatorIiL18MemLabelIdentifier1ELi16EEE7destroyEPNS_11__tree_nodeIiPvEE
s3e:_InternalEnumerator_1_get_Current_m1477715453_AdjustorThunk
lMg:_UInt64_System_IConvertible_ToUInt32_m2784653358
Nwa:__ZN21GLESGpuProgramApplier11ApplyVectorERKN20GpuProgramParameters14ValueParameterEPK8Vector4ft
WWb:__Z17PrepareSceneNodesP11CullResults
mbj:_Quitscript_OnMouseDown_m3660950891
tFd:_SByte_System_IConvertible_ToDecimal_m2548745278
LWc:_cff_size_done
vXb:__ZN29ExtractProjectionPlanesHelperILb1EE5ApplyERK10Matrix4x4fP5Plane
lcc:__ZN13ProduceHelperI7CubemapLb0EE7ProduceE10MemLabelId18ObjectCreationMode
E$b:__ZN6Camera34UpdatePreviousViewProjectionMatrixEv
Ena:__ZN9ShaderLab11ShaderState25RemoveUnsupportedProgramsEPK6Shader
q9c:__Z28Font_Get_Custom_PropMaterialP12Il2CppObject
Jpg:_Mathf_Abs_m3281243566
TUd:_SynchronizedWriter_WriteLine_m1552352268
rhc:__Z26scripting_class_has_parent17ScriptingClassPtrS_
Rca:__ZN13RuntimeStaticI21AssetReferenceStorageLb0EE16StaticInitializeEPv
EMd:_Int32_System_IConvertible_ToByte_m3832391412_AdjustorThunk
SQ:__Z71Register_UnityEngine_AudioSource_INTERNAL_CALL_ClearExtensionPropertiesv
VC:__ZNK8Animator20IsInMatchTargetStateEv
s$e:_InternalEnumerator_1_System_Collections_IEnumerator_get_Current_m4088805473_gshared
Om:FUNCTION_TABLE_viiifiii
Wzc:__Z36Register_UnityEngine_GUI_set_changedv
OLe:_Context_GetServerContextSinkChain_m3154465897
Q4i:_GUIStyle_get_fixedHeight_m2868324709
Gfe:_Convert_ToInt64_m2075293963
Z5j:__GLOBAL__sub_I_Il2CppCodeRegistration_cpp
rx:__ZN27AnimationLayerMixerPlayable18SetInputConnectionEP8Playablei
ax:__ZN7mecanim28TransformValueArrayBlendNodeEiiiRKNS_10ValueArrayERKNS_14ValueArrayMaskERS0_RS3_RNS_16ValueArrayWeightEf
GQh:_List_1_GetIndex_m3112872964_gshared
gzd:_Dropdown_set_value_m1048320169
Gnj:_CustomEventData_Finalize_m1724721833
CWa:__ZN20TierGraphicsSettings8TransferI18StreamedBinaryReadILb0EEEEvRT_
bNd:_Int32_System_IConvertible_ToUInt64_m2502338186_AdjustorThunk
yga:__Z33CleanupCubemapGPUUtilityMaterialsPv
T0a:__ZN14SafeBinaryRead8TransferINSt3__24pairIN9ShaderLab16FastPropertyNameE10ColorRGBAfEEEEvRT_PKc17TransferMetaFlags
Gmj:__ZL9rshift128PyS_
Q_d:__ZN23InterfaceActionInvoker1IP25SmallXmlParser_t973787839E6InvokeEjP11Il2CppClassP12Il2CppObjectS1_
K$g:_Enumerator_VerifyState_m169680537_AdjustorThunk
RIj:__ZN14dense_hash_mapI10KeyWrapperINSt3__24pairIPK12PropertyInfoP11Il2CppClassEEEj17ReflectionMapHashIS8_ENS9_14EqualsComparerINS1_8equal_toIS8_EEEENS1_9allocatorINS2_IKS9_jEEEEE13set_empty_keyERSH_
Xg:_glRenderbufferStorage
ync:__Z45Register_UnityEngine_Input_get_touchSupportedv
Pid:__ZN11UnityEngine15PlatformWrapper28GetTextureFormatSupportFlagsEv
M$c:_sfnt_is_postscript
bLe:_RemotingConfiguration_RegisterWellKnownClientType_m1237674062
_1i:_Uri_EscapeString_m3864445955
yXc:_cf2_setError
Sab:__ZN14SafeBinaryRead21TransferSTLStyleArrayI13dynamic_arrayI12BoneWeights4Lj16EEEEvRT_17TransferMetaFlags
M6e:_Enumerator_MoveNext_m465222849_AdjustorThunk
OMb:__ZZ23InitPlayerLoopCallbacksvEN35PreUpdateSendMouseEventsRegistrator7ForwardEv
HFa:__ZNK6Camera25GetNormalizedViewportRectEP13RenderTextureb
hzd:_Dropdown_Awake_m3140021404
ih:_glDisable
X_a:__ZN13RenderTexture8TransferI24GenerateTypeTreeTransferEEvRT_
Izg:_Vector2_get_sqrMagnitude_m837837635
O_j:__ZN6il2cpp5utils11StringUtils15StringDuplicateEPKDsj
NE:__ZZN8Animator15InitializeClassEvEN37FunctorImpl_417kDidModifyOverrideClip4CallEPviR11MessageData
O$i:_Regex_Match_m4145799399
_v:__ZN17AnimationPlayable17ProcessRootMotionEP35AnimationPlayableEvaluationConstantP32AnimationPlayableEvaluationInputP33AnimationPlayableEvaluationOutput
hTf:_String_IsNullOrEmpty_m2969720369
ekj:_TextGenerator_GetPreferredHeight_m3514897836
Iuf:_BigInteger_LowestSetBit_m3082714978
xok:b118
yok:b119
MNb:__ZNK8Material12GetPassCountEv
wLf:_RSAParameters_t1728406613_marshal_pinvoke
$Jf:_Interval_IsDisjoint_m1532171337_AdjustorThunk
qok:b112
edk:_bitshift64Ashr
sok:b114
tok:b115
uok:b116
wok:b117
Hek:dynCall_diii
lkf:_LayoutUtility_GetFlexibleWidth_m22831835
IRe:_BinaryFormatter__ctor_m971003555
wUe:_ArrayReadOnlyList_1_ReadOnlyError_m865416608_gshared
sae:_CollectionBase_System_Collections_IList_get_Item_m3743372945
Lnj:_CustomEventData_Add_m3993893123
Gya:__ZN4crnd12crn_unpacker22decode_alpha_endpointsEv
t1h:_Queue_1__ctor_m2068090025_gshared
aYb:__Z23CullDynamicObjectsUmbraPK4AABBPKN5Umbra15OcclusionBufferER9IndexList
t1c:_tt_cmap4_char_next
I_:__ZN4core8hash_mapIi17ThreadedAwakeDataNS_4hashIiEENSt3__28equal_toIiEEE4growEi
s1g:__Z50RuntimeInvoker_Boolean_t97287965_Int16_t2552820387PFvvEPK10MethodInfoPvPS4_
Pee:_Convert_ToDecimal_m1233667008
Nhh:__Z44RuntimeInvoker_RuntimeObject_Ray_t3785851493PFvvEPK10MethodInfoPvPS4_
H_:__ZN4core8hash_mapIi17ThreadedAwakeDataNS_4hashIiEENSt3__28equal_toIiEEE4growEv
w8:__GLOBAL__sub_I_runtime_assetbundles_1_cpp
dJ:__ZN4FMOD7Channel11setPositionEjj
bi:_glBindSampler
h2j:_GC_reclaim_block
RBe:_ClientContext_get_ClientHelloProtocol_m1654639078
fi:_glGetVertexAttribiv
idf:_Enumerator_System_Collections_IEnumerator_get_Current_m1975949486_gshared
e_i:_PatternCompiler_EmitSub_m193323684
Kad:__ZN2UI11CanvasGroup23VirtualRedirectTransferER18StreamedBinaryReadILb0EE
CNd:_Int64_System_IConvertible_ToByte_m375085029
IGc:__ZN8JSONRead8TransferIbEEvRT_PKc17TransferMetaFlagsb
bIg:_TimeSpan_ToString_m1128692466
O6i:_AesManaged_CreateEncryptor_m2294080233
E3i:_Event_GetHashCode_m3559153592
M0j:_GC_promote_black_lists
xee:_Convert_ToChar_m3757390865
wHc:__Z29Transfer_Blittable_ArrayFieldI8JSONRead8Vector4fEvRT_R9ArrayInfoRK23StaticTransferFieldInfo
ko:FUNCTION_TABLE_vf
Vie:_Binder_GetDerivedLevel_m3216810447
Ko:FUNCTION_TABLE_vd
g6e:_Enumerator_System_Collections_IDictionaryEnumerator_get_Value_m3325938730_gshared
Mo:FUNCTION_TABLE_vi
Q9:__ZN13RuntimeStaticI37UnityShaderCompilerExtPluginConfigureLb0EE16StaticInitializeEPv
ikd:__ZN11UnityEngine7Connect17DeviceStatusEvent20SetDeviceAspectRatioEf
iDg:_StringBuilder_AppendFormat_m2403596038
NHd:_DSASignatureDeformatter_SetHashAlgorithm_m3186995552
XCh:_ReadOnlyCollection_1_System_Collections_Generic_ICollectionU3CTU3E_Clear_m2772202961_gshared
LEc:__ZN9JSONWrite8TransferI13dynamic_arrayI4AABBLj4EEEEvRT_PKc17TransferMetaFlags
mF:__ZNK8Animator17HasBoundPlayablesEv
ETc:__ZN17Physics2DSettings8TransferI24GenerateTypeTreeTransferEEvRT_
ewc:_null_convert_24
kve:_ResourceSet_ReadResources_m3663669011
LFg:_SynchronizationContext_SetSynchronizationContext_m1249070039
F_h:_List_1_AddEnumerable_m1267044261_gshared
T0c:_tt_cmap13_char_index
Czj:__ZN6il2cpp2vm7Runtime9SetConfigEPKc
xBc:__ZN5Unity9rapidjson12PrettyWriterI16TempBufferWriterNS0_4UTF8IcEES4_13JSONAllocatorE10StartArrayEv
va:invoke_iiifiii
vvg:_RectTransform_INTERNAL_get_pivot_m2970933031
INh:_UnityAction_1_Invoke_m927447181_gshared
IPj:__ZN6il2cpp2vm9Exception11FromNameMsgEPK11Il2CppImagePKcS6_S6_
rn:FUNCTION_TABLE_fiiifii
Sfa:__Z14GetTimeManagerv
zkg:_Color32_op_Implicit_m213813866
Xug:_RectOffset_set_top_m713260669
x6b:__ZneRK20SpriteTilingPropertyS1_
Dmd:__ZN19TransportJavaScript7CleanupEv
IQa:__Z12GUIDToStringRK9UnityGUIDPc
Pca:__ZN15FileSystemEntry4LockE12FileLockModeP12FileAccessor
Emk:_emscripten_glDrawArrays__wrapper
kNd:_Int32_Equals_m2976157357
seh:__Z110RuntimeInvoker_Int32_t2950945753_Int32_t2950945753_Int32_t2950945753_Int32U26_t1369213839_Int32U26_t1369213839PFvvEPK10MethodInfoPvPS4_
CM:__ZN11AudioSource22UnmuteActiveVideoSinksEv
FUi:_TlsException__ctor_m3717683709
L_j:__ZN4utf88internal20is_overlong_sequenceIiEEbjT_
xtj:__ZN6il2cpp2vm13MetadataCache8RegisterEPK22Il2CppCodeRegistrationPK26Il2CppMetadataRegistrationPK20Il2CppCodeGenOptions
nSa:__Z9SetLocalR15TransformAccessRKN4math7_float4Ey
ZTb:__Z30SetupBakedOcclusionForGeometrybRK26SharedLightmapSettingsDataRK15LightmapIndicesR17ShaderPassContext
Elc:__Z41Register_UnityEngine_Cursor_get_lockStatev
vTb:__Z14SetupLightmapsRK8Vector4fS1_R17ShaderPassContext
pHj:__ZN14dense_hash_mapI10KeyWrapperIPK14Il2CppAssemblyEPK22Il2CppMonoAssemblyNameN6il2cpp5utils11PointerHashIS2_EENS4_14EqualsComparerINSt3__28equal_toIS3_EEEENSD_9allocatorINSD_4pairIKS4_S7_EEEEE13set_empty_keyERSJ_
Q$a:__ZL20InitializeGUIShadersv
R6f:_Guid_CompareTo_m243656946
V3b:__Z20DestroyObjectDelayedP6Objectf
TW:__ZN20DynamicHeapAllocatorI17LowLevelAllocatorED0Ev
sw:__ZNK17AnimationPlayable27GetNextCompatibleDescendantEi
W8b:__ZN11TimeManagerC2E10MemLabelId18ObjectCreationMode
TQb:__ZN9DepthPassD2Ev
XH:__ZN11AudioFilter6GetDSPEv
vLf:_RSACryptoServiceProvider_OnKeyGenerated_m863837376
qnf:_Scrollbar_OnDrag_m4289602768
Cba:__ZN19RuntimeSceneManager14CanUnloadSceneEP10UnityScene
VQb:__Z22ExtractRenderNodeQueueRK11CullResults15ExtractionFlagsR15RenderNodeQueue
ujg:_Camera_set_orthographic_m2855749523
w2j:_GC_print_hblkfreelist
aH:__ZN24AudioScriptBufferManagerC2Ev
EIc:__ZN11UnityEngine9Analytics18SceneLoadTimeEvent12ToJsonStringER9JSONWrite
c7c:__ZNSt3__26vectorIh13stl_allocatorIhL18MemLabelIdentifier1ELi16EEE8__appendEj
w1e:_InternalEnumerator_1_System_Collections_IEnumerator_get_Current_m3854084659_AdjustorThunk
LAc:__ZN8JSONRead32GetValueForKeyWithNameConversionEPKN5Unity9rapidjson12GenericValueINS1_4UTF8IcEE13JSONAllocatorEEPKc
zTe:_U3CGetEnumeratorU3Ec__Iterator0_System_Collections_IEnumerator_get_Current_m283764921_gshared
e7c:__ZN20TextRenderingPrivate8FontImpl16ResetPackingDataEv
U3f:_CultureInfo_get_IcuName_m2258611679
vCc:__Z18Transfer_BlittableI9JSONWriteLb0EfEvRK29SerializationCommandArgumentsR31RuntimeSerializationCommandInfo
Txa:__Z21GetAsyncUploadManagerv
Uj:_emscripten_glDetachShader
jnj:_CustomEventData_Add_m2564314129
Kvg:_Vector2_op_Subtraction_m73004381
Hxa:__ZN17GenericDynamicVBO20ReleaseChunkInternalERK21DynamicVBOChunkHandlejj
p9c:__ZL27CleanupModule_TextRenderingv
F9j:_fmodl
Tyf:_SymmetricTransform_OFB_m3842617151
nAb:__Z18Transfer_BlittableI18StreamedBinaryReadILb1EELb1E4AABBEvRK29SerializationCommandArgumentsR31RuntimeSerializationCommandInfo
VJb:__ZN19RuntimeSceneManager11CreateSceneEv
ckg:_Color__ctor_m286683560
NZi:_PatternCompiler_Emit_m1540115729
D$c:_ps_get_standard_strings
YTb:__Z27SetupBakedOcclusionForLightbRK15SharedLightDataR17ShaderPassContext
p6j:__ZN6il2cpp2os5Mutex6UnlockEv
eBg:_EncoderFallbackException__ctor_m1051987327
Quf:_BigInteger_ToString_m3278248272
_Zf:_Decimal_System_IConvertible_ToBoolean_m1123794670
Lmh:__Z98RuntimeInvoker_Int32_t2950945753_RaycastResult_t3360306849_RaycastResult_t3360306849_RuntimeObjectPFvvEPK10MethodInfoPvPS4_
Tba:__Z17CommitBatchDeleteR11BatchDelete
wkf:_Mask__ctor_m1269055150
Eji:__ZL99WaitHandle_t1743403487_CustomAttributesCacheGenerator_WaitHandle_t1743403487____Handle_PropertyInfoP21CustomAttributesCache
MDf:_WebRequest_AddPrefix_m3187775913
pOb:__Z18RenderImageFiltersR10RenderLoopb
Ydd:__Z43CanvasRenderer_Get_Custom_PropMaterialCountP12Il2CppObject
hUb:__ZNSt3__227__insertion_sort_incompleteIR23CompareReflectionProbesP31RuntimeReflectionProbeBlendInfoEEbT0_S5_T_
jXh:_List_1_Remove_m1457733883_gshared
RHc:__ZN8JSONRead21TransferSTLStyleArrayI13dynamic_arrayI11QuaternionfLj4EEEEvRT_17TransferMetaFlags
Ghc:__ZN19RuntimeSceneManager32LoadSceneAsyncByNameOrBuildIndexERKN4core12basic_stringIcNS0_20StringStorageDefaultIcEEEEiNS_11LoadingModeEb
wze:_MD4Managed_Encode_m386285215
gda:__ZN10InputEventD2Ev
Knd:__ZN22UnityWebRequestManagerD2Ev
s3i:_Event_get_character_m1666742088
k9j:_isalpha
tee:_Convert_ToChar_m1442101407
GHe:_SslClientStream_OnLocalPrivateKeySelection_m1934775249
fuc:_UNITY_png_read_filter_row_paeth_multibyte_pixel
TJc:__ZNK12b2MotorJoint17GetReactionTorqueEf
YYf:_DateTimeOffset_get_Offset_m2040541042_AdjustorThunk
yxj:__ZN6il2cpp2vmL17IsSocketAsyncCallEP14Il2CppDelegate
fce:_Slot_t3975888750_marshal_pinvoke_back
j_j:__ZN6il2cpp2vm6String6NewLenEPKcj
PHb:__ZN17PersistentManager9AddStreamEv
kl:_time
oxd:_ContentSizeFitter_set_verticalFit_m1831566876
TNf:_TripleDESCryptoServiceProvider_CreateDecryptor_m740960117
Rih:__Z122RuntimeInvoker_Void_t1185182177_Color_t2555686324_Single_t1397266774_SByte_t1669577662_SByte_t1669577662_SByte_t1669577662PFvvEPK10MethodInfoPvPS4_
Bpg:_Material_EnableKeyword_m329692301
lYc:_cf2_stack_free
PMf:_SHA512Managed_HashCore_m2377807474
kOd:_Int64_Parse_m3309897583
z4f:_CompareInfo_IndexOf_m667936183
Ov:__ZN7mecanim9animation19EvaluateFloatValuesEPKNS0_18ClipMuscleConstantEPKNS_18ValueArrayConstantEPKNS0_12ClipBindingsEPKNS0_10ClipOutputEPNS0_18AnimationNodeStateEfbb
zD:__ZN8Animator31ClearInternalControllerPlayableEv
SIa:__ZN26SinglePassStereoSupportExt18AfterSetViewMatrixEv
Gig:_Bounds__ctor_m1937678907_AdjustorThunk
Vwg:_SetupCoroutine_InvokeMember_m2661944898
VYg:_HashSet_1__ctor_m620629637_gshared
nEf:_X509EnhancedKeyUsageExtension_ToString_m350388564
bDj:__ZN15dense_hashtableINSt3__24pairIK10KeyWrapperINS1_IPK9FieldInfoP11Il2CppClassEEEjEES9_17ReflectionMapHashIS8_EN14dense_hash_mapIS9_jSD_NS9_14EqualsComparerINS0_8equal_toIS8_EEEENS0_9allocatorISB_EEE9SelectKeyESI_SK_E4findERSA_
Y8d:_SimpleEnumerator_MoveNext_m3113120129
UJb:__ZN13LoadOperationC2E10MemLabelId
eff:_InputField_SendOnValueChanged_m2560301445
DZb:__ZN13RenderTexture19SetAutoGenerateMipsEb
nza:__Z20GetTextureFormatInfo13TextureFormat
pnj:_CustomEventData_AddByte_m3440715081
yBf:_TypeConverterAttribute_Equals_m1580461255
AAe:_RSAManaged_ToXmlString_m2369501989
zy:__ZN26AnimatorControllerPlayable8GetFloatEiRf
jWf:_DateTime_System_IConvertible_ToSingle_m2193708681_AdjustorThunk
_Jf:_Interval_get_Size_m4163671410_AdjustorThunk
abd:__ZN2UI14CanvasRenderer13AwakeFromLoadE17AwakeFromLoadMode
c5h:__ZL64String_t_CustomAttributesCacheGenerator_String_Split_m3580120853P21CustomAttributesCache
H4j:__ZN6il2cpp5utils10MemoryPool6MallocEj
uG:__ZN11SoundHandle8InstanceD2Ev
Wue:_ResourceEnumerator_Reset_m3754276504
uga:__ZN31CanvasBatchIntermediateRenderer13StaticDestroyEPv
T$:__ZNSt3__23mapIiP15MonoScriptCacheNS_4lessIiEE13stl_allocatorINS_4pairIKiS2_EEL18MemLabelIdentifier78ELi16EEEixERS7_
cUa:__Z26scripting_method_get_class18ScriptingMethodPtr
nkk:_emscripten_glBindProgramARB__wrapper
Blc:__Z41Register_UnityEngine_CullingGroup_Disposev
i_i:_PatternCompiler_EmitRepeat_m697083858
I3a:__ZN7Cubemap23VirtualRedirectTransferER19StreamedBinaryWriteILb0EE
sPa:__ZN25MultiBlocksMemoryFileData5WriteEyyPKv
dLc:__ZNK13b2PulleyJoint16GetReactionForceEf
zue:_ResourceReader_Read7BitEncodedInt_m3568166465
Gwf:_BlockProcessor_Core_m2138791525
Okj:_CanvasGroup_set_alpha_m4032573
p1d:_Array_get_LongLength_m978104875
XCa:__ZL17ProgramUniform2fvPK7ApiGLESjiihPKv
Lkk:b83
_6c:__ZN20TextRenderingPrivate8FontImpl21HasCharacterInTextureEjijfPj
_yg:_Transform_SetAsFirstSibling_m253439912
MWf:_DateTime_System_IConvertible_ToUInt16_m4182197229_AdjustorThunk
TJf:_Interval_get_IsDiscontiguous_m3016063288
WHe:_SslStreamBase_get_CheckCertRevocationStatus_m2739906607
Hak:_htonl
Xua:__Z20GetBufferManagerGLESv
Kkk:b82
ZMf:_SHA512Managed_Sigma1_m922902398
dEb:__ZN18StreamedBinaryReadILb0EE21TransferSTLStyleArrayI31ArrayOfManagedObjectsTransfererEEvRT_17TransferMetaFlags
zva:__ZNSt3__26__treeI22DeviceStencilStateGLES14MemoryCompLessI18DeviceStencilStateENS_9allocatorIS1_EEE12__find_equalIS1_EERPNS_16__tree_node_baseIPvEESD_RKT_
GFc:__Z18Transfer_BlittableI8JSONReadLb0EtEvRK29SerializationCommandArgumentsR31RuntimeSerializationCommandInfo
l_:__Z16GenerateTypeTreeRK6ObjectR8TypeTree24TransferInstructionFlags
p5f:_CultureInfo_CreateCulture_m1493441763
LNf:_TripleDES_IsWeakKey_m2147489852
lz:__ZN34AnimationStateMachineMixerPlayable13EndTransitionEv
FI:__ZN12AudioManager21FixMasterGroupRoutingEv
qab:__ZNK19ShaderPropertySheet11HasPropertyERKN9ShaderLab16FastPropertyNameE
$ek:dynCall_viffffii
xC:__ZN15AllocatorTraitsIN8Animator11AnimatorJobELb0EE13CopyConstructEPS1_RKS1_10MemLabelId
Ilh:__Z81RuntimeInvoker_Boolean_t97287965_NavigationU26_t1807167253_Navigation_t3049316579PFvvEPK10MethodInfoPvPS4_
vmk:_emscripten_glUniform1fv__wrapper
yCd:_GridLayoutGroup_SetLayoutHorizontal_m2838109254
Gyd:_Dropdown_RefreshShownValue_m2806045241
uqb:__Z18Transfer_BlittableI14SafeBinaryReadLb1E4AABBEvRK29SerializationCommandArgumentsR31RuntimeSerializationCommandInfo
xWj:__ZN6il2cpp6icalls8mscorlib6System4Enum12get_hashcodeEP12Il2CppObject
K3j:_GC_set_no_dls
Jwd:_ColorBlock_set_normalColor_m254595671_AdjustorThunk
f8j:__ZN6il2cpp8metadata26Il2CppGenericMethodCompare6EqualsEPK19Il2CppGenericMethodS4_
p0e:_InternalEnumerator_1_get_Current_m1007906068_gshared
srj:__ZN15dense_hashtableINSt3__24pairIK10KeyWrapperIPK11Il2CppClassEPKcEES6_N6il2cpp5utils11PointerHashIS3_EEN14dense_hash_mapIS6_S9_SE_NS6_14EqualsComparerINS0_8equal_toIS5_EEEENS0_9allocatorISA_EEE9SelectKeyESJ_SL_E15set_deleted_keyERKSA_
_8d:_SimpleEnumerator_Reset_m1520014659
iH:__ZN9AudioClip7WWWOpenEPKciPjPPvS4_
lqb:__Z18Transfer_BlittableI14SafeBinaryReadLb0E8Vector2fEvRK29SerializationCommandArgumentsR31RuntimeSerializationCommandInfo
SDe:_Context_set_ProtocolNegotiated_m2904861662
$Rj:__ZN15dense_hashtableINSt3__24pairIK10KeyWrapperINS1_IPKcS4_EEEiEES6_24NamespaceAndNamePairHashN14dense_hash_mapIS6_iS9_NS6_14EqualsComparerI26NamespaceAndNamePairEqualsEENS0_9allocatorIS8_EEE9SelectKeyESD_SF_E12resize_deltaEjj
sQe:_RemotingServices_GetRemoteObject_m2117098022
dlj:_CanvasRenderer_SetTexture_m1600559835
Lld:__ZN13dynamic_arrayIiLj4EE6insertEPiPKiS3_
pyh:_Collection_1_System_Collections_IList_IndexOf_m4256072926_gshared
E4g:__Z132RuntimeInvoker_Boolean_t97287965_RuntimeObject_Int32_t2950945753_Int32_t2950945753_RuntimeObject_Int32_t2950945753_Int32_t2950945753PFvvEPK10MethodInfoPvPS4_
tnc:__Z53Register_UnityEngine_Input_INTERNAL_get_mousePositionv
Qua:__ZN7ApiGLES12DrawElementsE16GfxPrimitiveTypePKvjjjj
iyf:_EncryptedPrivateKeyInfo_get_Salt_m3453455261
TXf:_DateTime__ParseNumber_m1240316250
FYe:_InternalEnumerator_1_get_Current_m3839250771_gshared
T4f:_CultureInfo_get_TextInfo_m2342840448
ndg:_Array_InternalArray__IndexOf_TisMark_t3471605523_m2905388260_gshared
pd:_SDL_GetTicks
ZEj:__ZN15dense_hashtableINSt3__24pairIK10KeyWrapperINS1_IPK11Il2CppImageP11Il2CppClassEEEjEES9_17ReflectionMapHashIS8_EN14dense_hash_mapIS9_jSD_NS9_14EqualsComparerINS0_8equal_toIS8_EEEENS0_9allocatorISB_EEE9SelectKeyESI_SK_E6insertERKSB_
HXb:__Z21CreateShadowCullerJobP30CreateUmbraShadowCullerJobData
pGh:_ReadOnlyCollection_1_System_Collections_Generic_ICollectionU3CTU3E_Remove_m4072504734_gshared
PCa:__ZL18ProgramUniform2uivPK7ApiGLESjiihPKv
svd:_U3COnFinishSubmitU3Ec__Iterator0_MoveNext_m2729496168
Xlk:_glUniform4iv__wrapper
HUb:__Z33GenerateShadowCasterPartsSortDataRK16ShadowCasterDatajRK15RenderNodeQueueRKNSt3__26vectorI20ShadowCasterPartData13stl_allocatorIS7_L18MemLabelIdentifier2ELi16EEEERK10Matrix4x4fRjP20ShadowCasterSortData
bNb:__ZZ23InitPlayerLoopCallbacksvEN51PostLateUpdateTriggerEndOfFrameCallbacksRegistrator7ForwardEv
GHg:_TimeSpan_Compare_m753151303
stb:__Z29Transfer_Blittable_ArrayFieldI14SafeBinaryRead9BoundsIntEvRT_R9ArrayInfoRK23StaticTransferFieldInfo
sXc:_cf2_computeDarkening
Rlj:_AnimationLayerMixerPlayable__ctor_m860721801_AdjustorThunk
ate:_MonoPropertyInfo_get_property_info_m1599555644
kHd:_DESTransform_CipherFunct_m3527261721
g1j:_GC_expand_hp_inner
qc:invoke_viiiififfi
Pqc:__Z25Screen_Get_Custom_PropDpiv
nng:_UnityEventBase_RebuildPersistentCallsIfNeeded_m216788690
A_j:__ZN4utf812find_invalidIPKcEET_S3_S3_
_gf:_InputField_OnEndDrag_m4127187089
OIh:_ReadOnlyCollection_1_System_Collections_IList_RemoveAt_m2555465054_gshared
p8h:__ZL72RuntimeCompatibilityAttribute_t1169614002_CustomAttributesCacheGeneratorP21CustomAttributesCache
q0f:_StackFrame__ctor_m343464319
NT:__ZN11UnityEngine15CloudWebService20WebRequestRestClient7PrepareEv
jse:_MonoField_CheckGeneric_m453069507
N6c:__ZN20TextRenderingPrivate19NativeTextGenerator23FixLineHorizontalOffsetEiii
e9d:_SynchronizedArrayListWrapper_get_IsFixedSize_m3396437476
kSe:_ObjectReader_ReadArrayOfString_m3550800559
LWd:_MonoCustomAttrs_GetCustomAttributesInternal_m648304078
xA:__ZN7mecanim9animation19DestroyAnimationSetEPNS0_12AnimationSetERNS_6memory9AllocatorE
Qgk:_emscripten_glDepthRange__wrapper
S0:__ZN14SerializedFile7ReleaseEv
vob:__ZN16MemoryFileSystem4OpenER13FileEntryData14FilePermission16FileAutoBehavior
u4f:_CompareInfo_GetSortKey_m1915852346
c4c:_ft_var_load_avar
jga:__ZN13RuntimeStaticI13RendererSceneLb0EE13StaticDestroyEPv
Q3e:_DefaultComparer_Compare_m1297750557_gshared
VW:__ZN20DynamicHeapAllocatorI17LowLevelAllocatorE10ReallocateEPvji
zwb:__Z18Transfer_BlittableI24GenerateTypeTreeTransferLb1E12PropertyNameEvRK29SerializationCommandArgumentsR31RuntimeSerializationCommandInfo
q9i:_Toggle_OnEnable_m1421694809
hfb:__ZN14SafeBinaryRead21TransferSTLStyleArrayI10vector_mapIPKN5Unity4TypeE7Hash128NSt3__24lessIS5_EENS7_9allocatorINS7_4pairIS5_S6_EEEEEEEvRT_17TransferMetaFlags
hH:__ZN9AudioClip18GetQueuedAudioDataEPPvj
c9c:__ZN20TextRenderingPrivate21TextMeshGeneratorImpl14GarbageCollectEv
Ifc:__ZNK9Texture2D17CheckHasPixelDataEv
vQc:__ZN15b2ContactSolver13StoreImpulsesEv
myb:__Z18Transfer_BlittableI19StreamedBinaryWriteILb0EELb0E9BoundsIntEvRK29SerializationCommandArgumentsR31RuntimeSerializationCommandInfo
CQb:__Z18SetShadowsKeywordsR17ShaderPassContext9LightType10ShadowType16ShadowProjectionbb
CBd:_Graphic_GetPixelAdjustedRect_m3729397999
QIj:__ZN14dense_hash_mapI10KeyWrapperINSt3__24pairIPK12PropertyInfoP11Il2CppClassEEEj17ReflectionMapHashIS8_ENS9_14EqualsComparerINS1_8equal_toIS8_EEEENS1_9allocatorINS2_IKS9_jEEEEEC2EjRKSB_RKSF_
ybc:__ZN17CollisionMeshDataC2Ev
eKe:_ConfigHandler_CheckPath_m3079311646
lwe:_Marshal_Copy_m1222846562
j5a:__ZN16LightmapSettings23VirtualRedirectTransferER19StreamedBinaryWriteILb0EE
eNb:__ZZ23InitPlayerLoopCallbacksvEN47PostLateUpdateMemoryFrameMaintenanceRegistrator7ForwardEv
Sua:__ZN7ApiGLES20SetVertexArrayAttribEjj12VertexFormathjPKv
Po:FUNCTION_TABLE_viiififii
T1j:_GC_push_next_marked
Rjb:__ZN18IDCollectorFunctor18GenerateInstanceIDEi17TransferMetaFlags
sTi:_GameObject_GetComponent_TisRuntimeObject_m2049753423_gshared
uQc:__ZN15b2ContactSolver9WarmStartEv
Cjj:_TextGenerationSettings_Equals_m3618607189_AdjustorThunk
XAf:_NameObjectCollectionBase_BaseAdd_m3437748750
ZIg:_Type_internal_from_handle_m3156085815
EEh:_ReadOnlyCollection_1_System_Collections_Generic_ICollectionU3CTU3E_Add_m69722965_gshared
TD:__ZN8Animator8TransferI19StreamedBinaryWriteILb0EEEEvRT_
n2:__ZNSt3__27__sort4IRNS_6__lessI14ObjectLoadDataS2_EEPS2_EEjT0_S6_S6_S6_T_
lof:_ScrollRect_get_rectTransform_m2442061719
ydc:__Z22PlayableValidityChecksRK9HPlayableb
Ngb:__ZN15ResourceManagerD2Ev
qlc:__Z41Register_UnityEngine_Camera_GetAllCamerasv
Dmg:_InvokableCall__ctor_m2158562079
iVc:__ZN14PhysicsQuery2D7RaycastERK8Vector2fS2_fRKN10Collider2D13ContactFilterEPKS3_bP12RaycastHit2Di
y$i:_Assertion__ctor_m2128950829
Ukd:__ZN28PerformanceReportingSettings8TransferI14SafeBinaryReadEEvRT_
ilb:__ZN15CacheWriterBase18GetAddressOfMemoryEv
zZd:_Buffer_BlockCopy_m2884209081
OFc:__Z18Transfer_BlittableI8JSONReadLb1E5RectTIiEEvRK29SerializationCommandArgumentsR31RuntimeSerializationCommandInfo
kOj:__ZN6il2cpp2vm22EmbeddedResourceRecordC2ERKS1_
zKb:__ZL20DrawVBOChunkWithPassP6ShaderPN9ShaderLab4PassER17ShaderPassContextR10DynamicVBORK21DynamicVBOChunkHandle
Auh:_Collection_1__ctor_m825528237_gshared
D3a:__ZN9Texture2D13AwakeFromLoadE17AwakeFromLoadMode
fag:_SetPropertyUtility_SetStruct_TisColorBlock_t2139031574_m1748367426_gshared
rrg:_PlayerConnection_get_instance_m1750121257
RVj:__ZN6il2cpp2vm3RCW14QueryInterfaceILb0EEEP14Il2CppIUnknownP15Il2CppComObjectRK10Il2CppGuid
gRi:_Dictionary_2_Do_CopyTo_TisRuntimeObject_TisRuntimeObject_m2341992100_gshared
ndb:__ZThn328_N14SpriteRendererD0Ev
VXi:_X509Store_get_Certificates_m56224934
VAa:__ZN6prcoreL17RemapGenericFloatI15TexFormatRFloat18TexFormatARGBFloatEEvPKNS_9InnerInfoE
g8g:__Z85RuntimeInvoker_Void_t1185182177_Int64_t3736567304_Int32_t2950945753_Int64_t3736567304PFvvEPK10MethodInfoPvPS4_
kBe:_CipherSuite__ctor_m2440635082
ALf:_RSAPKCS1KeyExchangeFormatter_SetRSAKey_m1477802943
tPf:_EvidenceEnumerator_get_Current_m1264365535
Uld:__ZN11UnityEngine15PlatformWrapper20GetPlayerPrefsUInt64ERKN4core12basic_stringIcNS1_20StringStorageDefaultIcEEEEy
kwe:_Marshal_copy_from_unmanaged_m2834266824
mfk:dynCall_iiiifii
lUb:__ZN20ReflectionProbeCacheC2ER13BatchRendererR15RenderLoopStats
rug:_Rect_set_xMax_m1720695099_AdjustorThunk
Uah:__Z59RuntimeInvoker_Int32_t2950945753_DateTimeOffset_t3229287507PFvvEPK10MethodInfoPvPS4_
tnb:__ZNK12HandlerChain6ExistsERK13FileEntryData
z3f:_Calendar__ctor_m106290643
XUb:__Z30FindDirectAttenuationFromProbeP18ForwardLightsBlockbiRK10RenderNodeRK23FindForwardLightsParamsf
$fc:__ZNSt3__26vectorIj13stl_allocatorIjL18MemLabelIdentifier1ELi16EEE6assignIPKjEENS_9enable_ifIXaasr21__is_forward_iteratorIT_EE5valuesr16is_constructibleIjNS_15iterator_traitsIS9_E9referenceEEE5valueEvE4typeES9_S9_
ueb:__ZN12InputManager23VirtualRedirectTransferER24GenerateTypeTreeTransfer
ymb:__ZN9Transform23VirtualRedirectTransferER24GenerateTypeTreeTransfer
cyc:__ZN12GUIClipState10BeginOnGUIER10InputEvent
Aoa:__ZNSt3__26vectorIN9ShaderLab20SerializedSubProgram12UAVParameterENS_9allocatorIS3_EEE21__push_back_slow_pathIKS3_EEvRT_
xch:__Z87RuntimeInvoker_RuntimeObject_Byte_t1134296376_RuntimeObject_RuntimeObject_RuntimeObjectPFvvEPK10MethodInfoPvPS4_
VCe:_HandshakeMessage_Process_m810828609
x2c:_UNITY_tt_size_ready_bytecode
x5c:__ZN13TextRendering4FontD2Ev
gtg:_Quaternion_Inverse_m1311579081
e8c:_UNITY_FT_Stream_Open
Bxb:__Z29Transfer_Blittable_ArrayFieldI24GenerateTypeTreeTransfer9BoundsIntEvRT_R9ArrayInfoRK23StaticTransferFieldInfo
iCd:_GraphicRegistry__cctor_m1805310505
Lig:_Bounds_Equals_m3920299735
dYa:__ZN8keywords18KeywordSetToStringERK16ShaderKeywordSetRN4core12basic_stringIcNS3_20StringStorageDefaultIcEEEE
Ane:_GenericTypeParameterBuilder_GetGenericArguments_m2988765390
v_c:_otv_MATH_validate
q7g:__Z77RuntimeInvoker_Void_t1185182177_Int64_t3736567304_ResourceInfoU26_t1611441338PFvvEPK10MethodInfoPvPS4_
MQh:_List_1_CheckCollection_m1717250693_gshared
JF:__ZN4FMOD3DSP12setParameterEif
kIb:__ZN13MemoryManager16StaticInitializeEv
V4f:_CultureInfo_Equals_m1360976324
OGc:__ZN8JSONRead21TransferSTLStyleArrayI13dynamic_arrayIyLj8EEEEvRT_17TransferMetaFlags
vf:___cxa_free_exception
Mwi:__ZL69PersistentCall_t3407714124_CustomAttributesCacheGenerator_m_CallStateP21CustomAttributesCache
NJ:__ZN4FMOD22FakeModChannelCallbackEPv
Uod:_BaseInput_get_compositionString_m1887614380
Bf:_emscripten_glValidateProgram
RWa:__ZN4Mesh10CreateMeshEv
JJd:_RijndaelManagedTransform__ctor_m1033522223
hFg:_NativeEventCalls_ResetEvent_internal_m885886540
qXf:_DateTime_CompareTo_m3889078633
VXc:_cf2_stack_clear
ALd:_NumberFormatter_set_CurrentCulture_m1358228087
KRc:__ZN10ClipperLib11ClipperBase5ClearEv
EZb:__ZN7Texture13SetAnisoLevelEi
$R:__ZNSt3__26__treeINS_12__value_typeIN4core12basic_stringIcNS2_20StringStorageDefaultIcEEEEjEENS_19__map_value_compareIS6_S7_NS_4lessIS6_EELb1EEE13stl_allocatorIS7_L18MemLabelIdentifier88ELi16EEE7destroyEPNS_11__tree_nodeIS7_PvEE
v7:__ZN19EndOfFrameCallbacks7EnqueueEP18EndOfFrameCallbackb
Eog:_Input_set_compositionCursorPos_m1909373301
rIc:__ZN27PerformanceReportingManager23VirtualRedirectTransferER24GenerateTypeTreeTransfer
V7c:_raccess_guess_vfat
f9g:__Z78RuntimeInvoker_IntPtr_t_SByte_t1669577662_RuntimeObject_BooleanU26_t4125257963PFvvEPK10MethodInfoPvPS4_
Iwc:_get_sof
dfd:__Z44Canvas_CUSTOM_GetETC1SupportedCanvasMaterialv
j$f:_Decimal_decimalSetExponent_m3707787243
maa:__ZN33InstancedMeshIntermediateRenderer13StaticDestroyEPv
$Qj:__ZN14dense_hash_mapI10KeyWrapperIP14Il2CppIUnknownEjN6il2cpp5utils11PointerHashIS1_EENS3_14EqualsComparerINSt3__28equal_toIS2_EEEENS9_9allocatorINS9_4pairIKS3_jEEEEE13set_empty_keyERSF_
Hwa:__ZN15dense_hashtableINSt3__24pairIK9TextureIDiEES2_14GfxGenericHashIS2_EN14GfxDoubleCacheIS2_iS6_NS0_8equal_toIS2_EEN31GfxDoubleCacheConcurrencyPolicy11LocklessGetE42GfxDoubleCacheDefaultEmptyDeletedGeneratorIS2_EE9SelectKeyES9_13stl_allocatorIS4_L18MemLabelIdentifier24ELi16EEE12resize_deltaEjj
RUa:__Z21DestroyShadowMapCacheP14ShadowMapCache
Vx:__ZN7mecanim9animation25CreateControllerWorkspaceEPKNS0_18ControllerConstantERNS_6memory9AllocatorE
FSi:_Array_InternalArray__get_Item_TisLabelFixup_t858502054_m3276643490_gshared
oIj:__ZN15dense_hashtableINSt3__24pairIK10KeyWrapperIPK10Il2CppTypeEjEES6_N6il2cpp8metadata14Il2CppTypeHashEN14dense_hash_mapIS6_jSB_NS6_14EqualsComparerINSA_26Il2CppTypeEqualityComparerEEENS0_9allocatorIS8_EEE9SelectKeyESF_SH_E14squash_deletedEv
iPj:__ZN6il2cpp2vm13LivenessState5ResetEv
YBc:__ZN9JSONWrite8TransferI11KeyframeTplIfEEEvRT_PKc17TransferMetaFlags
Nce:_SortedList_GetImpl_m3689246167
gEh:_ReadOnlyCollection_1_System_Collections_Generic_IListU3CTU3E_set_Item_m3209059215_gshared
Sxa:__ZN24BuiltinShaderParamValuesC2Ev
fWi:_PKCS12_Decode_m163534693
lCc:__ZL41CreateJSONTransferFunctionScriptingTraitsv
fia:__ZN6Shader23VirtualRedirectTransferER14SafeBinaryRead
OWc:_cff_glyph_load
MAg:_WaitForSecondsRealtime_get_keepWaiting_m846832224
ddj:_ObjectPool_1_get_countActive_m807006650_gshared
mGb:__Z23GetLateBehaviourManagerv
d6g:__Z33RuntimeInvoker_Single_t1397266774PFvvEPK10MethodInfoPvPS4_
Asb:__ZN14SafeBinaryRead21TransferSTLStyleArrayINSt3__26vectorI8Gradient13stl_allocatorIS3_L18MemLabelIdentifier1ELi16EEEEEEvRT_17TransferMetaFlags
BY:__ZN10MemoryPool10DeallocateEPv
qyc:__ZN8GUIState8SetEventERK10InputEvent
Rgh:__Z80RuntimeInvoker_Void_t1185182177_ScriptableRenderContext_t274343796_RuntimeObjectPFvvEPK10MethodInfoPvPS4_
Qek:dynCall_vif
Rek:dynCall_vid
Xfe:_Convert_ToSByte_m4075629912
Tek:dynCall_vii
Gxf:_KeyPairPersistence_FromXml_m746585742
vUf:_Decoder__ctor_m4046021500
UDb:__Z18Transfer_BlittableI18StreamedBinaryReadILb0EELb0EdEvRK29SerializationCommandArgumentsR31RuntimeSerializationCommandInfo
tvd:_ColorBlock_get_fadeDuration_m121071467
ryj:__ZN6il2cpp6icalls8mscorlib6System8MonoType18GetFields_internalEP20Il2CppReflectionTypeiS5_
$2:__ZN5Unity9Component16CheckConsistencyEv
Tse:_MonoMethod_get_ContainsGenericParameters_m3860345224
A5:__ZN19ShaderPropertySheet37CreateTextureAuxPropertyUninitializedEN9ShaderLab16FastPropertyNameES1_PKc
Qyb:__ZL26Transfer_SimpleNativeClassI19StreamedBinaryWriteILb0EE10RectOffsetLb1EEvRK29SerializationCommandArgumentsR31RuntimeSerializationCommandInfo
dkd:__ZN11UnityEngine7Connect17DeviceStatusEventD2Ev
Hok:b128
JDj:__ZN15dense_hashtableINSt3__24pairIK10KeyWrapperIPK10Il2CppTypeEjEES6_N6il2cpp8metadata14Il2CppTypeHashEN14dense_hash_mapIS6_jSB_NS6_14EqualsComparerINSA_26Il2CppTypeEqualityComparerEEENS0_9allocatorIS8_EEE9SelectKeyESF_SH_E3endEv
fta:__ZN13GfxDeviceGLES17SetGpuProgramNameEP10GpuProgramPKc
_T:__ZNK11UnityEngine15CloudWebService25WebRequestDownloadHandler11GetProgressEv
tIf:_CategoryUtils_CategoryFromName_m1352081402
weg:_Array_InternalArray__ICollection_Add_TisMonoResource_t4103430009_m2699164149_gshared
Fwj:__ZN6il2cpp2vm13MetadataCache28GetMethodDefinitionFromIndexEi
cZj:__ZN6il2cpp2os20FileErrnoToErrorCodeEi
O0a:__ZN14SafeBinaryRead19TransferSTLStyleMapINSt3__23mapI39DeprecatedFastPropertyNameSerialization10ColorRGBAfNS1_4lessIS3_EENS1_9allocatorINS1_4pairIKS3_S4_EEEEEEEEvRT_17TransferMetaFlags
NZf:_Decimal_ThrowAtPos_m1170269346
Ori:__ZL98GameObject_t1113636619_CustomAttributesCacheGenerator_GameObject_SendMessage_m3720186693____value1P21CustomAttributesCache
lh:_atexit
Xpf:_Selectable_set_image_m3625164794
J0e:_InternalEnumerator_1_get_Current_m1232221964_gshared
YHh:_ReadOnlyCollection_1_System_Collections_Generic_IListU3CTU3E_Insert_m1818924748_gshared
RGj:__ZN6il2cpp2vmL31GetObjectForMissingDefaultValueEj
ZUf:_DecoderReplacementFallbackBuffer_GetNextChar_m2858228391
Hud:_AspectRatioFitter__ctor_m2468506840
aid:__ZN11UnityEngine15PlatformWrapper30GetVRPlayAreaBoundaryDimensionEv
lPi:_Array_Sort_TisBoolean_t97287965_TisBoolean_t97287965_m2753381653_gshared
eXi:_X509Certificate_get_Hash_m410033711
Xka:__ZN9ShaderLab14SerializedPassC2ERKS0_
uCc:__Z35Transfer_Blittable_FixedBufferFieldI9JSONWritehEvRK29SerializationCommandArgumentsR31RuntimeSerializationCommandInfo
l:STACKTOP
$Zc:_cff_get_name_index
A5a:__ZN21EnlightenSceneMapping16BuildRemapTablesEv
yec:__ZN17TransformInternal27UpdateDeepChildCountUpwardsER18TransformHierarchyii
PQf:_Single_System_IConvertible_ToBoolean_m1716619219_AdjustorThunk
Tqd:_ExecuteEvents_Execute_m3613826831
vyd:_Image_set_type_m2038193736
Xqj:__ZN6il2cpp2vm5Class19GetGenericContainerEP11Il2CppClass
OUc:__ZN22WorldContactListener2D10EndContactEP9b2Contact
aZb:__ZNK25CameraStackRenderingState25CalculateCameraTargetTypeEv
tpe:_PropertyBuilder_GetSetMethod_m128670376
Bkc:__Z38Camera_Get_Custom_PropOrthographicSizeP12Il2CppObject
y:tempBigIntR
x:tempBigIntS
w:tempBigIntP
Gn:FUNCTION_TABLE_viffi
KSd:_MemoryStream_SetLength_m974389318
r2:__ZN6Object18RegisterInstanceIDEPS_
ewb:__Z18Transfer_BlittableI24GenerateTypeTreeTransferLb1EsEvRK29SerializationCommandArgumentsR31RuntimeSerializationCommandInfo
nVj:__ZN15dense_hashtableINSt3__24pairIK10KeyWrapperIP12Il2CppObjectEN6il2cpp2gc9CachedCCWEEES5_NS7_5utils11PointerHashIS3_EEN14dense_hash_mapIS5_S9_SD_NS5_14EqualsComparerINS0_8equal_toIS4_EEEENS0_9allocatorISA_EEE9SelectKeyESI_SK_E11set_deletedER30dense_hashtable_const_iteratorISA_S5_SD_SM_SI_SK_E
lqa:__ZNK9GfxDevice18GetWorldViewMatrixEv
Zjh:__Z70RuntimeInvoker_Single_t1397266774_Single_t1397266774_Int32_t2950945753PFvvEPK10MethodInfoPvPS4_
jOf:_X509Certificate_GetPublicKey_m4184729161
sge:_Convert_ToUInt16_m3902921832
ysc:_UNITY_png_handle_PLTE
aie:_Assembly_GetTypes_m1724781913
Bbi:__ZL54TypeBuilder_t1073948154_CustomAttributesCacheGeneratorP21CustomAttributesCache
y$j:__ZN6il2cpp6icalls8mscorlib6System7Convert17Base64ToByteArrayEPDsib
Uwb:__ZL12InvokeMethodI24GenerateTypeTreeTransferEvRK29SerializationCommandArgumentsR31RuntimeSerializationCommandInfo
tRh:_List_1_AddEnumerable_m376418521_gshared
Cch:__Z79RuntimeInvoker_Void_t1185182177_Byte_t1134296376_Byte_t1134296376_RuntimeObjectPFvvEPK10MethodInfoPvPS4_
Mtj:__ZNSt3__218__insertion_sort_3IRN6il2cpp5utils11collections13ArrayValueMapIPK10Il2CppType17Il2CppInteropData26InteropDataToTypeConverterNS1_8metadata14Il2CppTypeLessENSA_26Il2CppTypeEqualityComparerEE12SortComparerEPS8_EEvT0_SH_T_
pqa:__ZNK9GfxDevice25GetDeviceProjectionMatrixEv
oa:invoke_iidiii
kwb:__Z18Transfer_BlittableI24GenerateTypeTreeTransferLb1EtEvRK29SerializationCommandArgumentsR31RuntimeSerializationCommandInfo
cQ:__ZN12AudioManager33GetCurrentAmbisonicDefinitionNameE31UnityAudioEffectDefinitionFlags
pic:__ZN11UTF16StringC2EPKc10MemLabelId
uhc:__ZN10systeminfo24GetRuntimePlatformStringEv
GQd:_MonoIO_DeleteFile_m3839141322
aR:__ZN5physx14PxLightCpuTask15removeReferenceEv
NWj:__ZN6il2cpp6icalls8mscorlib6System6String22RedirectToCreateStringEv
obi:__ZL99ILGenerator_t1388622344_CustomAttributesCacheGenerator_ILGenerator_Mono_GetCurrentOffset_m993338688P21CustomAttributesCache
Ljf:_LayoutRebuilder_ReapplyDrivenProperties_m2581469389
btg:_PropertyName_op_Implicit_m1633828199
Q5:__ZN9ShaderLab6TexEnvC2ERKNS_25SerializedTexturePropertyE
zhf:_InputField_Append_m687033660
t6b:__Z28IntersectLineSegmentWithLineRK8Vector2fS1_S1_S1_RS_
kSa:__ZN9Transform32SetLocalScaleWithoutNotificationERKN4math7_float3Ey
_$a:__ZN19ShaderPropertySheet38CopyTextureWithAuxiliaryPropertiesFromERKN9ShaderLab16FastPropertyNameERKS_
L6c:__ZN20TextRenderingPrivate19NativeTextGeneratorD2Ev
ixj:__ZN6il2cpp2vm19SocketPollingThread14DequeueRequestEv
KYj:__ZL10RevealLinkPv
KVf:_DateTime__ctor_m12900168_AdjustorThunk
EDe:_ClientSessionCache_FromContext_m343076119
Ri:___cxa_end_catch
FNf:_ToBase64Transform_TransformBlock_m2497349397
mBf:_NameValueCollection_Add_m2418530856
xPe:_ReturnMessage_get_MethodSignature_m399735125
lfd:__Z43Register_UnityEngine_Canvas_set_scaleFactorv
wtf:_SortKeyBuffer_AppendLevel5_m3963841125
G1i:_PositionAssertion_Compile_m2500980346
D8d:_ArrayListWrapper_ToArray_m3192696690
W7c:_raccess_guess_linux_cap
vQ:__Z36AudioSource_Get_Custom_PropIsPlayingP12Il2CppObject
eEb:__Z19TransferField_ArrayI18StreamedBinaryReadILb0EE27Converter_UnityEngineObjectEvRK23StaticTransferFieldInfoR31RuntimeSerializationCommandInfoRT0_
a3d:_Attribute_GetCustomAttribute_m4034845276
pBc:__ZNK5Unity9rapidjson12GenericValueINS0_4UTF8IcEE13JSONAllocatorE6AcceptINS0_12PrettyWriterI16TempBufferWriterS3_S3_S4_EEEEbRT_
$aa:__Z33InitializeBuiltinShaderParamNamesv
xJg:_Type_GetConstructor_m2219014380
qwd:_CanvasUpdateRegistry_SortLayoutList_m471948466
z3:__ZNK16TypeTreeIterator4TypeEv
eMb:__ZN10FileSystem25MountDataFolderFileSystemERKN4core12basic_stringIcNS0_20StringStorageDefaultIcEEEES6_
BZd:_ArgumentOutOfRangeException__ctor_m282481429
e4i:_GUILayoutUtility_Internal_MoveWindow_m3463958180
Aj:_glGetUniformLocation
Ira:__ZN13GfxDeviceGLES32CreateColorRenderSurfacePlatformEP17RenderSurfaceBase19RenderTextureFormat
QG:__ZN12AudioManager24CreateFMODSoundFromMovieEP9AudioClip
Evj:__ZN6il2cpp2vm13MetadataCache24GetGenericInstanceMethodEPK10MethodInfoPK20Il2CppGenericContext
q1j:_GC_hblk_fl_from_blocks
_re:_MonoField_GetParentType_m2478933781
G1:__Z24ConvertSeparatorsToUnityPc
hGj:__ZN6il2cpp2gc19AppendOnlyGCHashMapINSt3__24pairIPK9EventInfoP11Il2CppClassEEP21Il2CppReflectionEvent17ReflectionMapHashIS9_ENS2_8equal_toIS9_EEE3AddERKS9_SB_
D3h:_Collection_1_System_Collections_ICollection_CopyTo_m46221116_gshared
XMj:__ZN6il2cpp2vm6Thread20FreeThreadStaticDataEP12Il2CppThread
Fcg:_Array_InternalArray__IndexOf_TisClientCertificateType_t1004704908_m3457772631_gshared
c0g:__Z28RuntimeInvoker_RuntimeObjectPFvvEPK10MethodInfoPvPS4_
jYc:_cf2_glyphpath_finalize
Ehi:__ZL56SecurityAction_t569814076_CustomAttributesCacheGeneratorP21CustomAttributesCache
APb:__Z20LookRotationToMatrixRK8Vector3fS1_P10Matrix3x3f
f8d:_ArrayListWrapper_set_Capacity_m2373297383
Ugf:_Text_get_cachedTextGenerator_m2506989875
qfk:dynCall_viififi
m_g:_Enumerator_System_Collections_IEnumerator_Reset_m502339360_AdjustorThunk
k9h:__ZL58DictionaryEntry_t3123975638_CustomAttributesCacheGeneratorP21CustomAttributesCache
Pjj:_TextGenerator_GetVerticesInternal_m3222977969
dZh:_List_1_RemoveAt_m4279084788_gshared
L1c:_UNITY_FT_Stream_Free
KMj:__ZN15dense_hashtableINSt3__24pairIK10KeyWrapperINS1_IP11Il2CppClassjEEES4_EES6_N6il2cpp8metadata14ArrayClassHashEN14dense_hash_mapIS6_S4_SB_NS6_14EqualsComparerINSA_17ArrayClassCompareEEENS0_9allocatorIS8_EEE9SelectKeyESF_SH_E12maybe_shrinkEv
HGd:_CryptoConfig_EncodeLongNumber_m4127306320
Tih:__Z87RuntimeInvoker_Void_t1185182177_Single_t1397266774_Single_t1397266774_SByte_t1669577662PFvvEPK10MethodInfoPvPS4_
JBe:_CipherSuite_createEncryptionCipher_m2533565116
hS:__ZN11UnityEngine15CloudWebService14DataDispatcher25OnDataBlockConsumedStaticEPv
cYh:_List_1_CheckIndex_m3044940639_gshared
QAg:_GenericStack__ctor_m933681517
qCb:__Z29Transfer_Blittable_ArrayFieldI18StreamedBinaryReadILb1EE11QuaternionfEvRT_R9ArrayInfoRK23StaticTransferFieldInfo
fWd:_Math_Max_m482125436
GIe:_ActivatedServiceTypeEntry_ToString_m1591455874
BPf:_SecurityElement_ToXml_m3664345083
Kgg:_Array_InternalArray__Insert_TisParameterModifier_t1461694466_m3664994573_gshared
H:Math_pow
oTg:_DefaultComparer_Equals_m1870794912_gshared
yja:__Z14resize_trimmedINSt3__26vectorIN9ShaderLab20SerializedSubProgram16SamplerParameterENS0_9allocatorIS4_EEEEEvRT_j
Esg:_PlayableHandle_GetPlayableType_Injected_m686992718
hqf:_Shadow_set_effectColor_m3910676693
_bk:__ZNSt3__212basic_stringIcNS_11char_traitsIcEENS_9allocatorIcEEE6insertEjPKcj
nCc:__Z44InitializeTransferFunctionScriptingTraitsForI8JSONReadEvR31TransferFunctionScriptingTraits
UKb:__ZNSt3__27__sort4IRNS_4lessIN22BuiltinResourceManager8ResourceEEEPS3_EEjT0_S7_S7_S7_T_
DAf:_ListDictionary_Add_m3918308031
cVj:__ZNK15dense_hashtableINSt3__24pairIK10KeyWrapperIP12Il2CppObjectEN6il2cpp2gc9CachedCCWEEES5_NS7_5utils11PointerHashIS3_EEN14dense_hash_mapIS5_S9_SD_NS5_14EqualsComparerINS0_8equal_toIS4_EEEENS0_9allocatorISA_EEE9SelectKeyESI_SK_E23find_position_with_hashERS6_j
Bgf:_Selectable_OnDisable_m3225138518
s3c:_UNITY_tt_face_get_location
W6i:_AesManaged_CreateEncryptor_m1611897367
lDc:__ZL26Transfer_SimpleNativeClassI9JSONWrite17AnimationCurveTplIfELb0EEvRK29SerializationCommandArgumentsR31RuntimeSerializationCommandInfo
t_b:__ZN10GameObject34AddFirstTransformComponentInternalEP9Transform
Dlc:__Z31Cursor_Get_Custom_PropLockStatev
ibj:_Playscript_OnMouseDown_m3918265521
u9:__ZNSt3__26__treeINS_12__value_typeINS_4pairIPcS3_EENS_3setIS3_15compare_tstringIPKcENS_9allocatorIS3_EEEEEENS_19__map_value_compareIS4_SD_20smaller_tstring_pairIS8_ELb1EEENSA_ISD_EEE7destroyEPNS_11__tree_nodeISD_PvEE
oN:__ZN12AudioManager29GetCurrentAmbisonicDefinitionE31UnityAudioEffectDefinitionFlags
dmc:__Z52Register_UnityEngine_GameObject_GetComponentInParentv
sfb:__ZN15SerializeTraitsINSt3__24pairIPKN5Unity4TypeE7Hash128EEE8TransferI14SafeBinaryReadEEvRS7_RT_
N0j:_GC_number_stack_black_listed
n$f:_Decimal_ToString_m4018746482_AdjustorThunk
GXb:__Z37GenerateCombinedDynamicVisibleListJobP11CullResults
EPg:_Dictionary_2_ToTKey_m2055624458_gshared
FSc:__ZN10ClipperLib7Clipper11BuildResultERNSt3__26vectorINS2_INS_8IntPointENS1_9allocatorIS3_EEEENS4_IS6_EEEE
n7a:__ZNK13ScreenManager21GetCursorInsideWindowEv
uje:_CustomAttributeData_GetCustomAttributes_m1033457578
twe:_SafeHandle_DangerousAddRef_m614714386
GUb:__Z20IntersectAABBFrustumRK4AABBPK5Planej
$of:_ScrollRect_OnDrag_m688583138
ccc:__ZN13RenderManager15InitializeClassEv
Tsb:__ZN15SerializeTraitsI12PropertyNameE8TransferI14SafeBinaryReadEEvRS0_RT_
_Bh:_ReadOnlyCollection_1_System_Collections_IList_IndexOf_m3120991897_gshared
PNe:_Header__ctor_m1921907550
brf:_Slider_FindSelectableOnUp_m4062600878
cWd:_Math_Ceiling_m625148210
ypg:_Material_SetIntImpl_m724477324
x8:__GLOBAL__sub_I_runtime_baseclasses_2_cpp
uEc:__ZN9JSONWrite8TransferI11ColorRGBA32EEvRT_PKc17TransferMetaFlags
aHc:__Z22TransferField_NonArrayI8JSONRead27Converter_SimpleNativeClassI8GradientEEvRK23StaticTransferFieldInfoR31RuntimeSerializationCommandInfoRT0_
oHb:__ZN10MonoScript13AwakeFromLoadE17AwakeFromLoadMode
QJf:_Interval__ctor_m4022869013
n4d:_Boolean_System_IConvertible_ToUInt16_m3465173538
SQa:__ZN10MemoryFile21CreateFileSystemEntryE10MemLabelId14FilePermissionPvjb
DGa:__ZNK18GfxFramebufferGLES15DiscardContentsER12ObjectHandleI17RenderSurface_TagP17RenderSurfaceBaseE
zwj:__ZN6il2cpp2vm13MetadataCache27GetEventDefinitionFromIndexEi
Kge:_Convert_ToUInt64_m92315402
BDc:__Z18Transfer_BlittableI9JSONWriteLb1EdEvRK29SerializationCommandArgumentsR31RuntimeSerializationCommandInfo
Bjk:_glGetIntegerv__wrapper
$Uf:_EncoderExceptionFallback__ctor_m3745979420
uvc:_decode_mcu_DC_first
gZe:_InternalEnumerator_1_System_Collections_IEnumerator_get_Current_m435848551_gshared
Z3:__ZN10GameObject28FinalizeAddComponentInternalEPN5Unity9ComponentE
qHi:__ZL57Image_t2670269651_CustomAttributesCacheGenerator_m_SpriteP21CustomAttributesCache
D4a:__ZN9Texture2DD2Ev
pej:_AudioExtensionManager_GetReadyToPlay_m1557263244
fge:_Convert_ToSingle_m164367433
GSi:_Array_InternalArray__get_Item_TisILTokenInfo_t2325775114_m3110830457_gshared
Oee:_Convert_ToDecimal_m1284410333
Xjg:_Camera_INTERNAL_CALL_RaycastTry2D_m3172975827
nYf:_DateTime_CheckStyle_m1392838900
csc:_UNITY_png_set_bgr
e$d:_SmallXmlParser_ReadUntil_m2715581630
LAf:_NameObjectCollectionBase__ctor_m2090733912
HIf:_Group__cctor_m2230627219
S7f:_Array_InternalArray__ICollection_Contains_TisDouble_t594665363_m1696010878_gshared
cp:FUNCTION_TABLE_viiiffi
wAe:_RSAManaged_EncryptValue_m4149543654
kr:__ZN13dynamic_arrayIhLj1EE18resize_initializedEjRKh12ResizePolicy
uea:__ZN27IntermediateRendererManagerD2Ev
_jb:__ZN17PersistentManager27GetLoadErrorMessageFromPathERKN4core12basic_stringIcNS0_20StringStorageDefaultIcEEEE
XVi:_NetscapeCertTypeExtension_ToString_m1800688476
om:_glGenRenderbuffers
OOj:__ZN6il2cpp6icalls8mscorlib6System2IO6MonoIO19GetCurrentDirectoryEPi
_vg:_Renderer_get_sortingOrder_m344607889
tVb:__Z21IntersectSegmentPlaneRK8Vector3fS1_RK5PlanePS_
u8g:__Z81RuntimeInvoker_Void_t1185182177_Int64_t3736567304_RuntimeObject_Int32_t2950945753PFvvEPK10MethodInfoPvPS4_
JLi:__ZL50Outline_t2536100125_CustomAttributesCacheGeneratorP21CustomAttributesCache
Ufb:__ZN14PlayerSettings23VirtualRedirectTransferER17RemapPPtrTransfer
K2i:_Uri_get_IsFile_m2450018824
Kca:__ZN14CachingManager7DisposeEv
eN:__ZN12AudioManager31GetCurrentSpatializerDefinitionEv
jAf:_HybridDictionary_Add_m912320053
pcb:__ZN12MeshRenderer16UpdateCachedMeshEv
e6i:_KeyBuilder_IV_m3340234014
zsb:__Z19TransferField_ArrayI14SafeBinaryRead27Converter_SimpleNativeClassI8GradientEEvRK23StaticTransferFieldInfoR31RuntimeSerializationCommandInfoRT0_
ASg:_DefaultComparer_Equals_m1163494476_gshared
M8f:_Array_InternalArray__ICollection_Remove_TisDictionaryEntry_t3123975638_m3699186409_gshared
bhe:_Object_Equals_m1397037629
sz:__ZNK27StateMachineBehaviourPlayer25FireStateMachineBehaviourEiiN7mecanim12statemachine19StateMachineMessageE
iig:_AsyncOperation_t1445031843_marshal_pinvoke_back
Y8:__GLOBAL__sub_I_runtime_utilities_4_cpp
Utg:_Rect_get_center_m138276653
YZb:__ZN6Camera15SetOrthographicEb
SZc:_UNITY_FT_Stream_GetUShort
wqa:__ZN13GfxDeviceGLES14DisableScissorEv
och:__Z240RuntimeInvoker_RuntimeObject_Int16_t2552820387_RuntimeObject_Int32_t2950945753_Int32_t2950945753_Int32_t2950945753_SByte_t1669577662_SByte_t1669577662_SByte_t1669577662_SByte_t1669577662_Int16_t2552820387_SByte_t1669577662_SByte_t1669577662PFvvEPK10MethodInfoPvPS4_
Sig:_Bounds_get_size_m1178783246_AdjustorThunk
B5g:__Z64RuntimeInvoker_Double_t594665363_RuntimeObject_Int32_t2950945753PFvvEPK10MethodInfoPvPS4_
EWe:_InternalEnumerator_1_System_Collections_IEnumerator_get_Current_m2141782011_AdjustorThunk
R_f:_Decimal_decimalMult_m3812462972
dGe:_RecordProtocol_BeginSendRecord_m615249746
Mc:_glVertexAttrib4f
ZPh:_Enumerator_System_Collections_IEnumerator_get_Current_m209407522_AdjustorThunk
Xlg:_Display_get_systemHeight_m730809466
BQc:__ZN12b2BroadPhase13QueryCallbackEi
cxc:_error_exit
cSh:_List_1_System_Collections_IList_Insert_m4074493513_gshared
Tof:_ScrollRect_EnsureLayoutHasRebuilt_m3415112783
bgd:__ZN21UnityAnalyticsManagerD0Ev
G2i:_Uri_GetOpaqueWiseSchemeDelimiter_m1909471550
p2j:_GC_set_hdr_marks
iXa:__Z17SetupObjectMatrixRK10Matrix4x4fi
tQg:_Dictionary_2_OnDeserialization_m1254782141_gshared
x9:__ZN13RuntimeStaticINSt3__23mapINS0_4pairIPcS3_EEPFbPvR14SafeBinaryReadE20smaller_tstring_pairIPKcENS0_9allocatorINS2_IKS4_S9_EEEEEELb0EE13StaticDestroyES5_
oRd:_FileStream_FlushBufferIfDirty_m4249802951
o4e:_DefaultComparer_Compare_m1916473435_gshared
Vfe:_Convert_ToSByte_m2653811524
C7c:_open_face
Mac:__ZZL31RegisterOtherRendererPropertiesR22GenericPropertyBindingEN30Wrapper_RendererReceiveShadows13SetFloatValueEPvf
Fdd:__Z17RegisterModule_UIv
PA:__ZN8Animator24SortJobsBasedOnHierarchyERK13dynamic_arrayINS_11AnimatorJobELj8EERS0_IS2_Lj4EE
QWd:_MonoCustomAttrs_GetCustomAttributes_m1347331976
arg:_Mesh_Clear_m2630385472
V5g:__Z46RuntimeInvoker_RuntimeObject_Int16_t2552820387PFvvEPK10MethodInfoPvPS4_
nra:__ZN9GfxDevice24CreateRenderDepthSurfaceE9TextureIDiiii16TextureDimension17DepthBufferFormat18SurfaceCreateFlags
yMe:_SynchronizationAttribute_set_Locked_m2760363037
TKd:_Int16_Equals_m82811458
eAe:_PrivateKeyInfo_Decode_m986145117
Wug:_RectOffset_get_top_m2855347295
IG:__ZN4FMOD5Sound11setUserDataEPv
Bia:__ZN14SafeBinaryRead21TransferSTLStyleArrayINSt3__26vectorIN9ShaderLab19SerializedSubShaderENS1_9allocatorIS4_EEEEEEvRT_17TransferMetaFlags
frd:_ExecuteEvents_Execute_m533210008
U4g:__Z137RuntimeInvoker_Void_t1185182177_Int32_t2950945753_RuntimeObject_RuntimeObject_RuntimeObject_RuntimeObject_RuntimeObject_SByte_t1669577662PFvvEPK10MethodInfoPvPS4_
l7f:_Guid_op_Equality_m4289903222
mx:__ZN27AnimationLayerMixerPlayable13SetInputCountEi
mQa:__ZNK25SingleBlockMemoryFileData4SizeEv
zB:__ZN9BlobWrite8TransferIN7mecanim12statemachine18StateMachineMemoryEEEvRT_PKc17TransferMetaFlags
tuc:_UNITY_png_zfree
GK:__ZL50UnityAudioEffect_InternalSetFloatParameterCallbackP14FMOD_DSP_STATEif
LUj:__ZNK15dense_hashtableINSt3__24pairIK10KeyWrapperIP12Il2CppObjectEN6il2cpp2gc9CachedCCWEEES5_NS7_5utils11PointerHashIS3_EEN14dense_hash_mapIS5_S9_SD_NS5_14EqualsComparerINS0_8equal_toIS4_EEEENS0_9allocatorISA_EEE9SelectKeyESI_SK_E3endEv
NWf:_DateTime_System_IConvertible_ToUInt32_m3781235049
T1g:__Z92RuntimeInvoker_Int32_t2950945753_RuntimeObject_RuntimeObject_SByte_t1669577662_RuntimeObjectPFvvEPK10MethodInfoPvPS4_
WNd:_Int64_System_IConvertible_ToType_m3223988955
AWb:__ZN14qsort_internal5QSortIP16RenderObjectDatai25RenderPrePassObjectSorterEEvT_S4_T0_T1_
FJg:_Type_GetGenericTypeDefinition_m639345035
hNf:_SymmetricAlgorithm_Dispose_m1120980942
Bca:__ZL19StaticCleanupPlayerPv
RWd:_MonoCustomAttrs_RetrieveAttributeUsage_m2717094301
$Pd:_DirectoryInfo_Initialize_m1389772934
Gdc:__ZN13PlayableGraph4StopEv
Fhg:_AnimationCurve_Init_m425927913
DL:__ZN12AudioManager37RebindAudioSourcesAndSubMixersToMixerEP10AudioMixer
tsc:_UNITY_png_read_chunk_header
qjf:_LayoutGroup_DelayedSetDirty_m2562435574
c3a:__ZN13StreamingInfo8TransferI14SafeBinaryReadEEvRT_
cja:__ZN15dense_hashtableINSt3__24pairIKiN4core17string_with_labelILi1EEEEEi18SInt32HashFunctionN14dense_hash_mapIiS5_S7_NS0_8equal_toIiEE13stl_allocatorIS6_L18MemLabelIdentifier1ELi16EEE9SelectKeyESA_SD_E15insert_noresizeERKS6_
roj:_Physics2D_Raycast_m1377762210
rYj:__ZN6il2cpp2vmL22RaiseOverflowExceptionEv
jq:__Z23CalculateGlobalRotation23TransformAccessReadOnly
Hna:__ZNK9ShaderLab7Program11IsSupportedEPK6Shader
u0:__ZNK4core8hash_mapIPKcPK4RTTIN11TypeManager23ConstCharPtrHashFunctorENS6_19ConstCharPtrEqualToEE6lookupERKS2_
Auc:__ZL21LibpngReadFuncWrapperP14png_struct_defPhj
Npe:_TypeBuilder_GetMethodImpl_m3583143647
NKi:__ZL54LayoutGroup_t2436138090_CustomAttributesCacheGeneratorP21CustomAttributesCache
ibk:_strcat
Jac:__Z43InitializeRendererAnimationBindingInterfacev
Sba:__ZL26DestroyGameObjectRecursiveR10GameObjectR11BatchDelete
G2j:_GC_allochblk_nth
dpd:_BaseInput_get_touchSupported_m2634027966
fpf:_ScrollRect_get_vScrollingNeeded_m1717136831
v6i:_SymmetricTransform_FinalEncrypt_m748885414
X9b:__Z7HaloTexP9Texture2DPhiiii
cgk:dynCall_i
_7j:__ZNK6il2cpp8metadata23Il2CppGenericMethodHashclEPK19Il2CppGenericMethod
ktb:__ZN14SafeBinaryRead21TransferSTLStyleArrayI13dynamic_arrayIxLj8EEEEvRT_17TransferMetaFlags
nfk:dynCall_f
AAf:_ListDictionary_GetEnumerator_m3395631195
Lwb:__Z35Transfer_Blittable_FixedBufferFieldI24GenerateTypeTreeTransferjEvRK29SerializationCommandArgumentsR31RuntimeSerializationCommandInfo
IZa:__ZN8Playable13SetInputCountEi
Dek:dynCall_v
OEa:__ZN7ApiGLES14TextureSamplerEjjRK24GfxTextureSamplingParams17TextureColorSpace
Ece:_SortedList_System_Collections_IEnumerable_GetEnumerator_m2738760439
nNj:__ZN6il2cpp2vm6Thread8SetStateEP12Il2CppThreadNS0_11ThreadStateE
qTa:__ZN6Camera23VirtualRedirectTransferER14SafeBinaryRead
Ohg:_Application_get_isEditor_m857789090
Ajd:__ZN11UnityEngine7Connect13ConnectConfig11ConfigValueD2Ev
LFa:__ZNSt3__26__treeINS_12__value_typeIjP14DataBufferGLESEENS_19__map_value_compareIjS4_NS_4lessIjEELb1EEENS_9allocatorIS4_EEE7destroyEPNS_11__tree_nodeIS4_PvEE
Cye:_ASN1Convert_ToInt32_m2228176117
fig:_AssetBundleRequest_t699759206_marshal_pinvoke_back
Tdc:__ZN13PlayableGraph15SetPrepareStageE13DirectorStage
Eb:invoke_viiiiiiii
uKd:_Int16_System_IConvertible_ToDateTime_m3080274979_AdjustorThunk
O2h:_Collection_1_ConvertItem_m1760499239_gshared
QFa:__ZN18GfxFramebufferGLES24UpdateDefaultFramebufferEP17RenderSurfaceBaseS1_N2gl6HandleILNS2_10ObjectTypeE9EEE
Abh:__Z74RuntimeInvoker_RuntimeObject_RuntimeObject_Double_t594665363_RuntimeObjectPFvvEPK10MethodInfoPvPS4_
qmj:_Animator_ResetTrigger_m2321267720
ugb:__ZN18StreamedBinaryReadILb0EE21TransferSTLStyleArrayI13dynamic_arrayIiLj4EEEEvRT_17TransferMetaFlags
h5a:__ZN16LightmapSettings5ResetEv
NNa:__ZN12FileAccessor4ReadEyPvPy
J1g:__Z67RuntimeInvoker_Void_t1185182177_Int16_t2552820387_Int32_t2950945753PFvvEPK10MethodInfoPvPS4_
Qzc:__Z42Register_UnityEngine_Event_get_commandNamev
dyh:_Collection_1_IsValidItem_m714924194_gshared
qBc:__ZN5Unity9rapidjson12PrettyWriterI16TempBufferWriterNS0_4UTF8IcEES4_13JSONAllocatorE12PrettyPrefixENS0_4TypeE
yDg:_UnicodeEncoding_GetString_m332467280
Jjc:__ZN8TypeTreeC2E10MemLabelId
m2:__ZNK15FileSystemEntry6ExistsEv
Pcb:__ZNK9Transform21GetLocalToWorldMatrixER10Matrix4x4f
Iyg:_Transform_INTERNAL_get_rotation_m2413441996
eud:_TouchInputModule_IsModuleSupported_m384818291
qYf:_DateTime_ToString_m884486936
sze:_MD4Managed_HashCore_m3384203071
LH:__ZN13AudioListener23VirtualRedirectTransferER19StreamedBinaryWriteILb0EE
NCe:_ClientRecordProtocol_createClientHandshakeMessage_m3325677558
esa:__ZN13GfxDeviceGLES11CopyTextureE9TextureIDS0_
Sce:_SortedList_get_Capacity_m919184864
dSg:_Dictionary_2_ContainsKey_m2278349286_gshared
Lik:_emscripten_glViewport__wrapper
jU:__ZN11UnityEngine15CloudWebService23WebRequestUploadHandler13GetUploadDataERj
Bkg:_Color32_ToString_m403383053_AdjustorThunk
FKf:_RIPEMD160Managed_GG_m3020389474
wkj:_Canvas_get_sortingOrder_m1860900812
oKe:_ConfigHandler_ReadChannel_m781299361
_tg:_Rect_get_max_m350137314
Uwc:_realize_virt_arrays
ndh:__Z99RuntimeInvoker_Void_t1185182177_Int32_t2950945753_Int32_t2950945753_SByte_t1669577662_RuntimeObjectPFvvEPK10MethodInfoPvPS4_
q2c:_tt_size_select
GKe:_InternalRemotingServices_GetCachedSoapAttribute_m1042302982
zS:__ZN11UnityEngine15CloudWebService17SessionEventQueue15RestoreFromFileER12FileAccessorPvy
Eke:_ConstructorBuilder_GetILGenerator_m1421260830
BPj:__ZN6il2cpp2vm9Exception25RaiseOutOfMemoryExceptionEv
Lfb:__ZN14PlayerSettingsD2Ev
blf:_RectMask2D_RemoveClippable_m773604960
cEf:_AsnEncodedData_SubjectAltName_m4049949414
q6d:_Convert_ToSByte_m1350241137
u1j:_GC_reclaim_all
gSc:__ZN10ClipperLib15FirstIsBottomPtEPKNS_5OutPtES2_
nfa:__ZN13PlayableGraph14DestroyOutputsEv
R1h:_Enumerator_System_Collections_IEnumerator_get_Current_m3895111131_gshared
uf:___syscall122
See:_Convert_ToDecimal_m2858622624
qhe:_OperatingSystem__ctor_m1545635730
kXh:_List_1_RemoveAll_m2406195485_gshared
pRc:__ZN19CompositeCollider2D22AddColliderToCompositeEP10Collider2DRK13dynamic_arrayIP7b2ShapeLj4EE
ppb:__ZNK17InstancingBatcher25FillInstanceBufferWithJobIN10Instancing11DrawAPIArgsEEEvR8JobFenceR13dynamic_arrayIPvLj4EEjjRKT_
aP:__ZN9AudioClip16EnableLegacyModeEv
_Le:_Context_DoCallBack_m749197451
alj:_CanvasRenderer_set_materialCount_m4286588063
rlc:__Z52Register_UnityEngine_Camera_INTERNAL_CALL_RaycastTryv
Qak:_mkdir
baj:_VerticalLayoutGroup_SetLayoutHorizontal_m84550911
dCf:_HttpWebRequest_get_ServicePoint_m3916606901
h5j:__GLOBAL__sub_I_MemoryMappedFile_cpp
wPh:_Enumerator_MoveNext_m29052175_AdjustorThunk
Gwg:_SendMouseEvents_SetMouseMoved_m2822596724
kjc:__ZN18ScriptingArguments13CopyFromOtherERKS_
Azf:_PKCS12_ReadSafeBag_m1585166574
z4c:_ps_hints_close
qcc:__Z16CreateRenderLoopR6Camera
yGb:__ZN32SerializationCommandQueueBuilder3AddERK20SerializationCommand
nX:_tlsf_create
vGh:_ReadOnlyCollection_1_System_Collections_IEnumerable_GetEnumerator_m2505713430_gshared
Ygb:__ZN14SafeBinaryRead21TransferSTLStyleArrayINSt3__26vectorIN15ResourceManager10DependencyE13stl_allocatorIS4_L18MemLabelIdentifier52ELi16EEEEEEvRT_17TransferMetaFlags
zRc:__ZN10ClipperLib7ClipperC1Ei
RFb:__ZN13MonoBehaviour23VirtualRedirectTransferER18StreamedBinaryReadILb0EE
Bka:__ZN9ShaderLab20SerializedSubProgramC2ERKS0_
UQd:_FileLoadException__ctor_m3879680456
mSi:_Array_InternalArray__get_Item_TisKeyValuePair_2_t71524366_m252172060_gshared
Sck:__ZNK10__cxxabiv121__vmi_class_type_info27has_unambiguous_public_baseEPNS_19__dynamic_cast_infoEPvi
xYd:_MulticastDelegate_CombineImpl_m2857239134
wNg:_Version_op_Inequality_m1696193441
nwe:_Marshal_ReadByte_m1960935664
o6a:__ZN15QualitySettings23VirtualRedirectTransferER19StreamedBinaryWriteILb0EE
ISb:__Z20RenderFullScreenQuadR9GfxDeviceRK6Camera17ShaderChannelMaskRK5RectTIfEf21MonoOrStereoscopicEye
v8d:_ArrayListWrapper_CopyTo_m3756520478
Xue:_ResourceInfo_t2872965302_marshal_pinvoke
Avc:_jpeg_idct_islow
Wac:__ZN8Material8GetFloatEN9ShaderLab16FastPropertyNameE
_xc:__Z11GetGUIStatev
ug:_glGetActiveUniform
Rcg:_Array_InternalArray__IndexOf_TisSlot_t3975888750_m4250446283_gshared
Bg:_emscripten_glGetObjectParameterivARB
W0i:_CharacterClass_AddCharacter_m2370152363
T7:__ZN15SerializeTraitsI10ColorRGBAfE8TransferI14SafeBinaryReadEEvRS0_RT_
aBh:_Collection_1_IsValidItem_m2333176545_gshared
yca:__ZN22BuiltinResourceManager13StaticDestroyEPv
ONc:__ZNK14b2CapsuleShape11ComputeMassEP10b2MassDataf
Kba:__ZN10GameObject17GetComponentIndexEPN5Unity9ComponentE
U7a:__ZN14SafeBinaryRead21TransferSTLStyleArrayI13dynamic_arrayI7SubMeshLj4EEEEvRT_17TransferMetaFlags
DNi:_Array_InternalArray__set_Item_TisILTokenInfo_t2325775114_m309595583_gshared
E8c:__ZNK13TextRendering4Font11GetMaterialEv
sK:__ZN29AudioEffectInternalDefinition9CreateDSPEPN4FMOD6SystemEPvPfP23UnityAudioAmbisonicDataPP25UnityAudioSpatializerData
f4c:_UNITY_tt_face_vary_cvt
Ctf:_SimpleCollator_ClearBuffer_m2975394169
q3i:_Event_Internal_GetMousePosition_m1101229675
W$b:__ZN35RegisterRuntimeInitializeAndCleanup22ExecuteInitializationsEv
VNf:_TripleDESCryptoServiceProvider_CreateEncryptor_m450924958
q2i:_UriParser_GetParser_m544052729
vhf:_Text_get_font_m2857203289
pMa:__ZN23PreloadManagerOperation14SetFinalTimingEffff
i:DYNAMICTOP_PTR
koe:_MethodBuilder_fixup_m1765890582
lSe:_ObjectReader_ReadSimpleArray_m428957657
vfb:__ZN13BuildSettings8TransferI18StreamedBinaryReadILb0EEEEvRT_
wWd:_MissingFieldException__ctor_m4282575076
L_f:_Decimal_Equals_m2592017260
XKe:_ConfigHandler_OnEndParsing_m3764034673
_Ke:_RemotingConfiguration_RegisterTypes_m2378540395
Uqc:__Z38Renderer_Get_Custom_PropSortingLayerIDP12Il2CppObject
Q_e:_InternalEnumerator_1_System_Collections_IEnumerator_get_Current_m767948013_gshared
Tkg:_DelegatePInvokeWrapper_CSSMeasureFunc_t1554030124
Uhg:_UnityAction_Invoke_m893829196
Csc:_UNITY_png_handle_oFFs
_Ma:__ZN14AsyncOperationD0Ev
nwa:__Z29TextureIdMapGLES_QueryOrAlloc9TextureID
GFj:__ZN15dense_hashtableINSt3__24pairIK10KeyWrapperINS1_IPK12PropertyInfoP11Il2CppClassEEEjEES9_17ReflectionMapHashIS8_EN14dense_hash_mapIS9_jSD_NS9_14EqualsComparerINS0_8equal_toIS8_EEEENS0_9allocatorISB_EEE9SelectKeyESI_SK_E12resize_deltaEjj
gkg:_Color_GetHashCode_m1829208463
Fic:__Z25scripting_raise_exception21ScriptingExceptionPtr
bif:_Text_get_cachedTextGeneratorForLayout_m116487342
Omj:__ZL11decimalLog2P19il2cpp_decimal_repr
fhb:__ZN15ResourceManager10Dependency8TransferI14SafeBinaryReadEEvRT_
hwh:_Collection_1_System_Collections_IList_Remove_m3800279569_gshared
Y0j:_GC_extend_size_map
wrf:_Text_FontTextureChanged_m495427969
QLd:_NumberFormatter_RoundDecimal_m2957290908
WK:__ZN4FMOD6System9setDriverEi
dZ:__ZNK9Transform11GetRotationEv
omc:__Z36Register_UnityEngine_GameObject_Findv
Eeg:_Array_InternalArray__ICollection_Add_TisSingle_t1397266774_m1873979703_gshared
W4c:_pshinter_get_globals_funcs
Mwb:__Z18Transfer_BlittableI24GenerateTypeTreeTransferLb0EyEvRK29SerializationCommandArgumentsR31RuntimeSerializationCommandInfo
t0a:__ZN8Material14CreateMaterialER6ShaderN6Object9HideFlagsEb
tHg:_TimeSpan_get_Minutes_m4278980001_AdjustorThunk
d1c:_tt_cmap12_char_map_binary
H3i:_GUI__cctor_m3051457990
hqd:_EventSystem_IsPointerOverGameObject_m1911785875
U5:__Z25GetBuiltinResourceManagerv
iUj:__ZN6il2cpp2gc8GCHandle15GetTargetHandleEP12Il2CppObjectii
DMd:_Int32_System_IConvertible_ToByte_m3832391412
Uh:_llvm_trap
fba:__ZNSt3__27__sort5IRNS_6__lessIN12_GLOBAL__N_114ParamNameIndexES3_EEPS3_EEjT0_S7_S7_S7_S7_T_
wXi:_X509Certificate_VerifySignature_m3988463526
mvg:_RectTransform_get_anchoredPosition_m1813443094
t1j:_get_index
I1f:_Double_ParseImpl_m3514935432
bKd:_GuidParser_AtEnd_m3409982497
lxf:_KeyBuilder_Key_m876696100
g2e:_InternalEnumerator_1_System_Collections_IEnumerator_get_Current_m2164048921_gshared
ICj:__ZN15dense_hashtableINSt3__24pairIK10KeyWrapperINS1_IPK14Il2CppAssemblyP11Il2CppClassEEEjEES9_17ReflectionMapHashIS8_EN14dense_hash_mapIS9_jSD_NS9_14EqualsComparerINS0_8equal_toIS8_EEEENS0_9allocatorISB_EEE9SelectKeyESI_SK_EC2ERKSN_j
uxj:__ZN6il2cpp2vm21ThreadPoolCompartment12DetachThreadEP12Il2CppThread
yFd:_SByte_System_IConvertible_ToInt16_m885121451_AdjustorThunk
MZf:_Decimal_stripStyles_m1823381019
Dra:__ZN13GfxDeviceGLES30SetBackBufferColorDepthSurfaceEP17RenderSurfaceBaseS1_
EAc:__Z52Register_UnityEngine_GUIUtility_get_systemCopyBufferv
VRi:_LayoutGroup_SetProperty_TisBoolean_t97287965_m3903959758_gshared
dec:__ZN16StreamedResource8TransferI18StreamedBinaryReadILb0EEEEvRT_
znc:__Z49Register_UnityEngine_Input_get_imeCompositionModev
exg:_Sprite_INTERNAL_get_rect_m1600380876
bja:__ZN15dense_hashtableINSt3__24pairIKiN4core17string_with_labelILi1EEEEEi18SInt32HashFunctionN14dense_hash_mapIiS5_S7_NS0_8equal_toIiEE13stl_allocatorIS6_L18MemLabelIdentifier1ELi16EEE9SelectKeyESA_SD_E12resize_deltaEjj
VYb:__ZNK20OcclusionCullingData22GetStaticRendererCountEv
kIc:__GLOBAL__sub_I_runtime_particlesystem_modules_5_cpp
Cnk:_emscripten_glDisableVertexAttribArray__wrapper
ehe:_Object_InternalGetHashCode_m4213713973
CXd:_MonoType_GetAttributeFlagsImpl_m167182975
RAe:_EncryptedData_get_EncryptedContent_m3205649670
rcb:__ZN12MeshRenderer18CalculateLocalAABBER4AABBRKS_RK4Mesh
gW:__ZN21UnityDefaultAllocatorI17LowLevelAllocatorE8AllocateEji
Kx:__ZN7mecanim5human14HumanPoseClearERNS0_9HumanPoseERKNS_6bitsetILj83EEE
rbd:__ZL28InitializeUIScriptingClassesv
tgh:__Z54RuntimeInvoker_Vector2_t2156229523_Vector3_t3722313464PFvvEPK10MethodInfoPvPS4_
FJb:__ZN10UnityScene10ClearRootsEv
eGh:_ReadOnlyCollection_1_System_Collections_IList_set_Item_m2162444692_gshared
onb:__ZN12HandlerChain10AtomicMoveER13FileEntryDataS1_
THa:__ZN9GfxDevice17HasGPUFencePassedEPv
Tea:__ZZN15DirectorManager15InitializeClassEvEN48PreLateUpdateDirectorDeferredEvaluateRegistrator7ForwardEv
qWc:__ZN20SpeedTreeWindManager6UpdateEf
y6g:__Z68RuntimeInvoker_Int64_t3736567304_IntPtr_t_MonoIOErrorU26_t1548853198PFvvEPK10MethodInfoPvPS4_
mD:__ZN7mecanim9animation20CreateAvatarConstantEPNS_8skeleton8SkeletonEPNS1_13SkeletonPoseTIN4math4trsXEEES8_PNS_5human5HumanES3_iRKS6_RNS_6memory9AllocatorE
Obb:__ZN14CompressedMesh8TransferI19StreamedBinaryWriteILb0EEEEvRT_
xgg:_Array_InternalArray__Insert_TisDouble_t594665363_m675699942_gshared
uZh:_List_1_System_Collections_IList_Add_m3014885234_gshared
sNh:_UnityAction_1_Invoke_m3535252839_gshared
r$j:__ZNK6il2cpp5utils13VmStringUtils21CaseSensitiveComparerclERKNSt3__212basic_stringIcNS3_11char_traitsIcEENS3_9allocatorIcEEEEPKc
Spf:_Selectable_set_isPointerInside_m701571657
wWa:__ZN24GenerateTypeTreeTransfer8TransferI21PlatformShaderDefinesEEvRT_PKc17TransferMetaFlags
Pgb:__ZNK15ResourceManager22GetTypeVirtualInternalEv
YRj:__ZN6il2cpp2vmL36AddNestedTypesToNametoClassHashTableEPK11Il2CppImagePK20Il2CppTypeDefinition
c$h:_List_1_set_Capacity_m2707586410_gshared
vrg:_PlayerConnection_MessageCallbackInternal_m1914517467
uig:_AttributeHelperEngine__cctor_m1900959362
F5c:__ZN13TextRendering4Font23VirtualRedirectTransferER24GenerateTypeTreeTransfer
yHi:__ZL102Image_t2670269651_CustomAttributesCacheGenerator_Image_t2670269651____eventAlphaThreshold_PropertyInfoP21CustomAttributesCache
gEf:_X509SubjectKeyIdentifierExtension_ToString_m12089275
qjh:__Z106RuntimeInvoker_RuntimeObject_RuntimeObject_Int32_t2950945753_Int16_t2552820387_RuntimeObject_RuntimeObjectPFvvEPK10MethodInfoPvPS4_
RMg:_UnhandledExceptionEventArgs__ctor_m224348470
flj:_CanvasRenderer_SetPopMaterial_m2720611463
Hcg:_Array_InternalArray__IndexOf_TisByte_t1134296376_m929524687_gshared
HP:__ZN11AudioSource15InitializeClassEv
lrd:_ExecuteEvents_get_dragHandler_m3849431675
jSb:__ZN11HaloManager17RenderGeometryJobEP25DynamicVBOGeometryJobDataj
Lrg:_Object_DestroyImmediate_m2288369078
vwf:_BitConverterLE_UShortFromBytes_m1253080092
CE:__ZNSt3__227__insertion_sort_incompleteIRPFbN7mecanim9animation13MuscleIndexIdES3_EPS3_EEbT0_S8_T_
Onk:_emscripten_glBlendEquation__wrapper
bMj:__ZN15dense_hashtableINSt3__24pairIK10KeyWrapperIP11Il2CppClassES4_EES5_N6il2cpp8metadata16SZArrayClassHashEN14dense_hash_mapIS5_S4_SA_NS5_14EqualsComparerINS9_19SZArrayClassCompareEEENS0_9allocatorIS7_EEE9SelectKeyESE_SG_E13set_empty_keyERKS7_
Lbk:__ZNSt3__212basic_stringIcNS_11char_traitsIcEENS_9allocatorIcEEE6__initEPKcj
qtc:_UNITY_png_icc_check_length
MIh:_ReadOnlyCollection_1_System_Collections_IList_Insert_m4085855595_gshared
p_i:_PatternCompiler_NewLink_m3699449496
sV:__ZN11UnityEngine15CloudWebService14DataDispatcher22ResetNetworkRetryIndexEv
ek:_emscripten_glDrawArrays
zpg:_Material_HasProperty_m2704238996
CMb:__ZZ23InitPlayerLoopCallbacksvEN43EarlyUpdateExecuteMainThreadJobsRegistrator7ForwardEv
VU:__ZN11UnityEngine15CloudWebService19SessionEventManagerC2Ev
t6d:_Char_System_IConvertible_ToSingle_m2690985411_AdjustorThunk
OJh:_Comparison_1_Invoke_m668117148_gshared
rAf:_DictionaryNodeEnumerator_FailFast_m2494733641
r7:__ZN14GfxDoubleCacheIyP17VertexDeclaration14GfxGenericHashIyENSt3__28equal_toIyEEN31GfxDoubleCacheConcurrencyPolicy11LocklessGetE42GfxDoubleCacheDefaultEmptyDeletedGeneratorIyEE3GetI15VertDeclCreatorEERKS1_RKyT_
kod:__ZN13RuntimeStaticI14dynamic_bitsetLb0EE16StaticInitializeEPv
Aha:__ZNSt3__222__merge_move_constructIRNS_4lessIN4core12basic_stringIcNS2_20StringStorageDefaultIcEEEEEENS_11__wrap_iterIPS6_EESB_EEvT0_SC_T1_SD_PNS_15iterator_traitsISC_E10value_typeET_
elc:__Z41Register_UnityEngine_Camera_get_eventMaskv
XP:__ZL19CleanupModule_Audiov
tKf:_IntervalCollection_CopyTo_m2976848759
dwd:_CanvasUpdateRegistry_ObjectValidForUpdate_m2723813849
eEa:__ZN18GlslGpuProgramGLES25LoadFromBinaryShaderCacheERjRKN4core12basic_stringIcNS1_20StringStorageDefaultIcEEEER17ShaderChannelMaskPKc
lXh:_List_1_RemoveAt_m1433290785_gshared
Qtb:__Z29Transfer_Blittable_ArrayFieldI14SafeBinaryReadiEvRT_R9ArrayInfoRK23StaticTransferFieldInfo
kyj:__ZN6il2cpp6icalls8mscorlib6System8MonoType8GetFieldEP20Il2CppReflectionTypeP12Il2CppStringi
puj:__ZN15dense_hashtableINSt3__24pairIK10KeyWrapperIN6il2cpp5utils13dynamic_arrayIPK10Il2CppTypeLj4EEEEPFvvEEESA_NS3_8metadata19Il2CppSignatureHashEN14dense_hash_mapISA_SD_SG_NSA_14EqualsComparerINSF_22Il2CppSignatureCompareEEENS0_9allocatorISE_EEE9SelectKeyESK_SM_E5clearEv
qMf:_SHA256Managed_ProcessBlock_m2297835517
gkk:_emscripten_glVertexAttrib3fv__wrapper
Vkg:_CSSMeasureFunc_Invoke_m3910201085
Rde:_Convert_ToBoolean_m4098720762
GIh:_ReadOnlyCollection_1_System_Collections_ICollection_CopyTo_m511916545_gshared
w9f:_Array_InternalArray__ICollection_Remove_TisOrderBlock_t1585977831_m1449044465_gshared
Tjk:_emscripten_glGetIntegerv__wrapper
yie:_AssemblyName__ctor_m1753467291
zqf:_Slider_set_minValue_m3431883418
Lhc:__ZN8Material10GetTextureEN9ShaderLab16FastPropertyNameE
Ncf:_Enumerator_System_Collections_IEnumerator_get_Current_m1657817602_gshared
Bbb:__ZN18StreamedBinaryReadILb0EE21TransferSTLStyleArrayI13dynamic_arrayI10Matrix4x4fLj16EEEEvRT_17TransferMetaFlags
j8b:__ZNK28MonoBehaviourPropertyBinding13GetFloatValueERKN11UnityEngine9Animation10BoundCurveE
C9e:_KeyCollection_System_Collections_ICollection_get_SyncRoot_m2999306921_gshared
j3j:_GC_generic_malloc
xkc:__Z33Camera_Get_Custom_PropFieldOfViewP12Il2CppObject
EHa:__Z19GetVertexFormatSize12VertexFormat
Qp:__ZN14SafeBinaryRead21TransferSTLStyleArrayI13dynamic_arrayIiLj4EEEEvRT_17TransferMetaFlags
FAg:_Vector4__cctor_m2519631228
O$b:__ZNK18ScreenManagerWebGL13GetShowCursorEv
l8d:_ArrayListWrapper_Clear_m2625302714
eok:_emscripten_glIsTexture__wrapper
fCe:_CipherSuiteCollection_System_Collections_IEnumerable_GetEnumerator_m3240848888
dKh:_Comparison_1_BeginInvoke_m3417636795_gshared
Mge:_Convert_ToUInt64_m1627266664
fra:__ZN9GfxDevice25ReleaseAsyncCommandHeaderEPN21GfxDeviceAsyncCommand3ArgE
L8e:_Enumerator_get_Current_m1327963819_AdjustorThunk
iYi:_X509Crl_Parse_m3164013387
Ywb:__ZL22Transfer_ManagedObjectI24GenerateTypeTreeTransferLb0EEvRK29SerializationCommandArgumentsR31RuntimeSerializationCommandInfo
pUc:__ZN17Physics2DSettings15InitializeClassEv
rHa:__ZN21UniformBufferTFMethod20IsBoneCountSupportedEi
DCd:_HorizontalLayoutGroup_CalculateLayoutInputHorizontal_m750541069
UYj:__ZN6il2cpp6icalls8mscorlib6System11Environment11get_NewLineEv
PGf:_X509CertificateCollection__ctor_m1395805580
yue:_ResourceReader_CreateResourceInfo_m1818330740
yDe:_ClientSessionInfo_Dispose_m3253728296
p0a:__ZN6Shader27MarkShaderStateNotSupportedEPKS_
crc:__Z41Register_UnityEngine_Renderer_SetMaterialv
Irg:_Object_Internal_CloneSingle_m1021157572
UGa:__ZN25TransformFeedbackSkinning8SkinMeshERK18VertexStreamSourceP9GfxBufferP17GPUSkinPoseBufferS4_ii17ShaderChannelMaskb
xRj:__ZN15dense_hashtableINSt3__24pairIK10KeyWrapperIP14Il2CppIUnknownEjEES5_N6il2cpp5utils11PointerHashIS3_EEN14dense_hash_mapIS5_jSB_NS5_14EqualsComparerINS0_8equal_toIS4_EEEENS0_9allocatorIS7_EEE9SelectKeyESG_SI_E12resize_deltaEjj
oue:_ResolveEventArgs__ctor_m1455935166
WIg:_Type_Equals_m1673304139
LUd:_SynchronizedReader_Read_m1388613247
v4b:__Z18tessMeshDeleteMeshP9TESSallocP8TESSmesh
pzb:__Z22TransferField_NonArrayI19StreamedBinaryWriteILb0EE27Converter_SimpleNativeClassI8GUIStyleEEvRK23StaticTransferFieldInfoR31RuntimeSerializationCommandInfoRT0_
rnf:_Scrollbar_OnPointerDown_m3213715319
IHc:__ZN8JSONRead8TransferIN4math12int3_storageEEEvRT_PKc17TransferMetaFlagsb
xNb:__ZN27IntermediateRendererManager29ClearAllIntermediateRenderersEv
qtd:_StandaloneInputModule__ctor_m2419721820
m5e:_Comparer_1_System_Collections_IComparer_Compare_m2018996185_gshared
kq:__Z17CalculateGlobalSM23TransformAccessReadOnlyRKN4math7_float4E
mae:_CollectionBase_System_Collections_IList_Contains_m2994901969
fm:_emscripten_glLoadIdentity
i0b:__ZNSt3__26vectorINS_4pairIN4core12basic_stringIcNS2_20StringStorageDefaultIcEEEEPK17MessageIdentifierEENS_9allocatorISA_EEE26__swap_out_circular_bufferERNS_14__split_bufferISA_RSC_EEPSA_
ofe:_Convert_ToInt16_m2896657713
Yrg:_Vector3_get_zero_m1409827619
pXb:__Z29CullShadowCastersWithoutUmbraR9IndexListRK17CullingParametersPK4AABBjj
gpa:__ZN6Shader16GetDefaultOrNullEv
Mp:__ZN4AABB8TransferI14SafeBinaryReadEEvRT_
suc:_UNITY_png_destroy_info_struct
i8f:_Array_InternalArray__ICollection_Contains_TisX509ChainStatus_t133602714_m795171973_gshared
yPj:__ZN6il2cpp2vm8Liveness8FromRootEP12Il2CppObjectPv
iMc:__ZN16PhysicsManager2D26GetGameObjectForRaycastHitERK12RaycastHit2D
Acb:__ZN12MeshRenderer23VirtualRedirectTransferER19StreamedBinaryWriteILb0EE
V5a:__ZN18StreamedBinaryReadILb0EE21TransferSTLStyleArrayI13dynamic_arrayI12LightmapDataLj4EEEEvRT_17TransferMetaFlags
vbj:_U3CStartU3Ec__Iterator0_MoveNext_m2814532427
KOa:__ZNK17ArchiveFileSystem9EnumerateEPKcP19dynamic_block_arrayI13FileEntryInfoLj32EEbPPv19FileEnumerationFlag
e2b:__Z11MD5ToStringPh
lnc:__Z38Input_Get_Custom_PropCompositionStringv
Irf:_Text_get_alignment_m1496827807
gzf:_ContentInfo_get_ASN1_m1776225219
VS:__ZN9JSONWrite8TransferIN4core12basic_stringIcNS1_20StringStorageDefaultIcEEEEEEvRT_PKc17TransferMetaFlags
fNc:__ZN24b2ChainAndPolygonContact6CreateEP9b2FixtureiS1_iP16b2BlockAllocator
hge:_Convert_ToSingle_m2533452644
Ubk:__ZNSt3__212basic_stringIcNS_11char_traitsIcEENS_9allocatorIcEEE6resizeEjc
Ofb:__ZN14PlayerSettings16CheckConsistencyEv
GO:__ZN11AudioModule30GetOrCreateDSPFromCustomFilterEP17AudioCustomFilter
HUa:__ZN19AtomicPageAllocatorD2Ev
vqd:_EventTrigger_OnPointerEnter_m986348926
KQj:__ZN6il2cpp6icalls8mscorlib6System13GlobalizationL20culture_lcid_locatorEPKvS5_
YNf:_X509Certificate__ctor_m1413707489
T2a:__ZNK12CubemapArray16ExtractImageImplEP14ImageReferenceNS0_8BlitModeEbi
Qnc:__Z63Register_UnityEngine_MonoBehaviour_StartCoroutine_Auto_Internalv
qhk:_glTexStorage3D__wrapper
_fb:__ZN10VRSettings8TransferI14SafeBinaryReadEEvRT_
wJg:_Type_IsMarshalByRefImpl_m914778231
dbe:_Hashtable__ctor_m2302711321
ka:invoke_viifiiii
K5d:_Byte_TryParse_m1467448483
jfk:dynCall_viiiiiif
wnd:__ZN20UnityWebRequestProtoI24UnityWebRequestTransport16AtomicRefCounter14RedirectHelper14ResponseHelper15DownloadHandler13UploadHandler12HeaderHelper14AsyncOperationE8FinalizeEv
Pxg:_Texture2D_get_whiteTexture_m2176011403
s4:__ZN22PerThreadPageAllocator14AcquireNewPageEj
cL:__ZN24AudioScriptBufferManager15DidReloadDomainEv
sKh:_Func_2_Invoke_m3516477887_gshared
jwi:__ZL65SelectionBaseAttribute_t3493465804_CustomAttributesCacheGeneratorP21CustomAttributesCache
uTf:_String_ToString_m3872792296
cwb:__Z18Transfer_BlittableI24GenerateTypeTreeTransferLb1E9BoundsIntEvRK29SerializationCommandArgumentsR31RuntimeSerializationCommandInfo
MQd:_FileStream_GetSecureFileName_m449783930
wTb:__ZN6Camera13ClearNoSkyboxEb
DVd:_UnexceptionalStreamWriter_Flush_m82278468
H_e:_InternalEnumerator_1_get_Current_m3911557813_gshared
Etj:__ZNK15dense_hashtableI10KeyWrapperIPK17Il2CppGenericInstES4_N6il2cpp8metadata21Il2CppGenericInstHashEN14dense_hash_setIS4_S7_NS4_14EqualsComparerINS6_24Il2CppGenericInstCompareEEENSt3__29allocatorIS4_EEE8IdentityESB_SE_E12test_deletedEj
ZSa:__ZN19StreamedBinaryWriteILb0EE21TransferSTLStyleArrayI13dynamic_arrayI17SortingLayerEntryLj4EEEEvRT_17TransferMetaFlags
epd:_BaseInput_get_touchCount_m1263753282
Bye:_ASN1Convert_FromOid_m3844102704
jPe:_RemotingSurrogate_SetObjectData_m2713731796
_Uf:_DecoderReplacementFallbackBuffer_Reset_m3943028589
sFa:__ZN18GfxFramebufferGLES10InvalidateEv
GYg:_Enumerator_System_Collections_IEnumerator_get_Current_m282279808_AdjustorThunk
Cif:_LayoutRebuilder_MarkLayoutRootForRebuild_m1241498911
WEg:_CompressedStack_CreateCopy_m2591279216
BLf:_RSAPKCS1KeyExchangeFormatter_CreateKeyExchange_m1611814432
saa:__ZN10MemoryPoolD2Ev
Yyc:__ZNSt3__26__treeINS_12__value_typeIN4core12basic_stringIcNS2_20StringStorageDefaultIcEEEEN5IMGUI12NamedControlEEENS_19__map_value_compareIS6_S9_NS_4lessIS6_EELb1EEENS_9allocatorIS9_EEE7destroyEPNS_11__tree_nodeIS9_PvEE
aEf:_AsnEncodedData_KeyUsageExtension_m1792651780
y5b:__ZN19SpriteMeshGenerator4path3decEi
oWj:__ZN6il2cpp2os5posix15PosixWaitObjectD2Ev
ePb:__ZNK25CameraStackRenderingState28GetDstTextureForImageFiltersEv
Cak:___mmap
Adc:__ZN9Scripting26RaiseArgumentNullExceptionEPKc
zok:b120
zX:__ZL18InternalLogConsolePKcz
v9j:_lseek
lYe:_InternalEnumerator_1_get_Current_m685192625_gshared
xVd:_UnexceptionalStreamReader_Read_m16956299
Hue:_ResourceReader_ReadValueVer1_m183253382
l0:__Z37scripting_method_get_nth_argumenttype18ScriptingMethodPtri
hN:__ZN11AudioSource16UpdatePauseStateEv
Uda:__ZL52StaticUnregisterSceneLoadedCallback_LightmapSettingsPv
Njg:_Camera_get_main_m3643453163
i7j:__ZN6il2cpp5utils25NativeDelegateMethodCache17AddNativeDelegateEPFvvEPK10MethodInfo
bkf:_LayoutRebuilder_U3CRebuildU3Em__5_m1288787547
HSb:__ZN27DeviceViewProjMatricesStateD2Ev
Nwg:_SendMouseEvents__cctor_m2378365934
qDh:_ReadOnlyCollection_1_System_Collections_IList_set_Item_m3582274843_gshared
Opg:_Mathf_Pow_m856735666
Dga:__ZL39CreateRegisteredMessageIdentifiersArrayPv
Pvb:__Z18Transfer_BlittableI24GenerateTypeTreeTransferLb0E8Vector3fEvRK29SerializationCommandArgumentsR31RuntimeSerializationCommandInfo
ltf:_SimpleCollator_FilterExtender_m72900315
B5c:__ZNK13TextRendering4Font22GetTypeVirtualInternalEv
Vyf:_SymmetricTransform_CheckInput_m1829858759
yhb:__ZN19StreamedBinaryWriteILb0EE21TransferSTLStyleArrayINSt3__26vectorIN15ResourceManager10DependencyE13stl_allocatorIS5_L18MemLabelIdentifier52ELi16EEEEEEvRT_17TransferMetaFlags
Wie:_Binder_FindMostDerivedMatch_m239579024
cee:_Convert_ToByte_m3824130483
X5i:_GUIUtility_EndContainerGUIFromException_m530164245
ulj:_RectTransformUtility_INTERNAL_CALL_RectangleContainsScreenPoint_m1214874141
oza:__ZN6prcoreL10inner_flipILj2EEEvPhS1_j
u9a:__ZNK14Texture2DArray16ExtractImageImplEP14ImageReferenceNS0_8BlitModeEbi
$Cg:_StringBuilder_Append_m2383614642
XDc:__ZN9JSONWrite8TransferIbEEvRT_PKc17TransferMetaFlags
PLa:__ZN12TLSAllocatorI14StackAllocatorED0Ev
Meb:__ZN11TimeManager16CheckConsistencyEv
cQb:__ZN21GfxDeviceAsyncCommand10ArgScratch15ThreadedCleanupEv
zSc:__ZN10ClipperLib14IntersectPointERNS_5TEdgeES1_RNS_8IntPointE
mdc:__Z14DoubleToStringd
cUf:_StringComparer_GetHashCode_m2080455020
ovb:__ZN12NativeBufferI27Converter_UnityEngineObjectE15SetupForWritingER9ArrayInfo
M4b:__ZL19CheckForRightSpliceP14TESStesselatorP12ActiveRegion
uUh:_List_1_CheckCollection_m2118769249_gshared
ze:_glTexImage3D
syd:_DefaultControls_SetDefaultColorTransitionValues_m2033775311
d1:__ZN14SerializedFile27PatchRemapDeprecatedClassesEv
qhg:_Array_InternalArray__set_Item_TisChar_t3634460470_m741842250_gshared
QUi:_TlsServerSettings_set_RsaParameters_m853026166
K0a:__ZNSt3__26vectorINS_4pairI11ShaderTagIDS2_EENS_9allocatorIS3_EEE6insertENS_11__wrap_iterIPKS3_EERS8_
kXf:_DateTime_AddMilliseconds_m3713972790_AdjustorThunk
amc:__Z22GameObject_CUSTOM_FindP12Il2CppString
oJd:_RC2_Create_m2052783340
J6f:_Guid__ctor_m3421080095_AdjustorThunk
Wee:_Convert_ToDouble_m217737046
yVb:__ZN23ForwardShaderRenderLoopD2Ev
Hvc:_start_pass_upsample
Khh:__Z133RuntimeInvoker_Int32_t2950945753_Vector2_t2156229523_Vector2_t2156229523_Single_t1397266774_ContactFilter2D_t3805203441_RuntimeObjectPFvvEPK10MethodInfoPvPS4_
Tic:__ZL34GetComponentsImplementationRecurseILb1ELi0ELi1EEbR10GameObjectbRK17CompareParametersRK39GetComponentsImplementation_ReturnValue
s1f:_Double_Equals_m1674752021
zgf:_InputField_OnDisable_m1824300767
hcd:__ZN2UI25AddCanvasRendererToCanvasER8JobFencePNS_12CanvasHandleERNS_10CanvasDataEi
bOd:_Int64_System_IConvertible_ToUInt64_m2815650160_AdjustorThunk
wgb:__ZN10VRSettings8TransferI18StreamedBinaryReadILb0EEEEvRT_
Lw:__ZN22AnimationMixerPlayable12MixerProcessEP35AnimationPlayableEvaluationConstantP32AnimationPlayableEvaluationInputP33AnimationPlayableEvaluationOutputM17AnimationPlayableFvS1_S3_S5_EPFvS1_S3_S5_ESA_PFvS5_S1_S3_S5_PN7mecanim16ValueArrayWeightEfEPFvS1_S3_S5_SD_fE
e6e:_Enumerator_get_CurrentKey_m2230405065_gshared
NUc:__ZN22WorldContactListener2D12BeginContactEP9b2Contact
_Vd:_Math_Abs_m3912393749
aFe:_TlsClientFinished_ProcessAsSsl3_m3094597606
LGc:__ZN8JSONRead21TransferSTLStyleArrayI13dynamic_arrayIdLj8EEEEvRT_17TransferMetaFlags
Ojg:_Camera_get_allCamerasCount_m528453758
Rxj:__ZN6il2cpp2vm10ThreadPool5QueueEP14Il2CppDelegatePPvS3_P12Il2CppObject
vzb:__Z19TransferField_ArrayI19StreamedBinaryWriteILb0EE27Converter_SimpleNativeClassI8GradientEEvRK23StaticTransferFieldInfoR31RuntimeSerializationCommandInfoRT0_
Lla:__ZN24GenerateTypeTreeTransfer8TransferINSt3__26vectorIN9ShaderLab20SerializedSubProgram15VectorParameterENS1_9allocatorIS5_EEEEEEvRT_PKc17TransferMetaFlags
NKc:__ZNK12b2WheelJoint16GetReactionForceEf
mlk:_glGetUniformBlockIndex__wrapper
R1d:_Array_CreateInstance_m2696293787
mDg:_UnicodeEncoding__ctor_m1074918879
r8a:__ZN7SubMesh8TransferI18StreamedBinaryReadILb0EEEEvRT_
Xoe:_OpCode_Equals_m1376200488_AdjustorThunk
fxd:_ColorBlock_op_Inequality_m2718216889
nf:_emscripten_glIsEnabled
xBb:__ZN18StreamedBinaryReadILb1EE21TransferSTLStyleArrayI13dynamic_arrayIdLj8EEEEvRT_17TransferMetaFlags
fmc:__Z45Register_UnityEngine_GameObject_get_transformv
gle:_DerivedType_GetConstructors_m483065502
C_:__Z29scripting_class_instance_size17ScriptingClassPtr
qHc:__Z29Transfer_Blittable_ArrayFieldI8JSONRead5RectTIiEEvRT_R9ArrayInfoRK23StaticTransferFieldInfo
nJc:__ZN7b2World12DestroyJointEP7b2Joint
Mrh:__Z68RuntimeInvoker_Boolean_t97287965_SByte_t1669577662_SByte_t1669577662PFvvEPK10MethodInfoPvPS4_
thh:__Z165RuntimeInvoker_Void_t1185182177_RuntimeObject_Int32_t2950945753_Int32_t2950945753_RuntimeObject_Int32_t2950945753_Single_t1397266774_Single_t1397266774_RuntimeObjectPFvvEPK10MethodInfoPvPS4_
Ec:invoke_iiiiiiiii
vV:__ZN11UnityEngine15CloudWebService19SessionEventManager26ProcessEventQueueJobStaticEPv
Kpg:_Mathf_Min_m1073399594
uaf:_KeyCollection__ctor_m4231035512_gshared
Tdb:__ZL19SpriteMeshExtractorPv17ShaderChannelMaskiR11MeshBuffersR16DrawBuffersRangeRiS5_
t$c:_otv_Coverage_get_last
PV:__ZN11UnityEngine15CloudWebService19SessionEventManager37OnTimerExpiredPerformArchiveJobStaticEPv
PCc:__Z18Transfer_BlittableI9JSONWriteLb1E9BoundsIntEvRK29SerializationCommandArgumentsR31RuntimeSerializationCommandInfo
Wsf:_MSCompatUnicodeTable_FillCJKCore_m2347268515
n1i:_Group_GetWidth_m3299755715
E$f:_Decimal_op_Implicit_m1920400487
oZa:__ZN10builtintex15GetWhiteTextureEv
$Oe:_MonoMethodMessage_get_TypeName_m3758247133
Qbe:_Enumerator_get_Entry_m2184304359
Du:__ZN7mecanim9animation16CreateClipMemoryEPKNS0_4ClipEiRNS_6memory9AllocatorE
l8j:__ZN6il2cpp6icalls8mscorlib6System10Reflection4Emit11DerivedType21create_unmanaged_typeEP20Il2CppReflectionType
aDd:_Image_set_fillCenter_m3776786491
lga:__Z29GetOcclusionPortalManagerListv
cpc:__Z39Register_UnityEngine_Sprite_get_texturev
Dmj:__ZL10rescale128PyS_Piiiii
lH:__ZN9AudioClip7WWWSeekEPvjS0_
m8h:__ZL63FixedBufferAttribute_t3759792648_CustomAttributesCacheGeneratorP21CustomAttributesCache
J9:__ZL32StaticInitializeIUnityInterfacesPv
HPb:__Z13CameraProjectRK8Vector3fRK10Matrix4x4fS4_RK5RectTIiERS_b
rib:__ZN30RuntimeInitializeOnLoadManager15ClassMethodInfo8TransferI19StreamedBinaryWriteILb0EEEEvRT_
ada:__Z22CreateMutexLockedStackv
VKb:__ZNSt3__27__sort5IRNS_4lessIN22BuiltinResourceManager8ResourceEEEPS3_EEjT0_S7_S7_S7_S7_T_
ILd:_NumberFormatter_FormatNumber_m1763569482
NGi:__ZL57FontData_t746620069_CustomAttributesCacheGenerator_m_FontP21CustomAttributesCache
tna:__ZN9ShaderLab11ShaderStateD2Ev
e3c:_Ins_DELTAP
cHb:__Z23TransferScriptingObjectI24GenerateTypeTreeTransferEvRT_18ScriptingObjectPtr17ScriptingClassPtrPK15MonoScriptCache
t_i:_PatternLinkStack_GetOffset_m3697714525
frj:_AnalyticsEvent__cctor_m3994162614
Rjk:_emscripten_longjmp__wrapper
Yxc:__ZN12GUIClipState5ApplyER10InputEvent
bzb:__ZL17Transfer_GUIStyleI19StreamedBinaryWriteILb0EELb0EEvRK29SerializationCommandArgumentsR31RuntimeSerializationCommandInfo
ATb:__ZN10TextureRef4InitEP7Textureb
eRd:_MonoIO_GetFileType_m101289143
Qya:__Z19ScheduleJobInternalR8JobFencePFvPvES1_11JobPriority
iBf:_KeysCollection_get_Count_m3943311735
tJc:__ZN16b2BlockAllocator4FreeEPvi
fXe:_InternalEnumerator_1_get_Current_m2832154098_gshared
kNg:_Version__ctor_m1550720073
Swj:__ZNSt3__211__tree_nextIPNS_16__tree_node_baseIPvEEEET_S5_
tTj:__ZN15dense_hashtableI10KeyWrapperIP18Il2CppGenericClassES3_N6il2cpp8metadata22Il2CppGenericClassHashEN14dense_hash_setIS3_S6_NS3_14EqualsComparerINS5_25Il2CppGenericClassCompareEEENSt3__29allocatorIS3_EEE8IdentityESA_SD_E14squash_deletedEv
eWj:__ZN6il2cpp2vm11MethodStack17GetStackFramesRawEv
PBa:__ZN6prcoreL17RemapGenericFloatI17TexFormatRGBAHalf17TexFormatRGBFloatEEvPKNS_9InnerInfoE
h3g:__Z52RuntimeInvoker_Double_t594665363_Decimal_t2948259380PFvvEPK10MethodInfoPvPS4_
N$e:_InternalEnumerator_1_get_Current_m784835552_gshared
Orc:__Z35Sprite_Get_Custom_PropPixelsPerUnitP12Il2CppObject
Htj:__ZNSt3__26__sortIRN6il2cpp5utils11collections13ArrayValueMapIPK10Il2CppType17Il2CppInteropData26InteropDataToTypeConverterNS1_8metadata14Il2CppTypeLessENSA_26Il2CppTypeEqualityComparerEE12SortComparerEPS8_EEvT0_SH_T_
ikb:__ZN11PreloadDataD2Ev
Omd:__ZN15DownloadHandler14ProcessHeadersERK9HeaderMap
T5c:__ZNSt3__26vectorINS_4pairIifEE13stl_allocatorIS2_L18MemLabelIdentifier35ELi16EEE6assignINS_11__wrap_iterIPS2_EEEENS_9enable_ifIXaasr21__is_forward_iteratorIT_EE5valuesr16is_constructibleIS2_NS_15iterator_traitsISC_E9referenceEEE5valueEvE4typeESC_SC_
fc:invoke_iifi
i6d:_Char_System_IConvertible_ToInt16_m975497224_AdjustorThunk
xLc:__ZNK16b2PrismaticJoint16GetReactionForceEf
_$f:_Delegate_CreateDelegate_m995503480
Azj:__ZNK6il2cpp5utils10StringViewIcE5RFindEc
sle:_DerivedType_get_Module_m3032466746
HVa:__ZN15SharedLightData15UpdateTransformERK9Transform
NHi:__ZL71InputField_t3762917431_CustomAttributesCacheGenerator_m_OnValidateInputP21CustomAttributesCache
Yga:__ZN18AssetBundleManagerD2Ev
Vmc:__Z44Register_UnityEngine_RectOffset_get_verticalv
N6j:__ZN6il2cpp2vm9LastError31InitializeLastErrorThreadStaticEv
Ukf:_MaskableGraphic_set_maskable_m243551751
kUd:_StreamWriter_Dispose_m2818839127
Uea:__ZZN15DirectorManager15InitializeClassEvEN43PostLateUpdateDirectorLateUpdateRegistrator7ForwardEv
qh:_JS_SystemInfo_GetCurrentCanvasHeight
cUe:_ArrayReadOnlyList_1_IndexOf_m1911574180_gshared
Dkf:_Mask_OnEnable_m2186824439
jff:_InputField_SetCaretVisible_m2216480850
HHf:_X509EnhancedKeyUsageExtension_CopyFrom_m3750050754
A0a:__ZNK8Material22GetTypeVirtualInternalEv
fAc:__Z34GUIStyle_Get_Custom_PropFixedWidthP12Il2CppObject
rFh:_ReadOnlyCollection_1_System_Collections_IList_Clear_m1076810235_gshared
ntc:_UNITY_png_app_error
I$g:_Enumerator_System_Collections_IEnumerator_get_Current_m3405349194_AdjustorThunk
JYj:__ZN6il2cpp2gc16GarbageCollector11GetWeakLinkEPPv
RWj:__GLOBAL__sub_I_Console_cpp
FBa:__ZN6prcoreL17RemapGenericFloatI14TexFormatRHalf17TexFormatRGBAHalfEEvPKNS_9InnerInfoE
Zwe:_BigInteger_GetBytes_m1259701831
Ozj:__ZN6il2cpp2vm7Runtime11InvokeArrayEPK10MethodInfoPvP11Il2CppArrayPP15Il2CppException
NTf:_String_memcpy_m2826223007
IJd:_RijndaelManaged_CreateDecryptor_m1421727258
hG:__ZN9AudioClip23VirtualRedirectTransferER14SafeBinaryRead
z$g:_Enumerator_MoveNext_m2407049913_gshared
WCg:_StringBuilder_Replace_m1682610486
JEa:__ZN4gles20EnsureTextureCreatedEP7ApiGLESP17RenderSurfaceGLES
rQb:__ZN15ReplacementPass13PrepareSubsetEjRK10RenderNodeifRK17ShaderReplaceData
OL:__Z32AudioMeasurement_GetTimeConstantff
lZj:__ZN6il2cpp8metadata11FieldLayout12LayoutFieldsEjjjRKNSt3__26vectorIPK10Il2CppTypeNS2_9allocatorIS6_EEEERNS1_15FieldLayoutDataE
gob:__ZNK20LocalFileSystemPosix9EnumerateEPKcP19dynamic_block_arrayI13FileEntryInfoLj32EEbPPv19FileEnumerationFlag
Wqe:_MethodInfo_MakeGenericMethod_m1996785325
spd:_BaseInputModule_DetermineMoveDirection_m770437496
DLe:_Context_get_HasGlobalDynamicSinks_m3672814609
gZi:_Match__ctor_m2464595873
TXb:__ZL27PrepareSceneNodesJobCombineP25ScheduleSceneNodesJobData
NXi:_X509CertificateEnumerator_Reset_m1825523691
esb:__Z22TransferField_NonArrayI14SafeBinaryRead27Converter_SimpleNativeClassI8GUIStyleEEvRK23StaticTransferFieldInfoR31RuntimeSerializationCommandInfoRT0_
xpa:__ZN13GfxDeviceGLESD2Ev
Hia:__ZNSt3__26vectorIN9ShaderLab26SerializedShaderDependencyENS_9allocatorIS2_EEE6resizeEj
cSi:_Activator_CreateInstance_TisRuntimeObject_m729575857_gshared
Bea:__ZN18AsyncUploadManager13StaticDestroyEPv
aia:__ZN6Shader7SetNameEPKc
Y3d:_Convert_ToDouble_m954895424
o$b:__ZN19CustomRenderTexture22HandleBoundaryWrappingERKNS_14UpdateZoneInfoEj
xjj:_TextGenerationSettings_CompareColors_m3051734236
aSc:__ZN10ClipperLib7Clipper16DoSimplePolygonsEv
Owj:__ZN6il2cpp2vm13MetadataCache32GenerateCustomAttributeTypeCacheEi
vRf:_Single_Equals_m438106747
GCg:_StringBuilder__ctor_m2989139009
nve:_RuntimeResourceSet__ctor_m2765575100
QEe:_TlsClientCertificate_ProcessAsSsl3_m3265529850
Kr:__ZNK11UnityEngine9Animation30GenericBindingValueArrayUniqueclERKNS0_14GenericBindingES4_
nUf:_ASCIIEncoding_GetChars_m2543669481
pvf:_BigInteger_IsProbablePrime_m567194283
DRg:_Dictionary_2_System_Collections_IDictionary_Remove_m3518952519_gshared
hoe:_MethodBuilder_GetCustomAttributes_m731278908
o3c:_Direct_Move_Y
m3c:_Direct_Move_X
$9g:__Z51RuntimeInvoker_Single_t1397266774_Double_t594665363PFvvEPK10MethodInfoPvPS4_
Ni:_glClearDepthf
n9b:__ZN19SkinnedMeshRenderer7GetMeshEv
qmb:__ZN19RuntimeSceneManager14GetActiveSceneEv
jdk:_memcpy
WKb:__ZNSt3__218__insertion_sort_3IRNS_4lessIN22BuiltinResourceManager8ResourceEEEPS3_EEvT0_S7_T_
LSe:_MultiArrayFixupRecord_FixupImpl_m1721674130
lzj:__ZN6il2cpp6icalls8mscorlib6SystemL8IsStaticEPK9EventInfo
e$c:_otv_LookupList_validate
Emc:__Z29RectOffset_Set_Custom_PropTopP12Il2CppObjecti
zYg:_GenericEqualityComparer_1_Equals_m687841776_gshared
fqc:__Z57Register_UnityEngine_Transform_INTERNAL_get_localPositionv
fWb:__ZNSt3__27__sort4IR15ReflProbeSorterPP15ReflectionProbeEEjT0_S6_S6_S6_T_
jVa:__ZN16GraphicsSettings10SmartResetEv
fhd:__Z55Register_UnityEngine_Analytics_CustomEventData_AddInt16v
$Rd:_FileStream_Flush_m948103572
Yoj:__ZN15dense_hashtableINSt3__24pairIK10KeyWrapperIPK22Il2CppGenericParameterEP11Il2CppClassEES6_N6il2cpp5utils11PointerHashIS4_EEN14dense_hash_mapIS6_S9_SE_NS6_14EqualsComparerINS0_8equal_toIS5_EEEENS0_9allocatorISA_EEE9SelectKeyESJ_SL_E9copy_fromERKSO_j
swf:_ASN1Convert_ToInt32_m254930636
Hgb:__ZN26PlayerSettingsSplashScreen16CheckConsistencyEv
yYa:__ZN20SphericalHarmonicsL28TransferI19StreamedBinaryWriteILb0EEEEvRT_
zMg:_UInt64_ToString_m1529093114
B8b:__ZNK28RectTransformPropertyBinding9BindValueER6ObjectRKN11UnityEngine9Animation14GenericBindingERNS3_10BoundCurveE
Dpg:_Material_SetInt_m1783799378
twc:_next_marker
o1d:_Array_GetLength_m2178203778
oog:_Input_GetMouseButtonDown_m2081676745
yKd:_Int16_System_IConvertible_ToDouble_m1661805412_AdjustorThunk
_bb:__ZN4Mesh14UploadMeshDataEb
z9b:__ZN14RenderSettings12CleanupClassEv
_oc:__Z43DataUtility_CUSTOM_INTERNAL_CALL_GetPaddingP12Il2CppObjectR8Vector4f
oO:__ZN21AudioScriptingClasses26InvokeOnAudioManagerUpdateEP21ScriptingExceptionPtr
Sya:__ZN18AsyncUploadManager15DoDeCruncherJobEP26FileAssetUploadInstruction
Asa:__ZN9GfxDevice15ImmediateNormalEfff
bzg:_Enumerator__ctor_m1351041375
exb:__ZN13GUIStyleState8TransferI24GenerateTypeTreeTransferEEvRT_
p1:__ZN20dynamic_block_vectorI14FileIdentifierE22push_back_no_constructEv
_kk:_emscripten_glGetActiveAttrib__wrapper
M9a:__ZN9Texture3D23VirtualRedirectTransferER14SafeBinaryRead
fOi:_Array_InternalArray__set_Item_TisVector2_t2156229523_m2671087464_gshared
kTi:_Array_InternalArray__get_Item_TisVector4_t3319028937_m1117939728_gshared
jka:__ZNSt3__26vectorIN9ShaderLab20SerializedSubProgram16TextureParameterENS_9allocatorIS3_EEE8__appendEj
FXi:_X509CertificateCollection_Contains_m743657353
ieg:_Array_InternalArray__ICollection_Add_TisSlot_t384495010_m3656484468_gshared
O4a:__ZN9Texture2D13UploadTextureEi
CDa:__ZN7ApiGLES9MapBufferEjN2gl12BufferTargetEllj
QK:__ZN4FMOD6System19setSoftwareChannelsEi
Uta:__ZN9GfxDevice19SetSinglePassStereoE16SinglePassStereo
Zjk:_emscripten_glGenBuffers__wrapper
pgi:__ZL93X509Certificate_t713131622_CustomAttributesCacheGenerator_X509Certificate_GetName_m1060481339P21CustomAttributesCache
gdk:_bitshift64Lshr
F7j:__ZN6il2cpp8metadata19Il2CppSignatureHash4HashERKNS_5utils13dynamic_arrayIPK10Il2CppTypeLj4EEE
ibe:_Hashtable_System_Collections_IEnumerable_GetEnumerator_m2751657639
usc:_UNITY_png_handle_IEND
TNe:_HeaderHandler_Invoke_m3513051789
hKi:__ZL77CanvasScaler_t2767979955_CustomAttributesCacheGenerator_m_ReferenceResolutionP21CustomAttributesCache
g4g:__Z144RuntimeInvoker_RuntimeObject_RuntimeObject_Int32_t2950945753_RuntimeObject_RuntimeObject_RuntimeObject_RuntimeObject_RuntimeObject_RuntimeObjectPFvvEPK10MethodInfoPvPS4_
NIg:_Type_get_IsPointer_m4067542339
Arf:_Text_get_supportRichText_m1837499160
Dnc:__Z60Register_UnityEngine_Input_INTERNAL_set_compositionCursorPosv
Xrg:_Vector3_Magnitude_m3447562852
Aig:_Component__ctor_m1928064382
Oek:dynCall_viiiii
QKa:__ZN9Behaviour10DeactivateE19DeactivateOperation
Uek:dynCall_viiiif
Qce:_SortedList_PutImpl_m3408406199
lMc:__ZN16PhysicsManager2D19ApplyParticleForcesER13dynamic_arrayI21BatchedColliderResultLj4EE
n5c:_Cubic_To
iDe:_Context_get_Protocol_m1078422015
Zjc:__Z37Register_UnityEngine_Application_Quitv
Zkc:__Z44Register_UnityEngine_Camera_get_farClipPlanev
gr:__Z25InverseTransformDirection23TransformAccessReadOnlyRKN4math7_float3Eb
mP:__ZNK12AudioManager15GetDSPBlockSizeEv
Mha:__ZN13RuntimeStaticINSt3__28multimapIj25DeferredSkinningOperationNS0_4lessIjEENS0_9allocatorINS0_4pairIKjS2_EEEEEELb0EE13StaticDestroyEPv
F9i:_ToggleGroup_SetAllTogglesOff_m4184050071
Kfb:__ZNK17IAnimationBinding30CurveAttributeToSerializedPathERKN11UnityEngine9Animation10BoundCurveE
fVj:__ZN6il2cpp2gc16GarbageCollector14GetOrCreateCCWEP12Il2CppObjectRK10Il2CppGuid
USj:__ZN6il2cpp2vm5Image21FromTypeNameParseInfoEPK11Il2CppImageRKNS0_17TypeNameParseInfoEb
_Wd:_MonoCustomAttrs_IsDefined_m2996012389
Yua:__ZN17BufferManagerGLES13AcquireBufferEjN14DataBufferGLES11BufferUsageEb
ckj:_TextGenerator_PopulateAlways_m1922695746
AZf:_Decimal__ctor_m3650533794
$kf:_MaskableGraphic_UpdateClipParent_m2605828397
SNf:_TripleDESTransform_GetStrongKey_m292426577
Vje:_AssemblyBuilder_get_Location_m384539722
old:__ZN16UnityAdsSettingsD0Ev
txa:__ZNK7ApiGLES10DebugLabelEN2gl10ObjectTypeEjPKc
BQd:_DirectoryNotFoundException__ctor_m4004339866
Rck:__ZNK10__cxxabiv121__vmi_class_type_info16search_below_dstEPNS_19__dynamic_cast_infoEPKvib
Hjj:_TextGenerator__ctor_m1349784994
Pwa:__ZN19ConstantBuffersGLES13SetCBConstantEiiPKvi
Llf:_Navigation_Equals_m317484440
owh:_Collection_1_System_Collections_IList_set_Item_m876512695_gshared
$oc:__Z38DataUtility_CUSTOM_Internal_GetMinSizeP12Il2CppObjectP13Vector2fIcall
Mnj:_CustomEventData_Add_m2213655663
Qdc:__ZN8PlayableC2E17ScriptingClassPtr18DirectorPlayerType
dAg:_Vector3_Distance_m886789632
URe:_ObjectReader_ReadObjectGraph_m1689734232
hrg:_MonoBehaviour_StopCoroutine_m907039165
SLc:__ZN15b2DistanceJoint4DumpEv
$Jj:_il2cpp_class_has_attribute
$wf:_DSAManaged_get_KeySize_m2738463749
mAa:__ZN6prcoreL12RemapGenericI15TexFormatRGB88817TexFormatARGB8888EEvPKNS_9InnerInfoE
BAg:_Vector4_op_Subtraction_m1632208160
qv:__ZN7mecanim9animation30ValueFromSkeletonPoseRecursiveERKNS_8skeleton8SkeletonERKNS1_13SkeletonPoseTIN4math4trsXEEEPKNS0_14SkeletonTQSMapEPKiRNS_10ValueArrayEii
P$:__Z27FindOrCreateMonoScriptCache17ScriptingClassPtr22InitScriptingCacheTypeP6Objecti
rUc:__Z23CleanupPhysicsManager2Dv
VCb:__Z18Transfer_BlittableI18StreamedBinaryReadILb0EELb1E8Vector3fEvRK29SerializationCommandArgumentsR31RuntimeSerializationCommandInfo
xcd:__ZN2UI14CanvasRenderer13SyncVertexPtrER8JobFenceNS0_8SyncFlagE
n7:__ZN8DrawUtil28DrawLineOrTrailFromNodeQueueERK15RenderNodeQueuej17ShaderChannelMaski
f0:__Z35scripting_method_get_argument_count18ScriptingMethodPtr
LMa:__ZN18AssetBundleManager18SortPreloadObjectsER13dynamic_arrayIiLj4EEb
m9g:__Z46RuntimeInvoker_RuntimeObject_Double_t594665363PFvvEPK10MethodInfoPvPS4_
YAg:_EncoderReplacementFallback__ctor_m2980727890
Y7d:_ArrayList_Synchronized_m1327684267
pmc:__Z20Gradient_CUSTOM_InitP12Il2CppObject
Nqe:_MethodBase_get_IsPublic_m2180846589
HAc:__Z48Register_UnityEngine_GUIUtility_Internal_ExitGUIv
fUg:_DefaultComparer_Equals_m2574572657_gshared
kRd:_FileStream_get_CanWrite_m1199612770
XXb:__ZL21CullDynamicObjectsJobP14CullingJobDataj
Xxc:__ZNSt3__26vectorI7GUIClipNS_9allocatorIS1_EEE21__push_back_slow_pathIKS1_EEvRT_
cqe:_TypeBuilder_get_IsGenericParameter_m1751799710
$$b:__ZN14ManagerContext17InitializeClassesEv
kMa:__ZN19StreamedBinaryWriteILb0EE21TransferSTLStyleArrayINSt3__26vectorI14ConstantStringNS2_9allocatorIS4_EEEEEEvRT_17TransferMetaFlags
lBb:__ZN18StreamedBinaryReadILb1EE21TransferSTLStyleArrayI31ArrayOfManagedObjectsTransfererEEvRT_17TransferMetaFlags
kyh:_Collection_1_System_Collections_ICollection_CopyTo_m787979241_gshared
XHh:_ReadOnlyCollection_1_System_Collections_Generic_ICollectionU3CTU3E_Clear_m1551418550_gshared
P4c:_t1_hints_open
hid:__ZN11UnityEngine15PlatformWrapper24GetVRTrackedAreaGeometryER13dynamic_arrayI8Vector3fLj4EE
bYd:_MonoType_get_AssemblyQualifiedName_m2662925380
jrc:__Z55Register_UnityEngine_LineRenderer_set_endColor_Injectedv
klc:__Z60Register_UnityEngine_Camera_INTERNAL_CALL_WorldToScreenPointv
iLf:_RSACryptoServiceProvider__ctor_m2288290917
Rwe:_BigInteger_GenerateRandom_m3872771375
Wsh:__Z75RuntimeInvoker_RuntimeObject_Single_t1397266774_RuntimeObject_RuntimeObjectPFvvEPK10MethodInfoPvPS4_
KJ:__ZN4FMOD7Channel11getUserDataEPPv
iQi:_Array_swap_TisBoolean_t97287965_TisBoolean_t97287965_m1115288271_gshared
c0c:_UNITY_tt_face_load_gasp
zxf:_KeyPairPersistence_ProtectMachine_m1313131097
Nrf:_Text_set_fontSize_m3617617524
g8c:_ft_ansi_stream_close
tm:_JS_Sound_SetPitch
TFg:_Thread_FreeLocalSlotValues_m1195763560
rQf:_String_IndexOf_m1977622757
PKj:_il2cpp_runtime_invoke_convert_args
hud:_TouchInputModule_Process_m3715678669
n5g:__Z114RuntimeInvoker_Int32_t2950945753_RuntimeObject_Int32_t2950945753_Int32_t2950945753_RuntimeObject_Int32_t2950945753PFvvEPK10MethodInfoPvPS4_
q7d:_ArrayList__cctor_m3052737821
QOj:__ZN6il2cpp6icalls8mscorlib6System2IO6MonoIO11GetFileStatEP12Il2CppStringPNS3_8FileStatEPi
nta:__ZN9GfxDevice33InsertCustomMarkerCallbackAndDataEPFviPvEiS0_j
Sld:__ZN11UnityEngine15PlatformWrapper16GenerateRandomIdEv
tQb:__ZNK9ShaderLab9IntShader6GetTagE11ShaderTagIDb
K9d:_BitArray_Set_m2486900776
$Tc:__Z13RegisterClassI13BoxCollider2DEvv
Qok:b136
pdd:__ZN2UI14CanvasRenderer11SetMaterialEP8Materiali
SRf:_String__ctor_m229724522
Ybi:__ZL54AssemblyName_t270931938_CustomAttributesCacheGeneratorP21CustomAttributesCache
P_a:__ZNK13RenderTexture37IsBoundMultisampledOnSecondaryTextureEv
k1j:_GC_freehblk
AUi:_X509ExtensionCollection__ctor_m551870633
poe:_MethodBuilder_MakeGenericMethod_m2175748754
E_i:_QuickSearch_Search_m3063517397
z7e:_Enumerator_Reset_m2443320674_gshared
_3c:_ft_var_get_value_pointer
$ic:__ZN9Scripting35DestroyObjectFromScriptingImmediateEP6Objectb
X2d:_AsyncCallback_Invoke_m3156993048
NYb:__ZNK6Camera48AreVRStereoViewMatricesWithinSingleCullToleranceEv
Ix:__ZN7mecanim5human25HumanPoseAddAdditiveLayerERNS0_9HumanPoseERKS1_fRKNS_6bitsetILj83EEE
Flk:_glGetRenderbufferParameteriv__wrapper
azf:_SymmetricTransform_FinalDecrypt_m1677319445
fNd:_Int32_Equals_m3996243976_AdjustorThunk
Qla:__ZN24GenerateTypeTreeTransfer8TransferINSt3__26vectorIN9ShaderLab20SerializedSubProgram12UAVParameterENS1_9allocatorIS5_EEEEEEvRT_PKc17TransferMetaFlags
Ac:invoke_iiiiiiiiiiiiiii
nXj:__ZN6il2cpp2os6Thread33UnregisterCurrentThreadForCleanupEv
gok:_emscripten_glIsRenderbuffer__wrapper
s$c:_otv_Coverage_get_first
Tad:__ZN2UI11CanvasGroup8TransferI19StreamedBinaryWriteILb0EEEEvRT_
_kc:__Z48Register_UnityEngine_Camera_get_orthographicSizev
xQd:_DirectoryInfo__ctor_m1000259829
MWa:__ZNK20IntermediateRenderer8GetLayerEv
Lok:b132
$3f:_CultureInfo_ConstructInvariant_m3774343375
t6a:__ZN15QualitySettings8TransferI14SafeBinaryReadEEvRT_
b2d:_Array_ClearInternal_m532048538
yKf:_RIPEMD160Managed_HashCore_m2350629432
FVf:_DateTime__ctor_m12900168
_bj:_IndexedSet_1_Insert_m1432638049_gshared
Wof:_ScrollRect_CalculateOffset_m927043599
eSi:_Array_FindLast_TisRuntimeObject_m1088586648_gshared
Jkf:_Mask_GetModifiedMaterial_m2692272647
alg:_CullingGroup_t2096318768_marshal_pinvoke_back
dTj:__ZNSt3__26vectorIN6il2cpp2vm5Image20EmbeddedResourceDataENS_9allocatorIS4_EEE21__push_back_slow_pathIS4_EEvOT_
X8:__GLOBAL__sub_I_runtime_utilities_0_cpp
E6b:__ZN18BackgroundJobQueue29ScheduleMainThreadJobInternalEPFvPvES0_
U5i:_GUIUtility_EndGUIFromException_m3524906492
i_:__ZN14SerializedFile10ReadObjectEx18ObjectCreationModebPPK8TypeTreePbR6Object
L0i:_Expression_GetFixedWidth_m945658
_Zh:_List_1_RemoveAll_m818254423_gshared
q1i:_Literal_Compile_m2228022079
ZKb:__ZN14dynamic_bitset6resizeEjb
i4c:_tt_property_get
O7f:_Array_InternalArray__ICollection_Contains_TisSlot_t3975888750_m58971838_gshared
rT:__ZN11UnityEngine15CloudWebService10RestClientINS0_23WebRequestRestHeaderMapEE7SetDataEPKhj
JB:__ZN7mecanim8skeleton16SkeletonPoseCopyIN4math4trsXES3_EEvPKNS0_13SkeletonPoseTIT_EEPNS4_IT0_EE
rrj:__ZN14dense_hash_mapI10KeyWrapperIPK11Il2CppClassEPKcN6il2cpp5utils11PointerHashIS1_EENS4_14EqualsComparerINSt3__28equal_toIS3_EEEENSC_9allocatorINSC_4pairIKS4_S6_EEEEE15set_deleted_keyERSI_
Spa:__ZN9GfxDevice34SetStencilRefWhenStencilWasSkippedEi
xFf:_X509Certificate2_Reset_m3988214799
pjd:__ZN11UnityEngine7Connect13ConnectConfig20RestoreTimeoutConfigERK13dynamic_arrayIiLj4EEjRS3_
zc:invoke_fi
w5j:__ZN6il2cpp6icalls8mscorlib6System10Reflection4Emit11TypeBuilder20create_runtime_classEP27Il2CppReflectionTypeBuilderS7_
Pyg:_Transform_set_localScale_m3053443106
Hxf:_KeyPairPersistence_Save_m3111435398
yX:__ZL21InternalAssertConsolePKcz
xc:invoke_ff
tyf:_RSAManaged_add_KeyGenerated_m3688329863
c8e:_Enumerator_get_CurrentKey_m3735262888_gshared
dId:_HashAlgorithm_TransformFinalBlock_m3005451348
a7f:_Guid_NewGuid_m923091018
Id:_emscripten_glVertexAttrib3f
rFj:__ZN30dense_hashtable_const_iteratorINSt3__24pairIK10KeyWrapperINS1_IPK11Il2CppImageP11Il2CppClassEEEjEES9_17ReflectionMapHashIS8_EN14dense_hash_mapIS9_jSD_NS9_14EqualsComparerINS0_8equal_toIS8_EEEENS0_9allocatorISB_EEE9SelectKeyESI_SK_EppEv
Y$j:__ZThn8_N6il2cpp2vm13CachedCCWBaseINS0_13ManagedObjectEE7DestroyEv
LLf:_RSAPKCS1SignatureDeformatter_SetKey_m614724234
pDg:_UnicodeEncoding_GetByteCount_m3498858619
o9f:_Array_InternalArray__ICollection_Remove_TisX509ChainStatus_t133602714_m3635989134_gshared
JOh:_UnityEvent_1_FindMethod_Impl_m555893253_gshared
B6c:__ZN20TextRenderingPrivate8TextMesh11ApplyToMeshEv
rhk:_emscripten_glDrawRangeElements__wrapper
dUa:__Z28scripting_class_is_valuetype17ScriptingClassPtr
x2b:__ZNSt3__25dequeI10InputEventNS_9allocatorIS1_EEE19__add_back_capacityEv
KGa:__ZN13ComputeShader13SetValueParamERKN9ShaderLab16FastPropertyNameEiPKv
dcb:__ZN14BlendShapeDataD2Ev
QCa:__ZL18ProgramUniform3uivPK7ApiGLESjiihPKv
VJd:_RijndaelTransform_Encrypt128_m1940909042
nXd:_MonoEnumInfo_get_Cache_m752167006
Xdd:__Z47CanvasRenderer_Set_Custom_PropHasPopInstructionP12Il2CppObjecth
Jqg:_Mesh_get_uv3_m3614955461
ACa:__ZN5Image8SetImageEii13TextureFormatb
w0:__ZN17MessageIdentifier21GetRegisteredMessagesEv
ZV:__Z13RegisterClassI23CloudWebServicesManagerEvv
vYe:_InternalEnumerator_1_get_Current_m3900374024_gshared
OYi:_DelegatePInvokeWrapper_CostDelegate_t1722821004
s9d:_SynchronizedArrayListWrapper_CopyTo_m2886332653
lAf:_HybridDictionary_Remove_m2295600623
SRj:__GLOBAL__sub_I_Image_cpp
MMf:_SHA512Managed__ctor_m330347986
M1a:__ZNSt3__27__sort5IRPFbRKNS_4pairIN9ShaderLab16FastPropertyNameEfEES6_EPS4_EEjT0_SB_SB_SB_SB_T_
ARh:_List_1_CheckMatch_m1934407508_gshared
Z6j:__ZNSt3__26vectorINS_12basic_stringIDsNS_11char_traitsIDsEENS_9allocatorIDsEEEENS4_IS6_EEE8__appendEj
cvf:_Kernel_LeftShift_m3302851050
vZj:__ZN14dense_hash_mapI10KeyWrapperIPK19Il2CppGenericMethodEP10MethodInfoN6il2cpp8metadata23Il2CppGenericMethodHashENS4_14EqualsComparerINS8_26Il2CppGenericMethodCompareEEENSt3__29allocatorINSD_4pairIKS4_S6_EEEEE15set_deleted_keyERSG_
wtb:__Z29Transfer_Blittable_ArrayFieldI14SafeBinaryRead4AABBEvRT_R9ArrayInfoRK23StaticTransferFieldInfo
cGe:_RecordProtocol_SendRecord_m515492272
pKe:_ConfigHandler_ReadProvider_m3620509535
HDi:__ZL56g_UnityEngine_UI_Assembly_CustomAttributesCacheGeneratorP21CustomAttributesCache
Hhe:_Random__ctor_m4122933043
Umc:__Z46Register_UnityEngine_RectOffset_get_horizontalv
v2a:__ZN18DelayedCallManager8ClearAllEv
M2g:__Z180RuntimeInvoker_RuntimeObject_RuntimeObject_Int32_t2950945753_RuntimeObject_Int32U26_t1369213839_BooleanU26_t4125257963_BooleanU26_t4125257963_Int32U26_t1369213839_SByte_t1669577662PFvvEPK10MethodInfoPvPS4_
qrc:__Z22Mesh_CUSTOM_HasChannelP12Il2CppObject30InternalScriptingShaderChannel
lOj:__ZN6il2cpp2os8AutoLockD2Ev
Pkj:_CanvasGroup_get_interactable_m1362547832
LWb:__ZNK25RenderPrePassObjectSorterclERK16RenderObjectDataS2_
fve:_ResourceSet_Dispose_m1823973062
o3e:_InternalEnumerator_1_System_Collections_IEnumerator_get_Current_m3537550566_AdjustorThunk
wBb:__Z22TransferField_NonArrayI18StreamedBinaryReadILb1EE27Converter_SimpleNativeClassI8GUIStyleEEvRK23StaticTransferFieldInfoR31RuntimeSerializationCommandInfoRT0_
we:_Mix_LoadWAV_RW
Yze:_EncryptedPrivateKeyInfo__ctor_m25839594
wQ:__Z45AudioSource_Get_Custom_PropSpatializeInternalP12Il2CppObject
WEa:__Z13IsFloatFormat14GraphicsFormat
jHi:__ZL84GraphicRaycaster_t2999697109_CustomAttributesCacheGenerator_m_IgnoreReversedGraphicsP21CustomAttributesCache
eoe:_MethodBuilder_Invoke_m3837446660
us:__ZNSt3__27__sort4IRNS_6__lessIN11UnityEngine9Animation13CachedBindingES4_EEPS4_EEjT0_S8_S8_S8_T_
$Gh:_ReadOnlyCollection_1_System_Collections_IList_Clear_m12445504_gshared
dUj:__ZN6il2cpp2gcL12alloc_handleEPNS0_10HandleDataEP12Il2CppObjectb
rlk:_emscripten_glGetAttribLocation__wrapper
WYi:_Enumerator_MoveNext_m55255603
dwi:__ZL57SpaceAttribute_t3956583069_CustomAttributesCacheGeneratorP21CustomAttributesCache
LDf:_WebRequest_AddDynamicPrefix_m4246631209
_Wb:__Z13InitIndexListR9IndexListj
xeg:_Array_InternalArray__ICollection_Add_TisRefEmitPermissionSet_t484390987_m1720891963_gshared
s1:__ZL16ReadTypeTreeImplILb1EEbR8TypeTreeRK16TypeTreeIteratorRPKhS6_i
$5j:__ZN6il2cpp6icalls8mscorlib6System11Diagnostics10StackTrace9get_traceEP15Il2CppExceptionib
sOg:_Dictionary_2_set_Item_m3327106492_gshared
Oe:_glBlendEquationSeparate
Dm:_emscripten_glDeleteVertexArrays
Hta:__ZN13GfxDeviceGLES17SetComputeUniformE12ObjectHandleI18ComputeProgram_TagPvER18ComputeShaderParamjPKv
Alk:b95
A$i:_Parser_IsNameChar_m698176442
xUh:_List_1_RemoveAt_m3459335427_gshared
unk:_emscripten_glValidateProgram__wrapper
ngc:__ZN13MeshScripting27PrintErrorCantAccessChannelEPK4Mesh30InternalScriptingShaderChannel
gAg:_Vector3_get_sqrMagnitude_m1474274574_AdjustorThunk
OVi:_GeneralNames_ToString_m489778282
Ve:_emscripten_glUniform3fv
x8f:_Array_InternalArray__ICollection_Contains_TisRaycastHit2D_t2279581989_m2733133723_gshared
gee:_Convert_ToByte_m1442000130
kLf:_RSACryptoServiceProvider_get_KeySize_m2654153358
TPj:__ZN6il2cpp2vm9Exception20GetArgumentExceptionEPKcS3_
iIc:__Z29Transfer_Blittable_ArrayFieldI8JSONReadiEvRT_R9ArrayInfoRK23StaticTransferFieldInfo
bQh:_Enumerator_MoveNext_m625797905_AdjustorThunk
OJc:__ZN16b2PrismaticJointC2EPK19b2PrismaticJointDef
Elk:_glDrawArrays__wrapper
ZO:__ZN9AudioClip27IsFormatSupportedByPlatformERKN4core12basic_stringIcNS0_20StringStorageDefaultIcEEEE
i3a:__ZN29SerializeTraitsForStringTypesIN4core12basic_stringIcNS0_20StringStorageDefaultIcEEEEE8TransferI24GenerateTypeTreeTransferEEvRS4_RT_
Bla:__ZN9ShaderLab26SerializedShaderDependency8TransferI24GenerateTypeTreeTransferEEvRT_
mNh:_InvokableCall_3_Invoke_m3141788616_gshared
j_i:_PatternCompiler_EmitUntil_m3644194775
s0c:_UNITY_FT_Match_Size
qw:__ZN7mecanim20CreateValueArrayMaskEPKNS_18ValueArrayConstantERNS_6memory9AllocatorE
Ixf:_KeyPairPersistence_ToXml_m812591779
KXd:_MonoType_GetFields_internal_m776921855
iid:__ZN11UnityEngine7Connect14AppUpdateEventC2Ev
Due:_ResourceReader_Dispose_m3597121875
OTa:__ZN12ImageFilters17RemoveImageFilterERK11ImageFilter
s0d:_Hashtable_CalcPrime_m550773117
ewg:_RenderTexture_get_width_m2160921386
iVe:_InternalEnumerator_1_get_Current_m3073360606_AdjustorThunk
ota:__ZN9GfxDevice31InsertCustomBlitCallbackAndDataEPFviPvER33UnityRenderingExtCustomBlitParams
cMb:__Z32AddPathRemapsForBuiltinResourcesRKN4core12basic_stringIcNS_20StringStorageDefaultIcEEEE
WYa:__ZN14RenderSettings23VirtualRedirectTransferER24GenerateTypeTreeTransfer
Oub:__ZL26Transfer_SimpleNativeClassI17RemapPPtrTransfer17AnimationCurveTplIfELb0EEvRK29SerializationCommandArgumentsR31RuntimeSerializationCommandInfo
Bff:_InputField_set_caretWidth_m707310868
Fm:_glDeleteTransformFeedbacks
IKh:_U3CCreateWhereIteratorU3Ec__Iterator1D_1_MoveNext_m612748497_gshared
Af:_JS_WebRequest_Send
n0j:__ZN6il2cpp2os4Time31GetTicks100NanosecondsMonotonicEv
ZXj:__ZNSt3__26__treeINS_12basic_stringIcNS_11char_traitsIcEENS_9allocatorIcEEEENS_4lessIS6_EENS4_IS6_EEE16__construct_nodeIJRKS6_EEENS_10unique_ptrINS_11__tree_nodeIS6_PvEENS_22__tree_node_destructorINS4_ISH_EEEEEEDpOT_
wQd:_MonoIO_GetFileSystemEntries_m37351365
_fe:_Convert_ToSByte_m516918950
akd:__ZN18UnityConnectClient32OnVrControllerStateChangedStaticEPS_13dynamic_arrayIN4core12basic_stringIcNS2_20StringStorageDefaultIcEEEELj4EE
sck:__ZNK10__cxxabiv117__class_type_info24process_found_base_classEPNS_19__dynamic_cast_infoEPvi
Bvg:_ReapplyDrivenProperties_Invoke_m1151937880
UJd:_RijndaelTransform_ECB_m670662322
rjf:_LayoutGroup_OnDisable_m3483954898
Qwj:__ZN6il2cpp2vm13MetadataCache21GetFieldInfoFromIndexEj
IAi:__ZL62EventType_t3528516131_CustomAttributesCacheGenerator_mouseDragP21CustomAttributesCache
ZQ:__ZN5physx14PxLightCpuTaskD2Ev
Jq:__ZNSt3__26vectorIN4core12basic_stringIcNS1_20StringStorageDefaultIcEEEENS_9allocatorIS5_EEE6assignINS_11__wrap_iterIPS5_EEEENS_9enable_ifIXaasr21__is_forward_iteratorIT_EE5valuesr16is_constructibleIS5_NS_15iterator_traitsISE_E9referenceEEE5valueEvE4typeESE_SE_
Tvg:_Vector2_get_zero_m540426400
qJj:_il2cpp_init
H7g:__Z105RuntimeInvoker_RuntimeObject_RuntimeObject_StreamingContext_t3711869237_ISurrogateSelectorU26_t3801502798PFvvEPK10MethodInfoPvPS4_
jad:__ZNSt3__26__treeIPN2UI14CanvasRendererENS_4lessIS3_EENS_9allocatorIS3_EEE7destroyEPNS_11__tree_nodeIS3_PvEE
oOc:__Z20b2TestSegmentSegmentRK6b2Vec2S1_S1_S1_RS_Rf
BX:__ZN12LineRendererD2Ev
u4e:_DefaultComparer_Compare_m3648806637_gshared
Sqc:__Z35Register_UnityEngine_Screen_get_dpiv
AGc:__ZN8JSONRead8TransferIxEEvRT_PKc17TransferMetaFlagsb
bWc:__ZN13SpeedTreeWind7AdvanceEbd
IWe:_InternalEnumerator_1_get_Current_m923139215_AdjustorThunk
quj:__ZN15dense_hashtableINSt3__24pairIK10KeyWrapperIN6il2cpp5utils13dynamic_arrayIPK10Il2CppTypeLj4EEEEPFvvEEESA_NS3_8metadata19Il2CppSignatureHashEN14dense_hash_mapISA_SD_SG_NSA_14EqualsComparerINSF_22Il2CppSignatureCompareEEENS0_9allocatorISE_EEE9SelectKeyESK_SM_E12expand_arrayEjN21dense_hash_map_traits17integral_constantIbLb0EEE
jcg:_Array_FindLastIndex_TisRuntimeObject_m2929523835_gshared
Thc:__ZN9Transform16SetLocalPositionERK8Vector3f
U2b:__ZN10BootConfig4Data12InitFromFileEPPKcjS2_
SCb:__Z15Transfer_StringI18StreamedBinaryReadILb0EELb0EEvRK29SerializationCommandArgumentsR31RuntimeSerializationCommandInfo
A7c:_ft_open_face_internal
a0c:_UNITY_tt_face_free_name
Ynj:_UnityAnalyticsHandler_Finalize_m1527596444
sgf:_InputField_set_selectionAnchorPosition_m68980541
zDa:__ZN14DataBufferGLES3MapEjjj
xKd:_Int16_System_IConvertible_ToDouble_m1661805412
_cb:__ZN14SpriteRenderer23VirtualRedirectTransferER19StreamedBinaryWriteILb0EE
zmk:_emscripten_glGetShaderiv__wrapper
F7b:__Z13RegisterClassI9TransformEvv
S1i:_Repetition_Compile_m988726715
vgd:__ZN14UnityAnalytics22HandleCustomEventCountEj
fZ:__ZNK6Camera33CalculateFarPlaneWorldSpaceLengthEv
hpd:_BaseInput_GetButtonDown_m3789908809
xZh:_List_1_System_Collections_IList_Insert_m2401407093_gshared
Dle:_EnumBuilder_get_BaseType_m1707640163
pFj:__ZNK15dense_hashtableINSt3__24pairIK10KeyWrapperINS1_IPK11Il2CppImageP11Il2CppClassEEEjEES9_17ReflectionMapHashIS8_EN14dense_hash_mapIS9_jSD_NS9_14EqualsComparerINS0_8equal_toIS8_EEEENS0_9allocatorISB_EEE9SelectKeyESI_SK_E5beginEv
Imk:b98
PXc:_cf2_stack_setReal
Ivc:_sep_upsample
MI:__ZN4FMOD3DSP8getInputEiPPS0_PPNS_13DSPConnectionE
BN:__ZN11SoundHandle8Instance13CreateChannelERS_b
cZd:_NumberFormatter_NumberToString_m2529982306
GH:__ZN13AudioListenerD2Ev
L8c:_UNITY_FT_Done_Library
l6j:__ZN6il2cpp2os5MutexC2Eb
FWi:_PKCS12__cctor_m3271060407
R5e:_Comparer_1__cctor_m2282308543_gshared
Ocd:__ZN2UI13CanvasManager17EmitDataForCameraEP6Camera
DOc:__Z16b2CollideCirclesP10b2ManifoldPK13b2CircleShapeRK11b2TransformS3_S6_
Tye:_ARC4Managed_CheckInput_m1562172012
X$g:_Enumerator_MoveNext_m4018122760_gshared
Hnj:_CustomEventData_Dispose_m4023815755
T8:___cxx_global_var_init_66
lUi:_TlsStream_ReadBytes_m2334803179
Foc:__Z44Register_UnityEngine_Material_GetTextureImplv
IIh:_ReadOnlyCollection_1_System_Collections_IList_Add_m2445024939_gshared
rlg:_Debug_Log_m4051431634
f6a:__ZN19StreamedBinaryWriteILb0EE21TransferSTLStyleArrayI13dynamic_arrayI31EnlightenSystemAtlasInformationLj8EEEEvRT_17TransferMetaFlags
GRd:_FileStream_EndRead_m3904255625
xIb:__ZL8MainLoopv
vec:__ZN17TransformInternal25CopyTransformSubhierarchyER18TransformHierarchyjS1_yyjb
oNe:_CallContextRemotingData_Clone_m14303327
ted:__Z47Register_UnityEngine_CanvasRenderer_SetMaterialv
iok:_emscripten_glIsShader__wrapper
PIc:__ZN11UnityEngine9Analytics16StartupTimeEvent23SetAssembliesTimingInfoEyy
oRc:__ZN19CompositeCollider2D22QueryCompositeColliderEPK10Collider2DPK11Rigidbody2D
axf:_DSAManaged_get_PublicOnly_m3575594967
pgd:__ZN11UnityEngine9Analytics23CustomLimitReachedEvent12ToJsonStringER9JSONWrite
l9c:__Z26CleanupTextRenderingModulev
OH:__ZN13AudioListener23VirtualRedirectTransferER24GenerateTypeTreeTransfer
rnb:__ZNK12HandlerChain9EnumerateEPKcP19dynamic_block_arrayI13FileEntryInfoLj32EEbPPv19FileEnumerationFlag
Icb:__ZThn32_N12MeshRendererD1Ev
v_a:__ZN13RenderTexture23VirtualRedirectTransferER19StreamedBinaryWriteILb0EE
$_j:__ZN6il2cpp2vm13ComObjectBase17GetMarshalSizeMaxERK10Il2CppGuidPvjS5_jPj
obk:_truncate
tma:__ZN9ShaderLab27SerializedShaderVectorValue8TransferI18StreamedBinaryReadILb0EEEEvRT_
XX:__ZN8Renderer21RendererBecameVisibleEv
Kak:___stpncpy
Caa:__ZN10MemoryPool16StaticInitializeEPv
Mga:__ZN11TypeManager21CleanupGlobalInstanceEv
J2f:_Enum_ToString_m2240012010
Ofd:__ZN11UnityEngine9Analytics15UserCustomEvent3AddEPKcRKN4core12basic_stringIcNS4_20StringStorageDefaultIcEEEE
N:Math_atan
za:invoke_iifii
nH:__ZNK10SampleClip11GetResourceEv
Nre:_MonoEvent_get_Name_m3774595291
eqa:__ZN9GfxDevice15GetStereoMatrixE21MonoOrStereoscopicEye24BuiltinShaderMatrixParamR10Matrix4x4f
CPa:__ZN4core12basic_stringIcNS_20StringStorageDefaultIcEEE6resizeEj
Tzc:__Z43Register_UnityEngine_Event_set_displayIndexv
tVc:__GLOBAL__sub_I_CmEventProfiler_cpp
teh:__Z128RuntimeInvoker_RuntimeObject_RuntimeObject_SByte_t1669577662_SByte_t1669577662_SByte_t1669577662_SByte_t1669577662_RuntimeObjectPFvvEPK10MethodInfoPvPS4_
zDg:_UnicodeEncoding_GetMaxByteCount_m3053620432
WMe:_ArgInfo__ctor_m1950205784
VKh:_Nullable_1_Equals_m4046255732_AdjustorThunk
tRa:__ZN17GlobalGameManager23VirtualRedirectTransferER24GenerateTypeTreeTransfer
Ekd:__ZN19UnityConnectServiceD0Ev
k9i:_ToggleGroup_ValidateToggleIsInGroup_m3201190739
Hzj:__ZN6il2cpp2vm7Runtime17GetDelegateInvokeEP11Il2CppClass
erg:_MonoBehaviour_StartCoroutine_Auto_Internal_m2421197418
dWc:___cxx_global_var_init_128
ete:_MonoProperty_get_PropertyType_m4138957578
fVa:__ZNSt3__26vectorIfNS_9allocatorIfEEE8__appendEjRKf
Tid:__ZN11UnityEngine15PlatformWrapper21GetCopyTextureSupportEv
SWf:_DateTime_get_Month_m1566006993_AdjustorThunk
t7f:_Array_get_swapper_TisRaycastResult_t3360306849_m1267000905_gshared
zwc:_start_input_pass_28
bHe:_SslClientStream__ctor_m3478574780
FO:__ZN11AudioModule27IsFormatSupportedByPlatformEPKc
l7c:_UNITY_FT_Render_Glyph
Xke:_DerivedType_GetFields_m3190137327
xQc:__Z14b2PairLessThanRK6b2PairS1_
kqd:_EventSystem_OnDisable_m3820258344
aIc:__Z19TransferField_ArrayI8JSONRead16Converter_StringEvRK23StaticTransferFieldInfoR31RuntimeSerializationCommandInfoRT0_
SId:_MACTripleDES_Setup_m560957914
vbc:__ZZN10MeshFilter15InitializeClassEvEN31FunctorImpl_108kDidAddComponent4CallEPviR11MessageData
Puj:__ZN15dense_hashtableINSt3__24pairIK10KeyWrapperIPK19Il2CppGenericMethodEPK26Il2CppGenericMethodIndicesEES6_N6il2cpp8metadata23Il2CppGenericMethodHashEN14dense_hash_mapIS6_SA_SE_NS6_14EqualsComparerINSD_26Il2CppGenericMethodCompareEEENS0_9allocatorISB_EEE9SelectKeyESI_SK_E6insertERKSB_
aMc:__ZN15b2WheelJointDef10InitializeEP6b2BodyS1_RK6b2Vec2S4_
TWb:__Z19SetupShadowCullDataRK27ScriptableCullingParametersRK17ShaderReplaceDataPK22SceneCullingParametersf16ShadowProjectionR14ShadowCullData
KLa:__ZNK25ThreadsafeLinearAllocator22GetAllocatedMemorySizeEv
RWc:_cff_size_request
N$a:__ZN15DirectorManager14ConnectionPool12SwitchBucketEP14ConnectionList
msc:_UNITY_png_read_update_info
wad:__ZN2UI11CompareFuncEPNS_6CanvasES1_
CJ:__ZN4FMOD7Channel11set3DSpreadEf
H6j:__ZN6il2cpp2os6Memory14AlignedReAllocEPvjj
W:Math_fround
f3a:__ZN24GenerateTypeTreeTransfer16TransferTypelessEPjPKc17TransferMetaFlags
ydg:_Array_InternalArray__IndexOf_TisPlayableBinding_t354260709_m3544096311_gshared
XMf:_SHA512Managed_processLength_m2162821715
RCa:__ZL18ProgramUniform4uivPK7ApiGLESjiihPKv
ztg:_Vector3_get_normalized_m2454957984
BFg:_Mutex_CreateMutex_internal_m3763633491
FJi:__ZL74SpriteState_t1362986479_CustomAttributesCacheGenerator_m_HighlightedSpriteP21CustomAttributesCache
vn:FUNCTION_TABLE_viiiiiiiiiiiiiii
Rfc:__ZNK4Mesh19CanAccessFromScriptEv
L2:__Z15GetGraphicsCapsv
tFa:__ZN7ApiGLES15BindVertexArrayEN2gl6HandleILNS0_10ObjectTypeE3EEE
QPg:_Dictionary_2_System_Collections_IDictionary_Remove_m316877720_gshared
aw:__ZN17AnimationPlayable17GetAnimationClipsER13dynamic_arrayIP13AnimationClipLj4EE
iUb:__Z20IntersectionAABBAABBRK10MinMaxAABBS1_PS_
bIe:_SslStreamBase_get_SecurityProtocol_m596101988
YBj:__ZNSt3__212basic_stringIcNS_11char_traitsIcEENS_9allocatorIcEEE6__initIPKcEENS_9enable_ifIXsr21__is_forward_iteratorIT_EE5valueEvE4typeESA_SA_
soa:__ZN9ShaderLab20SerializedSubProgram14AddMatrixParamEPKcii15ShaderParamTypei
Hbh:__Z121RuntimeInvoker_Void_t1185182177_Int32_t2950945753_Int32_t2950945753_Int32_t2950945753_Int32_t2950945753_Int32_t2950945753PFvvEPK10MethodInfoPvPS4_
g4c:_ft_var_load_item_variation_store
wZd:_DeriveBytes_set_Salt_m441577179
Fbj:_UnityEvent_3_FindMethod_Impl_m1640458315_gshared
Zai:__ZL61ConstructorBuilder_t2813524108_CustomAttributesCacheGeneratorP21CustomAttributesCache
aqb:__Z18Transfer_BlittableI14SafeBinaryReadLb1EhEvRK29SerializationCommandArgumentsR31RuntimeSerializationCommandInfo
Prf:_Text_get_verticalOverflow_m2420459396
vha:__ZNSt3__224__buffered_inplace_mergeIRNS_4lessIN4core12basic_stringIcNS2_20StringStorageDefaultIcEEEEEENS_11__wrap_iterIPS6_EEEEvT0_SC_SC_T_NS_15iterator_traitsISC_E15difference_typeESG_PNSF_10value_typeE
kc:invoke_viifff
Gba:__Z22DestroyObjectHighLevelP6Objectb
VGd:_KeySizes__ctor_m3113946058
vRb:__Z26BeginRenderQueueExtractionR15RenderNodeQueuePK16RendererCullDataRK13CullingOutputPK12LODDataArray15ExtractionFlagsP18JobBatchDispatcher
U6c:__ZNK13TextRendering4Font10GetTextureEv
zj:_emscripten_glVertexAttrib3fv
VMe:_LifetimeServices__cctor_m2128864873
KKg:_UInt16_TryParse_m3193697465
qOj:__ZN6il2cpp6icalls8mscorlib6System9Threading6Thread16SetName_internalEP12Il2CppThreadP12Il2CppString
Dj:_glBeginTransformFeedback
u$f:_Decimal_op_Division_m2407964042
igf:_InputField_get_asteriskChar_m965956856
VVa:__ZN18JobBatchDispatcherC2E11JobPriorityi
idb:__ZThn32_N14SpriteRendererD0Ev
_Hd:_HashAlgorithm_Create_m644612360
jRc:__ZN23ColliderTilingExtension10IsTilingOnEv
fsg:_Playable_get_Null_m3556999077
Fuf:_BigInteger_TestBit_m1507066813
Qxc:__ZN8GUIStyle14GetBuiltinFontEv
Xqc:__Z38LineRenderer_Set_Custom_PropStartWidthP12Il2CppObjectf
Qsa:__ZN9GfxDevice13EndFrameStatsEv
cac:__Z7Empty2DP9Texture2DPhiiii
FNi:_Array_InternalArray__set_Item_TisRefEmitPermissionSet_t484390987_m3786305619_gshared
sNj:__ZN6il2cpp6icalls8mscorlib6System7Runtime15InteropServices7Marshal19copy_from_unmanagedEiiP11Il2CppArrayi
FH:__ZL34StaticDestroyAudioCustomFilterRootPv
bUe:_ArrayReadOnlyList_1_GetEnumerator_m3931906247_gshared
QGa:__ZN19ComputeShaderKernelD2Ev
Ipj:__ZN6il2cpp2vmL17SetupEventsLockedEP11Il2CppClassRKNS_2os12FastAutoLockE
e4b:__ZN10systeminfo21GetTemporaryCachePathEv
Hac:__ZZN8Renderer15InitializeClassEvEN28FunctorImpl_138kLayerChanged4CallEPviR11MessageData
D7i:_AnalyticsEventTracker_Start_m1087627554
kUb:__ZN26LightProbeProxyVolumeCacheC2ER13BatchRendererR15RenderLoopStats
xCd:_GridLayoutGroup_CalculateLayoutInputVertical_m357562599
XEg:_CompressedStack_Capture_m3327262890
VCg:_StringBuilder_Replace_m1968561789
oUc:__ZN13ProduceHelperI17Physics2DSettingsLb0EE7ProduceE10MemLabelId18ObjectCreationMode
twb:__Z18Transfer_BlittableI24GenerateTypeTreeTransferLb1E10Matrix4x4fEvRK29SerializationCommandArgumentsR31RuntimeSerializationCommandInfo
ytd:_StandaloneInputModule_get_repeatDelay_m1143359059
KEg:_UTF8Encoding_GetMaxByteCount_m420651053
xEc:__ZN9JSONWrite8TransferI10Matrix4x4fEEvRT_PKc17TransferMetaFlags
zYc:_cf2_hintmap_map
nXf:_DateTime_Compare_m2855073242
GUh:_List_1_get_Item_m1651423686_gshared
LIg:_Type_get_IsExplicitLayout_m1182254884
gtb:__ZN15SerializeTraitsI5RectTIfEE8TransferI14SafeBinaryReadEEvRS1_RT_
bMa:__ZNK14SerializedFile15GetTypeIfExistsEx
xpc:__Z41Register_UnityEngine_Texture_get_wrapModev
a8c:_UNITY_FT_Raccess_Get_DataOffsets
p_b:__ZNK17MonoScriptManager17FindRuntimeScriptERKN4core12basic_stringIcNS0_20StringStorageDefaultIcEEEE
Jdc:__ZN14PlayableOutputC2EjP13PlayableGraph
oY:__ZThn32_NK8Renderer11GetMaterialEi
hyd:_FloatTween_AddOnChangedCallback_m2814315272
Dgd:__Z13RegisterClassI21UnityAnalyticsManagerEvv
u0j:__ZN6il2cpp6icalls8mscorlib6System7Runtime15InteropServices8GCHandle15GetTargetHandleEP12Il2CppObjectii
Rjg:_CameraCallback_Invoke_m3308824940
Geb:__ZN9InputAxis8TransferI18StreamedBinaryReadILb0EEEEvRT_
QW:__ZN13MemoryManager12GetAllocatorE10MemLabelId
_we:_BigInteger_ToString_m3260066955
Jpa:__ZN9GfxDevice29GetMinimumNodesPerGraphicsJobEv
Evi:__ZL63RuntimePlatform_t4159857903_CustomAttributesCacheGenerator_NaClP21CustomAttributesCache
wbb:__ZN17BlendShapeChannel8TransferI24GenerateTypeTreeTransferEEvRT_
nqf:_Slider__ctor_m873361617
Xve:_GCHandle__ctor_m2690474163_AdjustorThunk
Rfa:__ZN15DirectorManager17OnSampleFixedTimeEv
lYb:__ZNK13RendererScene21GetDynamicObjectCountEv
A1f:_Double_Parse_m1135962389
BUi:_X509Extension__ctor_m710637961
GXf:_CultureInfo_get_CurrentCulture_m1632690660
Wxf:_PKCS1_OS2IP_m65970018
Ok:_Mix_HaltMusic
_Eh:_ReadOnlyCollection_1_System_Collections_IList_set_Item_m70952451_gshared
$hb:__ZNSt3__26vectorIN30RuntimeInitializeOnLoadManager9ClassInfoE13stl_allocatorIS2_L18MemLabelIdentifier13ELi16EEE8__appendEj
$wb:__ZN24GenerateTypeTreeTransfer32TransferSTLStyleArrayWithElementI23ManagedObjectTransfererEEvRT_17TransferMetaFlags
bZj:__ZN6il2cpp6icalls8mscorlib6System11Environment12get_PlatformEv
bCf:_HttpWebRequest__cctor_m1467954389
jCe:_CipherSuiteCollection_System_Collections_IList_Remove_m2463347416
GCh:_ReadOnlyCollection_1_System_Collections_IList_RemoveAt_m1980090087_gshared
Kog:_DefaultValueAttribute_GetHashCode_m3368187153
KAf:_DictionaryNodeEnumerator_get_Value_m1345533116
ukc:__Z42Register_UnityEngine_Behaviour_get_enabledv
VHe:_SslStreamBase_EndNegotiateHandshake_m1124299797
RFe:_SslStreamBase__ctor_m3009266308
_Aj:__ZN6il2cpp2vm14TypeNameParser23ParseNestedTypeOptionalERi
vHg:_TimeSpan_get_Seconds_m1883479191_AdjustorThunk
r6j:__ZN6il2cpp2os13FastMutexImplC2Ev
Cve:_RuntimeHelpers_InitializeArray_m4077124945
Yhb:__ZN30RuntimeInitializeOnLoadManager9ClassInfo8TransferI14SafeBinaryReadEEvRT_
gxe:_BigInteger_op_Equality_m1194739960
fEg:_UTF7Encoding_GetCharCount_m2792854727
FUb:__ZL13RenderCastersiRK8Vector3fS1_RK13ShadowJobDataR17ShaderPassContextRKNSt3__26vectorI16ShadowCasterData13stl_allocatorIS9_L18MemLabelIdentifier2ELi16EEEERKNS8_I20ShadowCasterPartDataSA_ISG_LSB_2ELi16EEEERK15RenderNodeQueuebPKj
zl:_emscripten_glGetShaderInfoLog
Orf:_Text_get_horizontalOverflow_m4155575610
pSe:_ObjectReader_RecordFixup_m4125245357
w0c:_UNITY_ft_glyphslot_set_bitmap
hRc:__ZN14b2PolygonShape3SetEPK6b2Vec2i
sRi:_Dictionary_2_Do_ICollectionCopyTo_TisRuntimeObject_m1362949338_gshared
Ol:_glUniform1i
Qgf:_InputField_Validate_m4147207871
j4b:__ZN6prcoreL11inner_clearILj3EEEvPhjjj
L3f:_CCGregorianCalendar_dmy_from_fixed_m494173177
EXh:_List_1_System_Collections_IList_IndexOf_m3211997095_gshared
b6:__Z29FindReflectionProbeFromAnchorP9TransformRK4AABBRS1_RsS5_
y5d:_Byte_System_IConvertible_ToUInt64_m371883985_AdjustorThunk
O2c:_Read_CVT_Stretched
Lyj:__ZN6il2cpp6icalls8mscorlib6System18CollectTypeMethodsINS_5utils10functional10TrueFilterEEEvP11Il2CppClassPKS7_jRKT_RNSt3__26vectorIPK10MethodInfoNSE_9allocatorISI_EEEERA65535_b
GIb:__Z14SetPlayerPause11PlayerPauseb
hae:_CollectionBase_System_Collections_ICollection_CopyTo_m2850099809
jEh:_ReadOnlyCollection_1_System_Collections_IEnumerable_GetEnumerator_m3042843502_gshared
Mtd:_StandaloneInputModule_ActivateModule_m2232892298
dwe:_GCHandle_Free_m1457699368_AdjustorThunk
bGg:_Thread_get_CurrentUICulture_m1397429997
glj:_CanvasRenderer_SetAlphaTexture_m2009567627
pZc:_cff_done_blend
MBd:_Graphic_RegisterDirtyLayoutCallback_m1235519898
__:__Z30scripting_stack_trace_info_for21ScriptingExceptionPtrR14StackTraceInfo
Nzg:_Vector2_op_Inequality_m3858779880
mgk:_glCompressedTexSubImage3D__wrapper
HZa:__ZN18ShadowMapJobHeaderD0Ev
fqf:_Selectable_Select_m1465131241
QFj:__ZN15dense_hashtableINSt3__24pairIK10KeyWrapperINS1_IPK12PropertyInfoP11Il2CppClassEEEjEES9_17ReflectionMapHashIS8_EN14dense_hash_mapIS9_jSD_NS9_14EqualsComparerINS0_8equal_toIS8_EEEENS0_9allocatorISB_EEE9SelectKeyESI_SK_EC2ERKSN_j
WI:__ZN15AudioReverbZone7CleanupEv
tpa:__ZN10BufferGLESD0Ev
mIb:__Z20scripting_gc_disablev
f3d:_Attribute_IsDefined_m1430686743
pKf:_IntervalCollection_Optimize_m161975983
axd:__Z9NullCheckPv
lNg:_Version__ctor_m417728625
zga:__ZN16memory_pool_implILi68EE15AutoPoolWrapper10InitializeEPv
lee:_Convert_ToByte_m3567528984
CNc:__ZNK14b2PolygonShape9TestPointERK11b2TransformRK6b2Vec2
yMh:_InvokableCall_1_Invoke_m3497872319_gshared
OMc:__ZN22FindParticleCollisions22ProcessFoundCollisionsERKfRK13dynamic_arrayI15BatchedRaycastsLj4EERS2_I20BatchedRaycastResultLj4EERS2_I21BatchedColliderResultLj4EE
zsf:_Level2MapComparer__cctor_m1866197409
ECb:__Z29Transfer_Blittable_ArrayFieldI18StreamedBinaryReadILb1EEfEvRT_R9ArrayInfoRK23StaticTransferFieldInfo
mGe:_RecordProtocol_ReadRecordBuffer_m180543381
n6e:_Enumerator_get_CurrentKey_m2230405065_AdjustorThunk
Qej:__ZL24UnresolvedVirtualCall_10P12Il2CppObjectPK10MethodInfo
C9d:_BitArray__ctor_m2765908219
$Tf:_StringComparer_get_InvariantCultureIgnoreCase_m2404489191
ijj:_Font_get_material_m1471867149
a0j:__ZN6il2cpp6icalls8mscorlib6System7Runtime16CompilerServices14RuntimeHelpers15InitializeArrayEP11Il2CppArrayi
LLe:_Context_Freeze_m2594571993
Yld:__ZZN18UnityConnectClient23RegisterGlobalCallbacksEvEN46EarlyUpdateUnityConnectClientUpdateRegistrator7ForwardEv
eQc:__ZN16b2ContactManager7CollideEv
sxd:_ContentSizeFitter_HandleSelfFittingAlongAxis_m3992075504
tfg:_Array_InternalArray__ICollection_CopyTo_TisInt32_t2950945753_m3102754797_gshared
qtg:_Quaternion_ToString_m2203056442
Gke:_ModuleBuilder_GetTokenGenerator_m4177350090
Fbb:__ZN10Matrix4x4f8TransferI18StreamedBinaryReadILb0EEEEvRT_
hGg:_Thread_Start_m2860771284
x0h:_List_1_AddEnumerable_m2295992518_gshared
TM:__ZN4FMOD7Channel19getReverbPropertiesEP29FMOD_REVERB_CHANNELPROPERTIES
xXb:__ZL23NormalizeRobustInternalRK8Vector3fRfS2_f
gWc:__GLOBAL__sub_I_modules_terrain_public_2_cpp
Lff:_InputField_get_selectionColor_m2548343601
Mdg:_Array_LastIndexOf_TisRuntimeObject_m2701366436_gshared
Byj:__ZN6il2cpp6icalls8mscorlib6System8MonoType13GetInterfacesEP20Il2CppReflectionType
$T:__ZN11UnityEngine15CloudWebService25WebRequestDownloadHandler7OnAbortEv
Yvg:_Renderer_SetMaterial_m1194250780
fOb:__ZN6Camera12CustomRenderER11CullResultsR17ShaderPassContextPK21CameraRenderingParamsNS_10RenderFlagEPNS_21PerformRenderFunctionEPFvvE
OEf:_PublicKey_GetUnsignedBigInteger_m3873409673
lXj:__ZN6il2cpp2os6Thread22SetNativeThreadCleanupEPFvPvE
bYg:_GenericEqualityComparer_1_Equals_m2669134646_gshared
Xjc:__Z35Application_Get_Custom_PropPlatformv
E3e:_DefaultComparer_Compare_m1649892577_gshared
ZEd:_RuntimeMethodHandle__ctor_m2867240657
OUf:_DecoderFallback_get_StandardSafeFallback_m2130338133
alc:__Z44Register_UnityEngine_Camera_get_orthographicv
_vb:__Z18Transfer_BlittableI24GenerateTypeTreeTransferLb1E10ColorRGBAfEvRK29SerializationCommandArgumentsR31RuntimeSerializationCommandInfo
mBa:__ZN6prcoreL17RemapGenericFloatI18TexFormatRGBAFloat16TexFormatRGFloatEEvPKNS_9InnerInfoE
ayj:__ZN6il2cpp6icalls8mscorlib6System8MonoType8get_NameEP20Il2CppReflectionType
Stf:_SimpleCollator_LastIndexOf_m2130553617
xsb:__ZNSt3__26vectorI10RectOffset13stl_allocatorIS1_L18MemLabelIdentifier1ELi16EEE8__appendEj
ou:__ZN21AnimationClipPlayable22PrepareAnimationEventsEfR13dynamic_arrayI22AnimationClipEventInfoLj4EE
i4e:_DefaultComparer_Compare_m1920986590_gshared
eIg:_TimeSpan_op_Equality_m1999885032
dIe:_SslStreamBase_get_ServerCertificates_m2154373069
BSj:__ZN6il2cpp2vmL29AddTypeToNametoClassHashTableEPK11Il2CppImagei
MEg:_UTF8Encoding_GetDecoder_m2951334655
lp:FUNCTION_TABLE_ff
np:FUNCTION_TABLE_fi
ULd:_NumberFormatter_ZeroTrimEnd_m3065471008
UNh:_UnityAction_2_Invoke_m2304474703_gshared
d_d:_X509Certificate_get_DSA_m1760272844
aGg:_Thread_get_CurrentCulture_m349116646
VFg:_Thread_Thread_internal_m4184414727
Bd:_emscripten_glGetAttribLocation
NMb:__ZZ23InitPlayerLoopCallbacksvEN39PostLateUpdateResetInputAxisRegistrator7ForwardEv
HL:__ZN4FMOD12ChannelGroup14getParentGroupEPPS0_
Fd:_emscripten_set_blur_callback
Kth:_Collection_1_IsValidItem_m1475436662_gshared
bza:__ZNK14ImageReference9ClipImageEiiii
xbc:__ZN4MeshC2E10MemLabelId18ObjectCreationMode
oVb:__ZN10Matrix4x4f30SetPositionAndOrthoNormalBasisERK8Vector3fS2_S2_S2_
mLa:__ZN5RectTIfE8TransferI24GenerateTypeTreeTransferEEvRT_
Zwd:_ColorBlock_Equals_m518833916
yWj:__ZN6il2cpp6icalls8mscorlib6System4Enum8ToObjectEP20Il2CppReflectionTypeP12Il2CppObject
EOi:_Array_qsort_TisUIVertex_t4057497605_m4120916435_gshared
vPb:__ZN12FlareManager6UpdateEv
sQj:__ZN6il2cpp6icalls8mscorlib6System4Type29GetGenericTypeDefinition_implEP20Il2CppReflectionType
Cfb:__ZN27GenericSlowGarbageCollector16ProcessReferenceEi
Ckc:__Z38Camera_Set_Custom_PropOrthographicSizeP12Il2CppObjectf
dQg:_Dictionary_2_get_Item_m1749337561_gshared
PKe:_LifetimeServices_set_SponsorshipTimeout_m2538334028
GPi:_Array_Sort_TisCustomAttributeTypedArgument_t2723150157_m3248988944_gshared
cak:_fopen
Yna:__ZN20GpuProgramParameters15AddTextureParamEPKciib16TextureDimensionP16PropertyNamesSet
B8c:__ZN20TextRenderingPrivate8FontImplD2Ev
SV:__ZN19CloudServiceHandler8SaveFileERKN4core12basic_stringIcNS0_20StringStorageDefaultIcEEEEPKvj
SPj:__ZN6il2cpp2vm9Exception5RaiseEib
U0j:_GC_init
VXd:_MonoType_IsPointerImpl_m3340652279
Tik:_glFramebufferTexture2D__wrapper
H7j:__ZN6il2cpp6icalls8mscorlib6System7Runtime8Remoting7Proxies9RealProxy27InternalGetTransparentProxyEP12Il2CppObjectP12Il2CppString
cYj:__ZN6il2cpp2vm6Method10IsInflatedEPK10MethodInfo
r0j:__ZNK6il2cpp8metadata14Il2CppTypeLessclEPK10Il2CppTypeS4_
o1j:_GC_remove_header
mXa:__ZL17InstanceBufferJobIN10Instancing14RenderLoopArgsEEvP21InstanceBufferJobDataIT_E
Qhb:__ZNSt3__26vectorIi13stl_allocatorIiL18MemLabelIdentifier13ELi16EEE8__appendEj
mmf:_ReflectionMethodsCache__ctor_m3826472948
CPe:_ReturnMessage_get_OutArgs_m1641976511
FMe:_SynchronizationAttribute_IsContextOK_m324067792
QVj:__ZN6il2cpp2vm6Object6IsInstEP12Il2CppObjectP11Il2CppClass
kzb:__Z19TransferField_ArrayI19StreamedBinaryWriteILb0EE27Converter_UnityEngineObjectEvRK23StaticTransferFieldInfoR31RuntimeSerializationCommandInfoRT0_
qSc:__ZN10ClipperLib7Clipper15AddLocalMinPolyEPNS_5TEdgeES2_RKNS_8IntPointE
FAj:_RemoteSettings_CallOnUpdate_m2821567430
Tva:__Z16GetMSAALevelDesc9MSAALevel
$2f:_Environment_GetMachineConfigPath_m43519138
UZe:_InternalEnumerator_1_System_Collections_IEnumerator_get_Current_m4203917072_gshared
I_f:_Decimal_decimal2Int64_m2102545213
uOb:__ZN8Renderer27EnsureTransformInfoUpToDateEv
Gnk:_emscripten_glFrontFace__wrapper
fPg:_Dictionary_2_System_Collections_ICollection_CopyTo_m534867526_gshared
Oa:invoke_fiffi
m1:__ZN14SerializedFile14SerializedType8ReadTypeILb1EEEbibRPKhS3_Pi
fNh:_InvokableCall_1_Invoke_m1160628299_gshared
wpd:_ExecuteEvents_get_pointerEnterHandler_m1185301724
RTi:_InternalAsyncResult__ctor_m2194591319
OZa:__ZN8Playable7SetTimeEd
jba:__ZN13RuntimeStaticI12GraphicsCapsLb0EE16StaticInitializeEPv
V9a:__ZN9Texture3D17UploadToGfxDeviceEv
I0d:_ArgumentException__ctor_m3761792013
C1c:_tt_cmap2_validate
FZc:_cff_cmap_unicode_done
LIe:_ActivationServices_CreateProxyFromAttributes_m3864561181
KOf:_SecurityPermission_Cast_m2392017566
cIb:__ZN9Scripting20SendScriptingMessageER10GameObjectPKc18ScriptingObjectPtr
Bfh:__Z67RuntimeInvoker_Void_t1185182177_Scene_t2348375561_Int32_t2950945753PFvvEPK10MethodInfoPvPS4_
nuc:_UNITY_png_gamma_correct
CIb:__Z26IsSplashScreenFadeCompletev
ilc:__Z42Register_UnityEngine_Camera_get_clearFlagsv
Dyj:__ZNSt3__26__treeIP11Il2CppClassNS_4lessIS2_EENS_9allocatorIS2_EEED2Ev
arf:_Slider_FindSelectableOnRight_m3576909722
D$b:__ZN13RenderManager27UpdatePreviousFrameMatricesEv
vAb:__Z35Transfer_Blittable_FixedBufferFieldI18StreamedBinaryReadILb1EExEvRK29SerializationCommandArgumentsR31RuntimeSerializationCommandInfo
iSi:_Array_InternalArray__get_Item_TisByte_t1134296376_m3566214066_gshared
axg:_Sprite_Create_m803022218
sca:__Z22SetManagerPtrInContextiP6Object
zgb:__ZN14PlayerSettings8TransferI19StreamedBinaryWriteILb0EEEEvRT_
uFc:__Z18Transfer_BlittableI8JSONReadLb0E10ColorRGBAfEvRK29SerializationCommandArgumentsR31RuntimeSerializationCommandInfo
f4f:_NumberFormatInfo_set_NumberNegativePattern_m1999304795
t_h:_List_1_System_Collections_IList_Insert_m2238786360_gshared
Rme:_GenericTypeParameterBuilder_IsSubclassOf_m2266644074
_yf:_SymmetricTransform_ThrowBadPaddingException_m2926778011
E4f:_CompareInfo_ToString_m2684143229
quc:_UNITY_png_read_transform_info
Kea:__ZN15DirectorManagerD2Ev
Bqf:_Slider_get_maxValue_m414465787
yvc:_start_pass
GEj:__ZN15dense_hashtableINSt3__24pairIK10KeyWrapperINS1_IPK10MethodInfoP11Il2CppClassEEEjEES9_17ReflectionMapHashIS8_EN14dense_hash_mapIS9_jSD_NS9_14EqualsComparerINS0_8equal_toIS8_EEEENS0_9allocatorISB_EEE9SelectKeyESI_SK_E9copy_fromERKSN_j
VGf:_X509CertificateEnumerator_System_Collections_IEnumerator_get_Current_m4218613192
k9b:__ZNK30SpriteRendererAnimationBinding15GenerateBindingERKN4core12basic_stringIcNS0_20StringStorageDefaultIcEEEEbRN11UnityEngine9Animation14GenericBindingE
Wmf:_Scrollbar_set_direction_m473480640
HDg:_UTF32Encoding__ctor_m1635603592
rMg:_UInt64_Equals_m1879425698_AdjustorThunk
j2i:_Uri_IsPredefinedScheme_m1188665625
amd:__ZN18UnityConnectClient13StaticDestroyEv
EQj:__ZN6il2cpp6icalls8mscorlib6System13Globalization11CultureInfo45construct_internal_locale_from_current_localeEP17Il2CppCultureInfo
bgg:_Array_InternalArray__ICollection_CopyTo_TisUIVertex_t4057497605_m487823430_gshared
kDf:_ServicePointManager_get_CheckCertificateRevocationList_m1645465614
AAj:_SessionStateChanged_Invoke_m1365949269
gHa:__ZN15TextureTFMethod16BindForRenderingEj
dCi:__ZL49Canvas_t3310196443_CustomAttributesCacheGeneratorP21CustomAttributesCache
NPe:_SoapMethodAttribute_SetReflectionObject_m503748123
Y6f:_Guid_Equals_m3683678873_AdjustorThunk
CSj:__ZN15dense_hashtableINSt3__24pairIK10KeyWrapperINS1_IPKcS4_EEEiEES6_24NamespaceAndNamePairHashN14dense_hash_mapIS6_iS9_NS6_14EqualsComparerI26NamespaceAndNamePairEqualsEENS0_9allocatorIS8_EEE9SelectKeyESD_SF_E4findERS7_
aJc:__ZN11UnityEngine9Analytics33PerformanceReportingRenderingInfoC2Ei
q6c:__ZN20TextRenderingPrivate8FontImpl13CharacterInfo8TransferI19StreamedBinaryWriteILb0EEEEvRT_
Uwj:__ZN6il2cpp2os19SocketHandleWrapper7ReleaseEv
Thg:_BeforeRenderHelper_Invoke_m50072094
gOe:_MethodCall_get_MethodBase_m550047245
nfb:__ZNSt3__27__sort4IRNS_6__lessINS_4pairIPKN5Unity4TypeE7Hash128EES8_EEPS8_EEjT0_SC_SC_SC_T_
kgc:__Z33AllocExtractMeshIndicesFromScriptRK4Meshib
lpa:__ZNK11NamedObject22GetTypeVirtualInternalEv
$1i:_Uri_EscapeString_m2061933484
__e:_InternalEnumerator_1_System_Collections_IEnumerator_get_Current_m1096730143_gshared
Tee:_Convert_ToDecimal_m3815908452
nkg:_Color_op_Equality_m1112359053
dkg:_Color__ctor_m286683560_AdjustorThunk
eSd:_DelegatePInvokeWrapper_ReadDelegate_t714865915
xae:_CollectionBase_Clear_m1509125218
uzc:__ZN11IMGUIModule21QueryGUIDisplayTargetE17ScriptingClassPtr
Odk:dynCall_vidd
Ktj:__ZNSt3__27__sort4IRN6il2cpp5utils11collections13ArrayValueMapIPK10Il2CppType17Il2CppInteropData26InteropDataToTypeConverterNS1_8metadata14Il2CppTypeLessENSA_26Il2CppTypeEqualityComparerEE12SortComparerEPS8_EEjT0_SH_SH_SH_T_
Jdk:dynCall_vidi
ZTd:_StreamReader_ReadToEnd_m371831293
Upg:_Mathf_RoundToInt_m1874334613
XWd:_MonoCustomAttrs_GetCustomAttributes_m1775925192
tmc:__Z42NoAllocHelpers_CUSTOM_ExtractArrayFromListP12Il2CppObject
phk:_glVertexAttribPointer__wrapper
wId:_HMAC_Create_m2148924157
tdk:___udivdi3
i3f:_Exception__ctor_m1406832249
v$g:_Enumerator_System_Collections_IEnumerator_get_Current_m2339378585_gshared
kic:__ZN11PlayerPrefs9SetStringERKN4core12basic_stringIcNS0_20StringStorageDefaultIcEEEES6_
g4j:__ZN6il2cpp6icalls8mscorlib6System8Delegate18SetMulticastInvokeEP14Il2CppDelegate
xNc:__ZL18b2FindIncidentEdgeP12b2ClipVertexPK14b2PolygonShapeRK11b2TransformiS3_S6_
LT:__ZN11UnityEngine15CloudWebService20WebRequestRestClient5BeginEv
Bbc:__ZN8Material12CleanupClassEv
qak:_fseek
tWc:__ZN16memory_pool_implILi40EE15AutoPoolWrapper10InitializeEPv
yWf:_DateTimeFormatInfo_GetEraName_m3151483707
Szf:_PKCS12_AddCertificate_m3618696508
XM:__ZN20SoundChannelInstance11set3DSpreadEf
aZg:_HashSet_1_Init_m2976925848_gshared
Br:__ZNSt3__26__sortIRN11UnityEngine9Animation11BindingSortEPNS_4pairINS2_14GenericBindingEPNS2_10BoundIndexEEEEEvT0_SB_T_
kxc:__ZN12ImageDecoder14MemoryReadFuncEPvPhj
YFe:_HttpsClientStream_U3CHttpsClientStreamU3Em__0_m2058474197
Cge:_Convert_ToUInt32_m2215525276
pgb:__ZN24GenerateTypeTreeTransfer32TransferSTLStyleArrayWithElementI16SplashScreenLogoEEvRT_17TransferMetaFlags
rZe:_InternalEnumerator_1_get_Current_m2680116177_gshared
Orj:__ZN14dense_hash_mapI10KeyWrapperIPKcEP11Il2CppClassN6il2cpp5utils11StringUtils12StringHasherIS2_EENS3_14EqualsComparerINS7_13VmStringUtils21CaseSensitiveComparerEEENSt3__29allocatorINSF_4pairIKS3_S5_EEEEEC2EjRKSA_RKSE_
Rda:__Z37InitializeIntermediateRendererManagerPv
rPj:__ZN6il2cpp2vm13LivenessState16AddProcessObjectEP12Il2CppObjectPS1_
TSf:_String_IndexOfOrdinal_m962178384
xId:_HMACMD5__ctor_m3129799368
eme:_TypeBuilder_GetEvent_m2166527753
IBd:_Graphic_CrossFadeColor_m678806803
hba:__ZN23DefaultMeshVertexFormatC2E17ShaderChannelMask
QAb:__ZL26Transfer_SimpleNativeClassI18StreamedBinaryReadILb1EE8GradientLb1EEvRK29SerializationCommandArgumentsR31RuntimeSerializationCommandInfo
V8g:__Z102RuntimeInvoker_Int32_t2950945753_RuntimeObject_Int32_t2950945753_CharU26_t1697032762_SByte_t1669577662PFvvEPK10MethodInfoPvPS4_
kjd:__ZN20UnityConnectSettings14GetCloudUserIdEv
kYd:_MonoType_get_Namespace_m2015358851
$bj:_IndexedSet_1_RemoveAt_m3002732320_gshared
Xbe:_HashKeys_CopyTo_m4219627824
qff:_InputField_GetLineStartPosition_m2947412579
wva:__ZN7ApiGLES10InvalidateERK14GfxContextGLES
z3d:_Convert_ToType_m2406080310
oHh:_ReadOnlyCollection_1_IndexOf_m2659941036_gshared
IGh:_ReadOnlyCollection_1_System_Collections_IList_set_Item_m3570269385_gshared
yQh:_List_1_AddEnumerable_m2043754576_gshared
hHi:__ZL85Graphic_t1660335611_CustomAttributesCacheGenerator_Graphic_OnPopulateMesh_m2916877004P21CustomAttributesCache
Cyd:_DefaultControls_CreateToggle_m1236643913
Awf:_BitConverterLE_ToSingle_m1153793442
o6j:__ZN6il2cpp2os5Mutex7TryLockEjb
pKd:_Int16_System_IConvertible_ToByte_m3161982419
E5:__Z20IsVectorBuiltinParamPKcPi
qVj:__ZN6il2cpp2vm5Field8GetFlagsEP9FieldInfo
gJd:_MD5CryptoServiceProvider_HashFinal_m2625727830
xOi:_Array_qsort_TisRaycastResult_t3360306849_m3861320071_gshared
mRf:_Single_System_IConvertible_ToUInt32_m289030200
WNj:__ZN6il2cpp6icalls8mscorlib6System10ReflectionL16LoadResourceFileEP24Il2CppReflectionAssembly
_0f:_Double_System_IConvertible_ToDouble_m3692611612
Q0:__Z13IsFileCreatedRKN4core12basic_stringIcNS_20StringStorageDefaultIcEEEE
_rf:_Text_OnPopulateMesh_m1525268284
pRd:_FileStream_FlushBuffer_m914568182
t5a:__ZN16LightmapSettings18TransferDeprecatedI14SafeBinaryReadEEvRT_
geb:__ZN8Renderer11SetMaterialE4PPtrI8MaterialEi
eDg:_StringBuilder_AppendFormat_m921870684
mVj:__ZN15dense_hashtableINSt3__24pairIK10KeyWrapperIP12Il2CppObjectEN6il2cpp2gc9CachedCCWEEES5_NS7_5utils11PointerHashIS3_EEN14dense_hash_mapIS5_S9_SD_NS5_14EqualsComparerINS0_8equal_toIS4_EEEENS0_9allocatorISA_EEE9SelectKeyESI_SK_E5eraseE30dense_hashtable_const_iteratorISA_S5_SD_SM_SI_SK_E
_ae:_Hashtable__ctor_m1684344284
Oy:__ZThn152_NK26AnimatorControllerPlayable41GetStateMachineBehaviourVectorDescriptionEv
U$d:_Activator_CheckAbstractType_m2015247896
uLf:_RSACryptoServiceProvider_ImportParameters_m614616705
I8:__GLOBAL__sub_I_runtime_camera_renderloops_1_cpp
VEe:_SslHandshakeHash_CreateSignature_m1634235041
$af:_ShimEnumerator_get_Current_m3504536618_gshared
dVa:__ZN12FlareManager9AddCameraER6Camera
knd:__ZN15UnityWebRequestD0Ev
Eie:_AssemblyName_ComputePublicKeyToken_m824893834
ON:__ZN11AudioSource8TransferI14SafeBinaryReadEEvRT_
$Qd:_FileNotFoundException__ctor_m2477162036
qUg:_EqualityComparer_1__cctor_m149356781_gshared
h_f:_Decimal_System_IConvertible_ToDouble_m3125524987
Lv:__ZN7mecanim9animation23TransformDeltasFromClipEiiiRKNS0_18ClipMuscleConstantERKNS0_12ClipBindingsERKNS_14ValueArrayMaskERN4math4trsXESC_SC_
DDb:__Z18Transfer_BlittableI18StreamedBinaryReadILb0EELb0E12PropertyNameEvRK29SerializationCommandArgumentsR31RuntimeSerializationCommandInfo
TRc:__ZTv0_n12_N10ClipperLib7ClipperD0Ev
gJc:__ZN13ProduceHelperI27PerformanceReportingManagerLb0EE7ProduceE10MemLabelId18ObjectCreationMode
kZi:_Match_get_Empty_m2060287462
opb:__ZN19ShaderPropertySheet16SetComputeBufferEN9ShaderLab16FastPropertyNameE15ComputeBufferIDNS_8SetFlagsE
Brg:_U3CInvokeMessageIdSubscribersU3Ec__AnonStorey0_U3CU3Em__0_m444206473
rQg:_Dictionary_2_ContainsValue_m256968015_gshared
FZj:__ZNK15dense_hashtableINSt3__24pairIK10KeyWrapperIPK19Il2CppGenericMethodEP10MethodInfoEES6_N6il2cpp8metadata23Il2CppGenericMethodHashEN14dense_hash_mapIS6_S9_SD_NS6_14EqualsComparerINSC_26Il2CppGenericMethodCompareEEENS0_9allocatorISA_EEE9SelectKeyESH_SJ_E5beginEv
VTe:_ArrayReadOnlyList_1_get_Item_m1974867852_gshared
DDd:_Image_AddQuad_m969836764
Nsf:_MSCompatUnicodeTable_IsIgnorableNonSpacing_m47098938
Fzh:_Collection_1_IsSynchronized_m2655903966_gshared
VMd:_Int32_System_IConvertible_ToSingle_m896140682_AdjustorThunk
Pv:__ZN7mecanim21CreateFloatValueArrayEPKNS_18ValueArrayConstantERNS_6memory9AllocatorE
DYb:__ZL12CullGroupJobP20CullingGroupsJobDataj
M1j:_GC_remove_dangling_disappearing_links
CU:__ZN11UnityEngine15CloudWebService14RestDownloader9IsAbortedEv
Xy:__ZN7mecanim12statemachine28DestroyStateMachineWorkspaceEPNS0_21StateMachineWorkspaceERNS_6memory9AllocatorE
kAc:__Z30GUIStyle_CUSTOM_SetDefaultFontP12Il2CppObject
H6e:_Enumerator_System_Collections_IDictionaryEnumerator_get_Key_m3435754782_AdjustorThunk
Bo:FUNCTION_TABLE_f
qp:FUNCTION_TABLE_i
k0i:_AnchorInfo_get_Position_m1133366486
XTd:_StreamReader_FindNextEOL_m2574298119
Qga:__ZN11TypeManager12RegisterTypeERK20TypeRegistrationDesc
Qn:FUNCTION_TABLE_v
kbb:__ZNSt3__26vectorI17BlendShapeChannelNS_9allocatorIS1_EEE8__appendEj
TMb:__ZZ23InitPlayerLoopCallbacksvEN43PostLateUpdateUpdateAllRenderersRegistrator7ForwardEv
pjb:__ZN21LightProbeProxyVolume13GetRenderDataER27LightProbeProxyVolumeSample
kLe:_Context_get_ContextProperties_m3283598326
Cvh:_Collection_1_System_Collections_IList_set_Item_m4249768453_gshared
Veb:__ZN11TimeManager8TransferI24GenerateTypeTreeTransferEEvRT_
Eaf:_KeyCollection_System_Collections_ICollection_get_SyncRoot_m3900096134_gshared
bCc:__ZN8JSONRead8TransferItEEvRT_PKc17TransferMetaFlagsb
ms:__ZNK11UnityEngine9Animation28GenericAnimationBindingCache10BindCustomERKNS0_14GenericBindingER9TransformRNS0_10BoundCurveE
wBj:__ZN6il2cpp2vm17TypeNameParseInfoC2ERKS1_
zkd:__ZN18UnityConnectClient17InitConnectClientEv
S8j:_memcmp
hKd:_GuidParser_ParseHexPrefix_m3148550086
fjd:__ZN11UnityEngine7Connect18ConnectSessionInfo8TransferER9JSONWrite
IQ:__Z74Register_UnityEngine_AudioListener_INTERNAL_CALL_ReadExtensionPropertyNamev
$Ni:_Array_InternalArray__set_Item_TisHitInfo_t3229609740_m1576844560_gshared
keb:__ZN9Scripting32GetCachedPtrFromScriptingWrapperE18ScriptingObjectPtr
uHe:_SslClientStream_OnBeginNegotiateHandshake_m3734240069
lcd:__ZN2UI29ScheduleUIJobsForInstructionsERNS_7BatchesEjPKNS_13UIInstructionEfjjPNS_13CanvasJobDataE
uL:__ZN5audio5mixer22CreateAudioMixerMemoryERKNS0_18AudioMixerConstantEPN4FMOD6SystemERN7mecanim6memory9AllocatorEib
FGb:__ZL65EmitSerializationCommandsForLinearCollectionOfManagedObjectsFieldRK31TransferFunctionScriptingTraitsRK23TransferArrayField_InfoR20SerializationCommandR32SerializationCommandQueueBuilderRP20AllowNameConversions
WRi:_LayoutGroup_SetProperty_TisInt32_t2950945753_m3911895589_gshared
xV:__ZN11UnityEngine15CloudWebService19SessionEventManager31SetupNextActiveSessionContainerEv
Ofk:dynCall_iiid
y2g:__Z121RuntimeInvoker_Void_t1185182177_Int32_t2950945753_Int32_t2950945753_Int32_t2950945753_SByte_t1669577662_SByte_t1669577662PFvvEPK10MethodInfoPvPS4_
aah:__Z52RuntimeInvoker_Single_t1397266774_Single_t1397266774PFvvEPK10MethodInfoPvPS4_
qcg:_Array_IndexOf_TisRuntimeObject_m828474689_gshared
N8d:_FixedSizeArrayListWrapper_InsertRange_m1706982628
NMg:_UIntPtr_ToString_m984583492_AdjustorThunk
vKb:__ZL20ShaderWarmupFuncImplP6ShaderiPN9ShaderLab4PassERK16ShaderKeywordSetP10DynamicVBOPvR17ShaderPassContext
WPc:__ZN7b2World4StepEfii
tLb:__ZN13GfxDeviceGLESC2E10MemLabelId
Bjj:_TextGenerationSettings_Equals_m3618607189
Atj:__ZN15dense_hashtableI10KeyWrapperIPK17Il2CppGenericInstES4_N6il2cpp8metadata21Il2CppGenericInstHashEN14dense_hash_setIS4_S7_NS4_14EqualsComparerINS6_24Il2CppGenericInstCompareEEENSt3__29allocatorIS4_EEE8IdentityESB_SE_E6insertERKS4_
vCj:__ZN15dense_hashtableINSt3__24pairIK10KeyWrapperINS1_IPK14Il2CppAssemblyP11Il2CppClassEEEjEES9_17ReflectionMapHashIS8_EN14dense_hash_mapIS9_jSD_NS9_14EqualsComparerINS0_8equal_toIS8_EEEENS0_9allocatorISB_EEE9SelectKeyESI_SK_E3endEv
hkd:__ZN11UnityEngine7Connect17DeviceStatusEventC2Ev
mXd:_MonoEnumInfo_get_enum_info_m1661176095
L3i:_GUIUtility_CheckOnGUI_m3924092168
wwa:__ZN14DataBufferGLES12RecordUpdateEv
$Ve:_InternalEnumerator_1_get_Current_m1481634550_gshared
v7c:__ZN20TextRenderingPrivate15DynamicFontData28GetFaceForFontRefFromOSFontsERKNS_7FontRefE
wEe:_Context_ClearKeyInfo_m1155154290
Dtg:_Ray_GetPoint_m1852405345
VVj:__ZN6il2cpp2vm12GenericClass12SetupMethodsEP11Il2CppClass
job:__ZNK20LocalFileSystemPosix18GetApplicationPathEv
b0h:_List_1_set_Item_m658432263_gshared
CGb:__ZN9Scripting30IsSystemCollectionsGenericListE17ScriptingClassPtr
I2:__ZN21ScalableBufferManager20GetHeightScaleFactorEv
iRg:_Dictionary_2_Add_m1279427033_gshared
Gcd:__ZN2UI23InitializeCanvasManagerEv
yRa:__ZN10GameObject16CheckConsistencyEv
Lsd:_PointerInputModule_GetMousePointerEventData_m4273240034
x9b:__ZN14RenderSettings15InitializeClassEv
Jud:_AspectRatioFitter_set_aspectMode_m4140288987
jmc:__Z46Register_UnityEngine_GameObject_get_activeSelfv
Aza:__ZL35stbir__resample_horizontal_upsampleP11stbir__infoPf
Psh:__Z82RuntimeInvoker_RuntimeObject_RaycastResult_t3360306849_RuntimeObject_RuntimeObjectPFvvEPK10MethodInfoPvPS4_
RMc:__Z14b2TimeOfImpactP11b2TOIOutputPK10b2TOIInput
O1h:_Enumerator__ctor_m3419056812_AdjustorThunk
C$e:_InternalEnumerator_1_System_Collections_IEnumerator_get_Current_m1299775605_gshared
Zvb:__Z18Transfer_BlittableI24GenerateTypeTreeTransferLb0E10ColorRGBAfEvRK29SerializationCommandArgumentsR31RuntimeSerializationCommandInfo
Y5b:__ZN14SpriteRenderer13GetRenderDataEv
qAf:_DictionaryNodeEnumerator_Reset_m2226320064
$dk:dynCall_iifii
lbd:__ZN2UI16GetCanvasManagerEv
rgc:__ZN15GUIEventManager8PopEventER10InputEvent
Bmc:__Z31RectOffset_Get_Custom_PropRightP12Il2CppObject
L9c:__Z54Register_UnityEngine_TextGenerator_GetVerticesInternalv
wJd:__Z3BoxP11Il2CppClassPv
yog:_Input_get_touchSupported_m1480684970
ACd:_GridLayoutGroup_SetLayoutVertical_m2106427802
drg:_MonoBehaviour_StartCoroutine_m3411253000
lHa:__ZN21UniformBufferTFMethodD2Ev
a$e:_InternalEnumerator_1_System_Collections_IEnumerator_get_Current_m1096730143_AdjustorThunk
Lic:__ZL34GetComponentsImplementationRecurseILb1ELi1ELi2EEbR10GameObjectbRK17CompareParametersRK39GetComponentsImplementation_ReturnValue
fAa:__ZN6prcoreL12RemapGenericI15TexFormatRGB56515TexFormatRGB888EEvPKNS_9InnerInfoE
D4j:__ZN6il2cpp5utils10MemoryPool9AddRegionEj
eFf:_X509Certificate2__ctor_m3336405942
xBd:_Graphic_get_workerMesh_m997382591
Irc:__Z38PlayableHandle_CUSTOM_IsValid_InjectedP9HPlayable
lNj:__ZNSt3__214__split_bufferIP12Il2CppThreadRN6il2cpp2gc9AllocatorIS2_EEED2Ev
Ssc:_UNITY_png_inflate_claim
i1d:_Array_System_Collections_IList_RemoveAt_m41405158
gih:__Z64RuntimeInvoker_Boolean_t97287965_RuntimeObject_Int64_t3736567304PFvvEPK10MethodInfoPvPS4_
Awd:_CanvasUpdateRegistry_IsRebuildingLayout_m3530790142
Mdd:__Z41CanvasGroup_Get_Custom_PropBlocksRaycastsP12Il2CppObject
A$j:__ZN6il2cpp2os11Environment17GetProcessorCountEv
Iia:__ZNSt3__26vectorIN9ShaderLab26SerializedShaderDependencyENS_9allocatorIS2_EEE8__appendEj
Vba:__ZN32TransformHierarchyChangeDispatch26DispatchSelfAndAllChildrenE15TransformAccessNS_12InterestTypeE
MQ:__Z46Register_UnityEngine_AudioSource_get_isPlayingv
jqd:_EventSystem_OnEnable_m3237278246
cda:__ZN13RuntimeStaticI22VirtualJoystickManagerLb0EE13StaticDestroyEPv
dJf:_Interpreter_Balance_m1978770534
UH:__ZN13AudioListener12ApplyFiltersEv
j0h:_List_1_System_Collections_IList_Contains_m353431064_gshared
Aej:_AudioConfigurationChangeHandler_BeginInvoke_m4104069447
k6j:__ZN6il2cpp8metadata27Il2CppGenericContextCompare7CompareEPK20Il2CppGenericContextS4_
Nek:dynCall_viiii
A4f:_CompareInfo_IsPrefix_m796715920
wpj:__ZNK15dense_hashtableINSt3__24pairIK10KeyWrapperIPK22Il2CppGenericParameterEP11Il2CppClassEES6_N6il2cpp5utils11PointerHashIS4_EEN14dense_hash_mapIS6_S9_SE_NS6_14EqualsComparerINS0_8equal_toIS5_EEEENS0_9allocatorISA_EEE9SelectKeyESJ_SL_E23find_position_with_hashERS7_j
bye:_PrimalityTest_Invoke_m2948246884
IOb:__Z11CopyTextureP7TextureiiS0_ii
pUe:_ArrayReadOnlyList_1_Contains_m2459654648_gshared
RDi:__ZL65EventTrigger_t1076084509_CustomAttributesCacheGenerator_delegatesP21CustomAttributesCache
ABj:__ZNSt3__214__split_bufferIN6il2cpp2vm17TypeNameParseInfoERNS_9allocatorIS3_EEED2Ev
n$h:_List_1_System_Collections_IList_Contains_m3717811284_gshared
Ire:_MonoEvent_get_Attributes_m3048829315
gxb:__Z22TransferField_NonArrayI24GenerateTypeTreeTransfer27Converter_SimpleNativeClassI8GUIStyleEEvRK23StaticTransferFieldInfoR31RuntimeSerializationCommandInfoRT0_
Ufa:__ZN15DirectorManager14ConnectionPool16GrowEmptyBucketsEv
eae:_CaseInsensitiveHashCodeProvider_AreEqual_m3534448780
AZ:__ZN17PersistentManager32CopyToAwakeFromLoadQueueInternalER18AwakeFromLoadQueue
hcc:__ZN10GameObject15InitializeClassEv
Ubh:__Z104RuntimeInvoker_Boolean_t97287965_Int32_t2950945753_Int64U5BU5DU26_t194432655_StringU5BU5DU26_t2154486980PFvvEPK10MethodInfoPvPS4_
pTc:__ZN10Collider2D23VirtualRedirectTransferER24GenerateTypeTreeTransfer
oOb:__ZNK6Camera16SetActiveVRUsageEv
Qmf:_Scrollbar_set_handleRect_m1170237786
_Fc:__ZL26Transfer_SimpleNativeClassI8JSONRead8GradientLb1EEvRK29SerializationCommandArgumentsR31RuntimeSerializationCommandInfo
t9j:_open
sYi:_X509CrlEntry_get_SerialNumber_m3627212772
D8e:_Enumerator_System_Collections_IEnumerator_get_Current_m2770307259_gshared
K$b:__Z30GetPlayerShouldRunInBackgroundv
Ycd:__Z13RegisterClassIN2UI6CanvasEEvv
bqg:_Mathf__cctor_m1175545152
Pre:_MonoEvent_IsDefined_m10931749
pBf:_NameValueCollection_AsSingleString_m3776180906
$za:__ZN6prcoreL12RemapGenericI11TexFormatI815TexFormatRGB565EEvPKNS_9InnerInfoE
QMd:_Int32_System_IConvertible_ToInt64_m3520470966
Dva:__ZNK13TranslateGLES17FramebufferTargetEN2gl17FramebufferTargetE
yYj:__ZL11on_gc_event11GCEventType
W$e:_InternalEnumerator_1_System_Collections_IEnumerator_get_Current_m1612699335_gshared
oDe:_TlsServerHello__ctor_m3887266572
gPc:__ZNSt3__27__sort5IR31RayHitsByInverseDepthComparitorP12RaycastHit2DEEjT0_S5_S5_S5_S5_T_
Rkg:_Coroutine_ReleaseCoroutine_m809189848
Rhk:b62
Qhk:b61
Phk:b60
fjk:b67
Sik:b66
Uhk:b65
jjk:b69
G4b:__ZL10SweepEventP14TESStesselatorP10TESSvertex
VYi:_Enumerator_get_Current_m359737019
wUa:__ZNSt3__26__treeINS_12__value_typeIi17ShadowCachingDataEENS_19__map_value_compareIiS3_NS_4lessIiEELb1EEE13stl_allocatorIS3_L18MemLabelIdentifier66ELi16EEE7destroyEPNS_11__tree_nodeIS3_PvEE
s3d:_BitConverter_ToInt64_m349022421
Igc:__Z9SetIIMGUIP6IIMGUI
CXh:_List_1_System_Collections_IList_Add_m1142950911_gshared
Fkh:__Z68RuntimeInvoker_Boolean_t97287965_Double_t594665363_Double_t594665363PFvvEPK10MethodInfoPvPS4_
i1c:_tt_cmap10_get_info
cJb:__Z28SetupPixelCorrectCoordinatesi
nec:__ZNSt3__218__insertion_sort_3IRN10vector_mapIiiNS_4lessIiEE13stl_allocatorINS_4pairIiiEEL18MemLabelIdentifier1ELi16EEE13value_compareEPS6_EEvT0_SD_T_
Yva:__Z5SplitRKN4core12basic_stringIcNS_20StringStorageDefaultIcEEEEcRNSt3__26vectorIS3_NS6_9allocatorIS3_EEEEi
$xf:_PKCS1_Sign_v15_m2719206817
M6i:_AesTransform__ctor_m3143546745
b9f:_Array_InternalArray__ICollection_Remove_TisRuntimeObject_m2110193223_gshared
LAi:__ZL64EventType_t3528516131_CustomAttributesCacheGenerator_scrollWheelP21CustomAttributesCache
_7:__ZN24GenerateTypeTreeTransfer10SetVersionEi
Oqg:_Mesh_SetTangents_m1615111656
Odc:__ZN13PlayableGraph16DestroyRecursiveEP8Playable
PPj:__ZN6il2cpp2vm9Exception20GetArgumentExceptionERKNS_5utils10StringViewIDsEES6_
a1h:_Enumerator_System_Collections_IEnumerator_Reset_m1487823313_AdjustorThunk
yOe:_MethodCallDictionary__cctor_m2213329406
dI:__ZN12AudioManagerD0Ev
Dff:_InputField_set_textComponent_m2547304131
$b:invoke_viiififii
qtf:_SortKeyBuffer_Initialize_m3786111493
Qwa:__ZN10Matrix3x3faSERK10Matrix4x4f
GLi:__ZL58IVertexModifier_t3404627876_CustomAttributesCacheGeneratorP21CustomAttributesCache
Efb:__ZNK22GenericPropertyBinding13SetFloatValueERKN11UnityEngine9Animation10BoundCurveEf
sBg:_Encoding__cctor_m1936558127
pZh:_List_1__ctor_m163821521_gshared
_Id:_MD5_Create_m3289886172
nOf:_X509Certificate_get_Subject_m2638144878
S7c:_raccess_guess_darwin_ufs_export
nig:_AsyncOperation_Finalize_m1841265672
mMb:__ZN11TypeManager18InitializeAllTypesEv
kff:_InputField_MarkGeometryAsDirty_m817808086
yjf:_LayoutGroup_get_isRootLayoutGroup_m1082645254
_F:__ZN9AudioClipD0Ev
KJj:_il2cpp_class_from_name
DXb:__ZN13dynamic_arrayI11ActiveLightLj4EE26emplace_back_uninitializedEv
hmf:_RectMask2D_OnDisable_m809267607
E1h:_Queue_1__ctor_m1971992302_gshared
Cx:__ZN27AnimationLayerMixerPlayable26ProcessAnimationLayerBeginEP35AnimationPlayableEvaluationConstantP32AnimationPlayableEvaluationInputP33AnimationPlayableEvaluationOutput
f7b:__Z13RegisterClassI8GUILayerEvv
N2b:__ZN25ThreadsafeLinearAllocatorC2EiiPKc
rqg:_Mesh_GetIndicesImpl_m3233954035
IXd:_MonoType_GetEvent_m28975240
LDa:__ZN14GfxContextGLES11MakeCurrentER7ApiGLESN2gl13ContextHandleE
NRd:_MonoIO_Write_m3999708352
abj:_MagnifyGlass_setLine_m577595266
fgk:dynCall_viffffi
efg:_Array_InternalArray__ICollection_CopyTo_TisChar_t3634460470_m3599063464_gshared
gEg:_UTF7Encoding_InternalGetChars_m2722395139
aXf:_DateTime_get_Today_m2788644320
Ntc:_UNITY_png_check_IHDR
sKb:__ZN16GraphicsSettings22WarmupPreloadedShadersEv
Zed:__Z34Canvas_Set_Custom_PropSortingOrderP12Il2CppObjecti
EFd:_SByte_System_IConvertible_ToSingle_m1083054891
QYi:_CostDelegate_Invoke_m898648402
$Dg:_UTF7Encoding_Equals_m227704363
amg:_DisplaysUpdatedDelegate_Invoke_m3203573844
vEb:__ZN18StreamedBinaryReadILb0EE8TransferI13dynamic_arrayI12PropertyNameLj4EEEEvRT_PKc17TransferMetaFlags
yna:__ZN9ShaderLab4Pass6RetainEv
sxf:_KeyPairPersistence_get_ContainerName_m4274536094
rw:__ZN7mecanim9animation22CopyAnimationNodeStateEPKNS0_18AnimationNodeStateEPS1_bbRKNS_6bitsetILj83EEE
yeb:__Z10AddGUIAxesR13dynamic_arrayI9InputAxisLj4EE
eb:invoke_iiiiiiffiiiiiiiiiffffiii
Eug:_Rect_op_Equality_m3986168348
Onj:_CustomEventData_Add_m3128590933
F7e:_Enumerator_System_Collections_IDictionaryEnumerator_get_Key_m4039922590_AdjustorThunk
Qhf:_Selectable_OnDeselect_m2712096814
ZIc:__ZN11UnityEngine9Analytics18RenderingInfoEvent12ToJsonStringER9JSONWrite
A8e:_Enumerator_get_Current_m35296194_AdjustorThunk
HDj:__ZN6il2cpp2gc19AppendOnlyGCHashMapIPK10Il2CppTypeP20Il2CppReflectionTypeNS_8metadata14Il2CppTypeHashENS7_26Il2CppTypeEqualityComparerEE3AddERKS4_S6_
FR:__ZN11UnityEngine15CloudWebService17CloudJobScheduler11ScheduleJobEPFvPvES2_
Otf:_SimpleCollator_IsSuffix_m1291687763
OS:__ZN11UnityEngine15CloudWebService17CloudServiceEvent12ToJsonStringER9JSONWrite
OCe:_TlsClientHello__ctor_m1986768336
Hda:__ZNK18VertexChannelsInfoltERKS_
sdh:__Z89RuntimeInvoker_Boolean_t97287965_Int32_t2950945753_Int32U26_t1369213839_Int32_t2950945753PFvvEPK10MethodInfoPvPS4_
V5d:_Char_System_IConvertible_ToType_m4138905176_AdjustorThunk
ZBc:__ZN9JSONWrite8TransferIfEEvRT_PKc17TransferMetaFlags
vZf:_DBNull_System_IConvertible_ToUInt16_m643477279
UPa:__ZN10MemoryFileD0Ev
Aic:__ZN10MonoScript27InitializeAndRegisterScriptERKN4core12basic_stringIcNS0_20StringStorageDefaultIcEEEES6_S6_S6_b
bnj:_Analytics_GetUnityAnalyticsHandler_m2772482435
MXj:__ZN6il2cpp2os10ThreadImpl22SetNativeThreadCleanupEPFvPvE
FYf:_DateTimeOffset__cctor_m3610253033
a4f:_NumberFormatInfo_get_InvariantInfo_m349577018
A5d:_Byte_CompareTo_m4285128861_AdjustorThunk
jtc:_UNITY_png_free_data
JKe:_ConfigHandler_ExtractAssembly_m2143791058
ZTj:__ZN6il2cpp8metadataL24RecursiveGenericDepthForEPK17Il2CppGenericInst
czg:_Transform_GetChild_m1092972975
Zrb:__ZN13GUIStyleState8TransferI14SafeBinaryReadEEvRT_
Wd:_glDrawArrays
xej:_AudioSource_get_clip_m1234340632
Oue:_ResourceCacheItem_t51292791_marshal_pinvoke_back
mE:__ZN23AnimatedPropertyBuilder5BuildEP13AnimationClip18ScriptingObjectPtr
Abb:__ZN14BlendShapeData8TransferI18StreamedBinaryReadILb0EEEEvRT_
V2c:_Round_To_Grid
M1c:_UNITY_FT_Stream_Close
Bqd:_EventTrigger_OnPointerClick_m1385968891
ILg:_UInt32_ToString_m4293943134_AdjustorThunk
Zvg:_Renderer_get_sortingLayerID_m3902855301
jKf:_Interval_CompareTo_m3282557545_AdjustorThunk
H4e:_Comparer_1__cctor_m1018589532_gshared
Jbh:__Z54RuntimeInvoker_TimeSpan_t881159249_TimeSpan_t881159249PFvvEPK10MethodInfoPvPS4_
nha:__ZL20FormatOrderedProcessPKcP17FormatOrderedDataPc
Ffg:_Array_InternalArray__ICollection_CopyTo_TisResourceCacheItem_t51292791_m766230259_gshared
yUf:_Decoder_set_Fallback_m3834517714
Flc:__Z35DebugLogHandler_CUSTOM_Internal_Log7LogTypeP12Il2CppStringP12Il2CppObject
nda:__ZNSt3__26__treeINS_12__value_typeI18VertexChannelsInfoP16MeshVertexFormatEENS_19__map_value_compareIS2_S5_NS_4lessIS2_EELb1EEE13stl_allocatorIS5_L18MemLabelIdentifier17ELi16EEE7destroyEPNS_11__tree_nodeIS5_PvEE
jKi:__ZL76CanvasScaler_t2767979955_CustomAttributesCacheGenerator_m_MatchWidthOrHeightP21CustomAttributesCache
djk:_emscripten_glShaderBinary__wrapper
UCa:__ZL17ProgramUniform3ivPK7ApiGLESjiihPKv
B7d:_ArrayList_Shift_m395607654
Bra:__ZN9GfxDevice25GetBackBufferColorSurfaceEv
lQa:__ZN25SingleBlockMemoryFileData9SetLengthEy
Aec:__Z29AwakeAndActivateClonedObjectsPP6ObjectRK10vector_mapIiiNSt3__24lessIiEE13stl_allocatorINS3_4pairIiiEEL18MemLabelIdentifier1ELi16EEE
wIj:__ZN15dense_hashtableINSt3__24pairIK10KeyWrapperINS1_IPK10MethodInfoP11Il2CppClassEEEjEES9_17ReflectionMapHashIS8_EN14dense_hash_mapIS9_jSD_NS9_14EqualsComparerINS0_8equal_toIS8_EEEENS0_9allocatorISB_EEE9SelectKeyESI_SK_E14squash_deletedEv
Ywf:_KeyGeneratedEventHandler_Invoke_m4131555809
b4b:__Z13RegisterClassI6ShaderEvv
VTf:_String_CharCopyReverse_m1548661297
wod:__ZN13RuntimeStaticI11WindManagerLb0EE13StaticDestroyEPv
sDc:__Z18Transfer_BlittableI9JSONWriteLb1EaEvRK29SerializationCommandArgumentsR31RuntimeSerializationCommandInfo
rIj:__ZN13Il2CppHashMapINSt3__24pairIPK10MethodInfoP11Il2CppClassEEj17ReflectionMapHashIS7_ENS0_8equal_toIS7_EENS0_9allocatorINS1_IK10KeyWrapperIS7_EjEEEEEC2EjRKS9_RKSB_
cSb:__ZN11HaloManager11HasAnyHalosEPK11CullResults
I9a:__ZN9Texture3D23VirtualRedirectTransferER19StreamedBinaryWriteILb0EE
FBc:__ZN5Unity9rapidjson8internal8PrettifyEPcii
yP:__Z13RegisterClassI10SampleClipEvv
Ebh:__Z81RuntimeInvoker_Void_t1185182177_Int32_t2950945753_Int32_t2950945753_RuntimeObjectPFvvEPK10MethodInfoPvPS4_
vNc:__Z23b2CollideRadialPolygonsP10b2ManifoldPK14b2PolygonShapeRK11b2TransformS3_S6_
UUb:__ZNK23ForwardShaderRenderLoop18RenderObjectSorterILb1EEclERK21ForwardRenderPassDataS4_
W9d:_CaseInsensitiveComparer__ctor_m1508720200
evj:__ZN15dense_hashtableI10KeyWrapperIPK19Il2CppGenericMethodES4_N6il2cpp8metadata23Il2CppGenericMethodHashEN14dense_hash_setIS4_S7_NS4_14EqualsComparerINS6_26Il2CppGenericMethodCompareEEENSt3__29allocatorIS4_EEE8IdentityESB_SE_E12maybe_shrinkEv
fIa:__ZN10BufferGLES10BeginWriteEjj
cvj:__ZNK15dense_hashtableI10KeyWrapperIPK19Il2CppGenericMethodES4_N6il2cpp8metadata23Il2CppGenericMethodHashEN14dense_hash_setIS4_S7_NS4_14EqualsComparerINS6_26Il2CppGenericMethodCompareEEENSt3__29allocatorIS4_EEE8IdentityESB_SE_E12test_deletedEj
BB:__ZN7mecanim12statemachine18StateMachineMemory8TransferI9BlobWriteEEvRT_
KQa:__ZN20ArchiveStorageReader10InitializeER15FileSystemEntryyb
cLj:__GLOBAL__sub_I_ArrayMetadata_cpp
eIa:__ZN7ApiGLES11FlushBufferEjN2gl12BufferTargetEll
Vsb:__ZN14SafeBinaryRead21TransferSTLStyleArrayI13dynamic_arrayI8BitFieldLj4EEEEvRT_17TransferMetaFlags
sEa:__ZN12_GLOBAL__N_127PrepareReadback_ResolveMSAAER18GfxFramebufferGLESR7ApiGLESP17RenderSurfaceGLESS5_
bbc:__ZNK24RendererAnimationBinding9BindValueER6ObjectRKN11UnityEngine9Animation14GenericBindingERNS3_10BoundCurveE
Foe:_TypeBuilder_has_ctor_method_m2987175843
We:_glBindBuffer
gEb:__ZN8GUIStyle8TransferI18StreamedBinaryReadILb0EEEEvRT_
bYe:_InternalEnumerator_1_get_Current_m3500427238_gshared
qea:__ZNSt3__213__stable_sortIRN10vector_mapIijNS_4lessIiEENS_9allocatorINS_4pairIijEEEEE13value_compareENS_11__wrap_iterIPS6_EEEEvT0_SE_T_NS_15iterator_traitsISE_E15difference_typeEPNSH_10value_typeEi
xgb:__ZN10VRSettings8Daydream8TransferI18StreamedBinaryReadILb0EEEEvRT_
kYa:__ZNSt3__218__insertion_sort_3IRNS_6__lessIN4core12basic_stringIcNS2_20StringStorageDefaultIcEEEES6_EEPS6_EEvT0_SA_T_
ref:_ValueCollection_System_Collections_Generic_ICollectionU3CTValueU3E_Remove_m1748672125_gshared
F8j:_isupper
W0a:__ZNSt3__26__treeINS_12__value_typeIN9ShaderLab16FastPropertyNameEN18UnityPropertySheet11UnityTexEnvEEENS_19__map_value_compareIS3_S6_NS_4lessIS3_EELb1EEENS_9allocatorIS6_EEE7destroyEPNS_11__tree_nodeIS6_PvEE
fDh:_ReadOnlyCollection_1_System_Collections_IList_Clear_m108858531_gshared
Y6g:__Z102RuntimeInvoker_RuntimeObject_Int32_t2950945753_RuntimeObject_RuntimeObject_RuntimeObject_RuntimeObjectPFvvEPK10MethodInfoPvPS4_
N5i:_GUIUtility_set_guiIsExiting_m1558910088
JCe:_Context_Clear_m2678836033
wle:_DerivedType_IsDefined_m3906894566
rwj:__ZN6il2cpp2vm13MetadataCache24GetExportedTypeFromIndexEi
soh:__Z54RuntimeInvoker_Void_t1185182177_RaycastHit_t1056001966PFvvEPK10MethodInfoPvPS4_
ABc:__ZN5Unity9rapidjson6WriterI16TempBufferWriterNS0_4UTF8IcEES4_13JSONAllocatorE9WriteUintEj
kbk:_getuid
tE:__ZN7mecanim5human8BoneNameEj
L7b:__Z13RegisterClassI10MonoScriptEvv
jqg:_Matrix4x4_GetColumn_m461504848_AdjustorThunk
QKd:_Int16_System_IConvertible_ToUInt64_m134975563_AdjustorThunk
j6c:__ZN20TextRenderingPrivate8FontImpl8TransferI18StreamedBinaryReadILb0EEEEvRT_
epf:_ScrollRect_UpdateScrollbarVisibility_m4226977273
nbk:_rmdir
_xj:__ZN6il2cpp6icalls8mscorlib6System8MonoType22get_IsGenericParameterEP20Il2CppReflectionType
_u:__ZN7mecanim5human14HumanPoseClearERNS0_9HumanPoseE
PKh:_Nullable_1_get_Value_m1801617894_gshared
bzf:_SymmetricTransform_TransformFinalBlock_m4059448527
vge:_Convert_ToUInt16_m3216249716
s1a:__ZN18StreamedBinaryReadILb0EE19TransferSTLStyleMapINSt3__23mapIN9ShaderLab16FastPropertyNameE10ColorRGBAfNS2_4lessIS5_EENS2_9allocatorINS2_4pairIKS5_S6_EEEEEEEEvRT_17TransferMetaFlags
Bua:__ZN13GfxDeviceGLES24DrawBufferRangesPlatformEP9GfxBufferiPK18VertexStreamSourceiPK16DrawBuffersRangeiP17VertexDeclaration17ShaderChannelMaskjb
P1h:_Enumerator_System_Collections_IEnumerator_Reset_m4269083576_gshared
UPe:_SoapServices_EncodeNs_m635167772
C$b:__ZN13RenderManager28AreCamerasUsingMotionVectorsEv
sda:__Z25InitializeLODGroupManagerPv
$Yi:_Mark_get_IsDefined_m2539660708
Tta:__ZN13GfxDeviceGLES12EndStereoEyeE15StereoscopicEye
NFd:_SByte_System_IConvertible_ToUInt64_m4151910932_AdjustorThunk
bPb:__ZNK12ImageFilters28ApplyAfterTransparentFiltersEv
Qng:_GameObject__ctor_m3707688467
VTb:__Z20CalculateLightMatrixRK15SharedLightDataP10Matrix4x4f
Xjd:__ZN11UnityEngine7Connect15AppRunningEvent12ToJsonStringER9JSONWrite
X1a:__ZN19ShaderPropertySheet5ClearEb
dLf:_RSA_Create_m4065275734
Zgg:_Array_InternalArray__Insert_TisContactPoint2D_t3390240644_m1428482637_gshared
n5f:_CultureInfo_GetCultureInfo_m630276874
BPb:__ZNK6Camera11GetPositionEv
vt:__ZN8Animator19CreatePlayableGraphEv
Sqd:_ExecuteEvents_Execute_m3952332304
Pmk:_emscripten_glClearDepth__wrapper
Mob:__ZNK16MemoryFileSystem8FilenameERK13FileEntryData
_f:_glUniform1fv
cg:_JS_FileSystem_Sync
uFa:__ZNSt3__26__treeINS_12__value_typeI21GLESRenderTargetSetupN2gl6HandleILNS3_10ObjectTypeE9EEEEENS_19__map_value_compareIS2_S7_NS_4lessIS2_EELb1EEENS_9allocatorIS7_EEE7destroyEPNS_11__tree_nodeIS7_PvEE
Nxf:_KeyPairPersistence__IsUserProtected_m438961964
qya:__ZN4crnd11crnd_deleteINS_13prefix_coding14decoder_tablesEEEvPT_
K6e:_Enumerator_System_Collections_IDictionaryEnumerator_get_Value_m512771145_AdjustorThunk
lTf:_String_Replace_m1273907647
EQe:_RealProxy_InternalGetProxyType_m2154819545
wEa:__ZN4gles15BlitFramebufferERNS_23BlitFramebufferDrawQuadER9GfxDeviceii9TextureIDiiiiiiii
hZd:_NumberFormatter_NumberToString_m827252518
ag:__emscripten_sample_gamepad_data
W3b:__Z22DelayedDestroyCallbackP6ObjectPv
eWi:_PKCS12_set_Password_m4088935795
_4g:__Z96RuntimeInvoker_Void_t1185182177_SByte_t1669577662_ByteU5BU5DU26_t4057885439_Int32U26_t1369213839PFvvEPK10MethodInfoPvPS4_
U$g:_Enumerator_System_Collections_IEnumerator_get_Current_m1643543708_AdjustorThunk
KTc:__ZN15b2ContactFilter13ShouldCollideEP9b2FixtureS1_
pjg:_Camera_get_nearClipPlane_m837839537
C0:__Z34scripting_class_get_declaring_type17ScriptingClassPtr
pkd:__ZN11UnityEngine7Connect20BasePersistentValues13RestoreValuesER8JSONRead
Keb:__ZN11TimeManagerD0Ev
S3i:_GUIUtility_Internal_GetGUIDepth_m1169824684
YL:__ZN12AudioManager33GetAudioEffectInternalDefinitionsEv
p4a:__ZN9Texture2D16DeleteGfxTextureEv
Gnb:__ZN20LocalFileSystemPosix4OpenER13FileEntryData14FilePermission16FileAutoBehavior
$Hg:_TimeSpan_Subtract_m1264203589
Sgf:_InputField_GetUnclampedCharacterLineFromPosition_m2611553547
lHj:__ZN6il2cpp2gc19AppendOnlyGCHashMapIPK10Il2CppTypeP20Il2CppReflectionTypeNS_8metadata14Il2CppTypeHashENS7_26Il2CppTypeEqualityComparerEEC2Ev
tje:_CustomAttributeData_GetCustomAttributes_m2141595938
luj:__ZN15dense_hashtableINSt3__24pairIK10KeyWrapperIN6il2cpp5utils13dynamic_arrayIPK10Il2CppTypeLj4EEEEPFvvEEESA_NS3_8metadata19Il2CppSignatureHashEN14dense_hash_mapISA_SD_SG_NSA_14EqualsComparerINSF_22Il2CppSignatureCompareEEENS0_9allocatorISE_EEE9SelectKeyESK_SM_ED2Ev
cad:__ZN2UI6Canvas12AddToManagerEv
Oxd:_ColorTweenCallback__ctor_m2236520273
NXd:_MonoType_GetMethodsByName_m2005909471
wYc:_cf2_hint_isTop
D_b:__ZN23ManagedAttributeManager21GetRequiredComponentsE17ScriptingClassPtr
gUi:_TlsCipherSuite_ComputeServerRecordMAC_m3941098609
Pxd:_ColorTween_AddOnChangedCallback_m3959760640_AdjustorThunk
pQe:_RemotingServices_Unmarshal_m3744595373
gCh:_ReadOnlyCollection_1_System_Collections_IList_get_Item_m2174806213_gshared
x0b:__Z23InitializeStdConvertersv
XTb:__ZN19ShaderPropertySheet17UpdateTextureInfoEiRK23FastTexturePropertyNamePK10TextureRef
QOf:_SecurityElement_IsValidAttributeName_m713904709
z$c:_ps_unicodes_init
enj:_Analytics_CustomEvent_m692224174
rUd:_StreamWriter_Write_m2487601391
dbc:__ZN13ProduceHelperI14PlayerSettingsLb0EE7ProduceE10MemLabelId18ObjectCreationMode
MMb:__ZZ23InitPlayerLoopCallbacksvEN38PreUpdateCheckTexFieldInputRegistrator7ForwardEv
Eya:__ZN4crnd12crn_unpacker22decode_color_endpointsEv
eSj:__ZNK10KeyWrapperINSt3__24pairIPKcS3_EEE14EqualsComparerI26NamespaceAndNamePairEqualsEclERKS5_SA_
rqe:_FieldInfo_get_IsLiteral_m534699794
Sda:__Z34CleanupIntermediateRendererManagerPv
NYi:_X509Stores_Open_m1553467177
t$f:_Decimal_op_Multiply_m2389849621
gsd:_PointerEventData_get_eligibleForClick_m3788762543
rZi:_MatchCollection_get_Count_m1667454419
t4b:__Z15tessMeshNewMeshP9TESSalloc
wFg:_Monitor_Pulse_m82725344
$4f:_CultureInfo_get_NumberFormat_m1244033732
bSd:_FileStream_Dispose_m2599766137
Qjg:_Camera_FireOnPreCull_m2869588437
rh:_JS_WebRequest_GetResponseHeaders
HHb:__ZNSt3__26__treeINS_12__value_typeI26SerializedObjectIdentifieriEENS_19__map_value_compareIS2_S3_NS_4lessIS2_EELb1EEENS_9allocatorIS3_EEE7destroyEPNS_11__tree_nodeIS3_PvEE
h$c:_otv_Script_validate
T5b:__ZN9Scripting18RaiseNullExceptionEPKcz
iga:__ZN13RuntimeStaticI13RendererSceneLb0EE16StaticInitializeEPv
jUc:__ZZN10Collider2D15InitializeClassEvEN28FunctorImpl_100kSetPolygon2D4CallEPviR11MessageData
Ch:_glCreateProgram
YGj:__ZN6il2cpp2vm10Reflection7IsFieldEP12Il2CppObject
bnf:_Scrollbar_set_numberOfSteps_m3603299569
TSa:__ZN24GenerateTypeTreeTransfer32TransferSTLStyleArrayWithElementI17SortingLayerEntryEEvRT_17TransferMetaFlags
jik:_glUniformMatrix3fv__wrapper
AVa:__ZN5Light9SetupHaloEv
Uef:_Text_set_horizontalOverflow_m2473787109
MAb:__Z18Transfer_BlittableI18StreamedBinaryReadILb1EELb1E12PropertyNameEvRK29SerializationCommandArgumentsR31RuntimeSerializationCommandInfo
THj:__ZN15dense_hashtableINSt3__24pairIK10KeyWrapperIPK22Il2CppGenericParameterEPK24MonoGenericParameterInfoEES6_N6il2cpp5utils11PointerHashIS4_EEN14dense_hash_mapIS6_SA_SF_NS6_14EqualsComparerINS0_8equal_toIS5_EEEENS0_9allocatorISB_EEE9SelectKeyESK_SM_EC2ERKSP_j
r3j:_GC_general_register_disappearing_link
Iaa:__ZN23TransformChangeDispatch12CleanupClassEPv
Fhc:__ZN8UserList11SendMessageERK17MessageIdentifier
Qed:__Z33Canvas_Get_Custom_PropScaleFactorP12Il2CppObject
YC:__ZNK26AnimatorControllerPlayable21GetStateMachineMemoryEi
QXa:__ZN17CollisionMeshData20VertexDataHasChangedEv
LZi:_PatternCompiler_Emit_m604664654
Q8f:_Array_InternalArray__ICollection_Remove_TisKeyValuePair_2_t3842366416_m278128148_gshared
CVg:_EqualityComparer_1_System_Collections_IEqualityComparer_GetHashCode_m3423304513_gshared
zTa:__ZNK6Camera16GetTargetTextureEv
BRi:_Component_GetComponentsInChildren_TisRuntimeObject_m35549932_gshared
Hnd:__ZNK20UnityWebRequestProtoI24UnityWebRequestTransport16AtomicRefCounter14RedirectHelper14ResponseHelper15DownloadHandler13UploadHandler12HeaderHelper14AsyncOperationE17GetUploadProgressEv
JSf:_String_CompareTo_m3030934538
msb:__Z35Transfer_Blittable_SingleValueFieldI14SafeBinaryReadyEvRT_R17GeneralMonoObjectRK23StaticTransferFieldInfo
SZa:__ZN8Playable20ClearInputConnectionEi
DQb:__ZN13BatchRenderer12EndLoopFlushEv
x_d:_X509CertificateEnumerator_System_Collections_IEnumerator_Reset_m2928805663
Ffc:__ZNK6Sprite11GetInnerUVsE20SpriteRenderDataMode
ED:__ZN11UnityEngine9Animation28DestroyAvatarBindingConstantEPNS0_21AvatarBindingConstantERN7mecanim6memory9AllocatorE
yHf:_X509ChainElementEnumerator_System_Collections_IEnumerator_get_Current_m1913555061
ZQf:_Single_System_IConvertible_ToDouble_m1584722292_AdjustorThunk
uxg:_DataUtility_INTERNAL_CALL_GetPadding_m650254139
o9b:__ZN16MessageForwarder23RegisterMessageCallbackEiPFvPviR11MessageDataEPKN5Unity4TypeE
mze:_MD2Managed_HashFinal_m808964912
xYf:_DateTime_op_Equality_m1022058599
uXa:__ZN4Mesh30AcquireSharedMeshRenderingDataEv
mi:_gmtime
ti:_emscripten_glUniform3i
nva:__ZNK7ApiGLES10GetContextEv
Jqb:__Z18Transfer_BlittableI14SafeBinaryReadLb1E5RectTIfEEvRK29SerializationCommandArgumentsR31RuntimeSerializationCommandInfo
AJc:__Z7b2Alloci
S6a:__ZN15TextureSettings14SetAnisoLimitsEii
Lg:_glGetFramebufferAttachmentParameteriv
lxb:__Z19TransferField_ArrayI24GenerateTypeTreeTransfer27Converter_SimpleNativeClassI10RectOffsetEEvRK23StaticTransferFieldInfoR31RuntimeSerializationCommandInfoRT0_
mMg:_UInt64_System_IConvertible_ToUInt32_m2784653358_AdjustorThunk
nLd:_Int16_TryParse_m1675418240
xBa:__ZN6prcoreL17RemapGenericFloatI18TexFormatARGBFloat15TexFormatRGHalfEEvPKNS_9InnerInfoE
hKf:_Interval_Merge_m3454211016_AdjustorThunk
X3i:_GUILayout_Height_m3349769634
Epb:__ZNSt3__26vectorI4PPtrI10MonoScriptE13stl_allocatorIS3_L18MemLabelIdentifier78ELi16EEE8__appendEj
ijf:_LayoutGroup_get_flexibleWidth_m2787597997
Mog:_LayerMask_op_Implicit_m3296792737
qbc:__ZL22PrepareMeshRenderNodesILb1EEvR35RenderNodeQueuePrepareThreadContext
hob:__ZN20LocalFileSystemPosix5TouchER13FileEntryData
EEc:__ZN9JSONWrite8TransferI13dynamic_arrayItLj2EEEEvRT_PKc17TransferMetaFlags
Ki:_emscripten_glDrawElements
SLd:_NumberFormatter_AppendDecimalString_m10636623
_ig:_Bounds_get_max_m3756577669
Xtd:_StandaloneInputModule_ProcessMouseEvent_m2923582521
ybi:__ZL59ParameterBuilder_t1137139675_CustomAttributesCacheGeneratorP21CustomAttributesCache
Ejk:_glVertexAttrib4fv__wrapper
dU:__ZN11UnityEngine15CloudWebService23WebRequestUploadHandlerD2Ev
USc:__ZN20SpriteTilingProperty8TransferI14SafeBinaryReadEEvRT_
ZA:__ZN9BlobWriteD2Ev
P5b:__Z33GetMinimumTextureMipSizeForFormat13TextureFormat
Wqb:__ZL26Transfer_SimpleNativeClassI14SafeBinaryRead8GradientLb0EEvRK29SerializationCommandArgumentsR31RuntimeSerializationCommandInfo
u4g:__Z68RuntimeInvoker_Boolean_t97287965_Int32_t2950945753_SByte_t1669577662PFvvEPK10MethodInfoPvPS4_
Yfg:_Array_InternalArray__ICollection_CopyTo_TisRaycastHit2D_t2279581989_m3542049333_gshared
nie:_Assembly_GetExecutingAssembly_m4021024968
lgf:_InputField_ClampPos_m2625258136
csj:__ZNK15dense_hashtableINSt3__24pairIK10KeyWrapperIPKcEP11Il2CppClassEES5_N6il2cpp5utils11StringUtils12StringHasherIS4_EEN14dense_hash_mapIS5_S8_SE_NS5_14EqualsComparerINSB_13VmStringUtils21CaseSensitiveComparerEEENS0_9allocatorIS9_EEE9SelectKeyESJ_SL_E10test_emptyEj
SRe:_MessageFormatter_ReadMethodResponse_m1946725361
dWi:_PKCS12__ctor_m1587304645
w_a:__ZN13RenderTexture23VirtualRedirectTransferER18StreamedBinaryReadILb0EE
C0c:_UNITY_tt_face_lookup_table
Lpd:_BaseRaycaster_ToString_m2535186737
jBc:__ZN5Unity9rapidjson13GenericReaderINS0_4UTF8IcEES3_13JSONAllocatorE9ParseHex4INS0_25GenericInsituStringStreamIS3_EEEEjRT_
pGa:__Z17ComputeMipmapSizeiii14GraphicsFormat
aYc:_cf2_stack_pushFixed
Bzd:_Dropdown_OnCancel_m1495594239
uLj:__ZNK15dense_hashtableINSt3__24pairIK10KeyWrapperINS1_IP11Il2CppClassjEEES4_EES6_N6il2cpp8metadata14ArrayClassHashEN14dense_hash_mapIS6_S4_SB_NS6_14EqualsComparerINSA_17ArrayClassCompareEEENS0_9allocatorIS8_EEE9SelectKeyESF_SH_E3endEv
Iae:_CollectionBase_OnValidate_m1606907366
grg:_MonoBehaviour_StopCoroutineViaEnumerator_Auto_m3883784228
n4c:_TT_Get_MM_Blend
XZ:__Z16realloc_internalPvjj10MemLabelId15AllocateOptionsPKci
elh:__Z78RuntimeInvoker_Void_t1185182177_RuntimeObject_RuntimeObject_Single_t1397266774PFvvEPK10MethodInfoPvPS4_
hed:__Z50CanvasRenderer_CUSTOM_CreateUIVertexStreamInternalP12Il2CppObjectS0_S0_S0_S0_S0_S0_S0_S0_S0_
wfa:__ZN14PlayableOutput15PrepareTraverseERK9FrameData
oFb:__ZL19RequireCorLibMethodPKcS0_S0_
a3:__ZNK5Unity9Component22GetTypeVirtualInternalEv
AWc:_UNITY_FT_Outline_Get_CBox
lm:_emscripten_get_fullscreen_status
kCa:__ZN6prcoreL26RemapGenericIntegerToFloatI17TexFormatARGB888817TexFormatRGBFloatEEvPKNS_9InnerInfoE
MNe:_MethodDictionary_SetMethodProperty_m3032369066
$Aj:__ZN6il2cpp2vm14TypeNameParser26ParseTypeArgumentsOptionalERi
qYb:__ZN15LODGroupManager27GarbageCollectCameraLODDataEv
zkh:__Z139RuntimeInvoker_Void_t1185182177_RuntimeObject_Color32_t2600501292_Int32_t2950945753_Int32_t2950945753_Single_t1397266774_Single_t1397266774PFvvEPK10MethodInfoPvPS4_
G$b:__ZN13ScreenManagerC2Ev
HYg:_Enumerator_System_Collections_IEnumerator_Reset_m3289381690_gshared
ex:__ZN7mecanim20ValueArrayBlendBeginILb1EEEvRNS_14ValueArrayMaskE
Zxc:__ZN12GUIClipState20CalculateMouseValuesER10InputEvent
ywb:__Z18Transfer_BlittableI24GenerateTypeTreeTransferLb0E12PropertyNameEvRK29SerializationCommandArgumentsR31RuntimeSerializationCommandInfo
jva:__ZN7ApiGLES4InitERK14GfxContextGLESR16GfxDeviceLevelGL
MIe:_RemotingServices_CreateClientProxy_m809906894
Sgd:__Z31CustomEventData_CUSTOM_AddSByteP12Il2CppObjectP12Il2CppStringa
g6:__ZNK11LightProbes14LightProbeData33GetLightProbeInterpolationWeightsERK8Vector3fRiR8Vector4fRf
uTd:_Stream_Dispose_m2589290611
uPe:_ReturnMessage_get_LogicalCallContext_m2352570297
Rga:__ZN11TypeManager36FatalErrorOnPersistentTypeIDConflictEiPKc
fW:__ZN21UnityDefaultAllocatorI17LowLevelAllocatorED0Ev
dY:__ZN8Renderer15SetIsRenderableEb
U4h:__ZL54IEnumerator_t1853284238_CustomAttributesCacheGeneratorP21CustomAttributesCache
yCa:__Z14DecodeBC7BlockP9HDRColorAPKh
Ivf:_BigInteger_op_RightShift_m2934036419
$ac:__ZNK24RendererAnimationBinding12GetPPtrValueERKN11UnityEngine9Animation10BoundCurveE
Mtc:_UNITY_png_set_IHDR
ahh:__Z95RuntimeInvoker_Boolean_t97287965_RuntimeObject_TextGenerationSettings_t1351628751_RuntimeObjectPFvvEPK10MethodInfoPvPS4_
tFf:_X509Certificate2_Find_m2734168143
h4d:_Boolean_System_IConvertible_ToSByte_m806999
s4d:_Boolean_System_IConvertible_ToUInt32_m2723177447_AdjustorThunk
Trh:__Z84RuntimeInvoker_Boolean_t97287965_RaycastResult_t3360306849_RaycastResult_t3360306849PFvvEPK10MethodInfoPvPS4_
z3j:_GC_new_proc_inner
sc:invoke_fiiffi
Gsf:_MSCompatUnicodeTable_BuildTailoringTables_m1316979344
Zpb:__Z35Transfer_Blittable_FixedBufferFieldI14SafeBinaryReadiEvRK29SerializationCommandArgumentsR31RuntimeSerializationCommandInfo
gPb:__ZNK25CameraStackRenderingState21IsRenderingLastCameraEv
xUg:_EqualityComparer_1_System_Collections_IEqualityComparer_Equals_m1538289377_gshared
Kza:__ZL24stbir__filter_catmullromff
jSc:__ZN10ClipperLib7Clipper8AddOutPtEPNS_5TEdgeERKNS_8IntPointE
X6c:__ZN20TextRenderingPrivate15GetFormatStringER11UTF16StringR13dynamic_arrayINS_16TextFormatChangeELj4EE
izj:__ZN6il2cpp6icalls8mscorlib6SystemL16CheckMemberMatchI9EventInfoNS_5utils10functional6FilterINSt3__212basic_stringIcNS8_11char_traitsIcEENS8_9allocatorIcEEEENS5_13VmStringUtils21CaseSensitiveComparerEEEEEbPKT_PK11Il2CppClassSN_iRKT0_
Llh:__Z83RuntimeInvoker_Boolean_t97287965_SpriteStateU26_t2382775785_SpriteState_t1362986479PFvvEPK10MethodInfoPvPS4_
Ldg:_Array_LastIndexOf_TisRuntimeObject_m1677937501_gshared
z_b:__Z23ValidateScriptComponentP10MonoScriptPN4core12basic_stringIcNS1_20StringStorageDefaultIcEEEE
kJi:__ZL68Selectable_t3250028441_CustomAttributesCacheGenerator_m_InteractableP21CustomAttributesCache
Vu:__ZN7mecanim9animation12GetHumanPoseIfEEvRKNS0_18ClipMuscleConstantEPKT_RNS_5human9HumanPoseE
W8a:__ZNSt3__215__inplace_mergeIRNS_4lessI4PPtrI11SpriteAtlasEEENS_11__wrap_iterIPS4_EEEEvT0_SA_SA_T_NS_15iterator_traitsISA_E15difference_typeESE_PNSD_10value_typeEi
k:ABORT
sD:__ZN11UnityEngine9Animation30CreateAvatarBindingConstantOptER9TransformPKN7mecanim9animation14AvatarConstantERNS3_6memory9AllocatorE
pva:__ZN26SinglePassStereoSupportExt27InitSinglePassStereoSupportEP21ISinglePassStereoImplP9GfxDevice
Xrd:_PointerEventData_set_button_m2912797404
YV:__ZNSt3__23mapIN19CloudServiceHandler11ServiceTypeEPS1_NS_4lessIS2_EE13stl_allocatorINS_4pairIKS2_S3_EEL18MemLabelIdentifier88ELi16EEEixERS8_
F$c:_ft_get_adobe_glyph_index
dSc:__ZN10ClipperLib15GetLowermostRecEPNS_6OutRecES1_
fOe:_MethodCall_get_GenericArguments_m1010093584
M5j:__ZNSt3__26__treeINS_12__value_typeINS_12basic_stringIcNS_11char_traitsIcEENS_9allocatorIcEEEEPFvvEEENS_19__map_value_compareIS7_SA_NS_4lessIS7_EELb1EEENS5_ISA_EEE25__emplace_unique_key_argsIS7_JRKNS_21piecewise_construct_tENS_5tupleIJOS7_EEENSL_IJEEEEEENS_4pairINS_15__tree_iteratorISA_PNS_11__tree_nodeISA_PvEEiEEbEERKT_DpOT0_
wpc:__Z47Register_UnityEngine_Texture_Internal_GetHeightv
GRf:_Single_ToString_m3947131094_AdjustorThunk
SGb:__Z25scripting_field_get_flags17ScriptingFieldPtr
Lsf:_MSCompatUnicodeTable_Level3_m1870873670
JFf:_X509ChainStatus_GetInformation_m245493206
Wzg:_Vector3_Lerp_m407887542
Vyh:_Collection_1__ctor_m2277581063_gshared
qZi:_MatchCollection__ctor_m4138850022
QGc:__ZN8JSONRead8TransferIyEEvRT_PKc17TransferMetaFlagsb
Dqb:__Z18Transfer_BlittableI14SafeBinaryReadLb0EtEvRK29SerializationCommandArgumentsR31RuntimeSerializationCommandInfo
Rwj:__ZN6il2cpp2vm13MetadataCache24InitializeMethodMetadataEj
YW:__ZNK20DynamicHeapAllocatorI17LowLevelAllocatorE8ContainsEPKv
tId:_HMAC_HashFinal_m1921180827
PXf:_DateTime__ParseString_m2913931606
mQj:__ZN6il2cpp2vm14PlatformInvoke36MarshalCppStringToCSharpStringResultEPKc
ZVb:__ZN8Material23GetStencilWriteMaterialEv
UEa:__Z12GetBlockSize14GraphicsFormat
W7f:_Array_InternalArray__ICollection_Contains_TisIntPtr_t_m272531112_gshared
KQe:_RemotingProxy_get_TypeName_m4085898624
Sme:_GenericTypeParameterBuilder_not_supported_m3358960901
SSa:__ZN10TagManager8TransferI24GenerateTypeTreeTransferEEvRT_
wuh:_Collection_1_ConvertItem_m169929357_gshared
pQd:_MonoIO_GetCurrentDirectory_m762333289
igc:__Z35AllocExtractMeshComponentFromScriptRK4Mesh30InternalScriptingShaderChannel34InternalScriptingVertexChannelTypei
fx:__ZN7mecanim12SetValueMaskILb1EEEvPNS_14ValueArrayMaskEb
xPg:_Dictionary_2_ContainsKey_m415531417_gshared
FSa:__ZN10TagManager23VirtualRedirectTransferER24GenerateTypeTreeTransfer
Dgg:_Array_InternalArray__Insert_TisCustomAttributeNamedArgument_t287865710_m3526512389_gshared
sWg:_EqualityComparer_1__cctor_m818408565_gshared
Eza:__ZL23stbir__filter_trapezoidff
FQ:__Z44Register_UnityEngine_AudioClip_get_ambisonicv
UKg:_UInt32_System_IConvertible_ToBoolean_m1763673183
nZb:__ZN23ScriptableRenderContextD2Ev
b9h:__ZL52ArrayList_t2718874744_CustomAttributesCacheGeneratorP21CustomAttributesCache
KFd:_SByte_System_IConvertible_ToUInt32_m4275534457
irg:_MonoBehaviour_StopCoroutine_Auto_m820288890
tEj:__ZN15dense_hashtableINSt3__24pairIK10KeyWrapperINS1_IPK10MethodInfoP11Il2CppClassEEEjEES9_17ReflectionMapHashIS8_EN14dense_hash_mapIS9_jSD_NS9_14EqualsComparerINS0_8equal_toIS8_EEEENS0_9allocatorISB_EEE9SelectKeyESI_SK_E15insert_noresizeERKSB_
v9c:__Z32TextGenerator_CUSTOM_Dispose_cppP12Il2CppObject
LNj:__ZN6il2cpp6icalls8mscorlib6System19ExtractWidenedValueE14Il2CppTypeEnumPv
rMf:_SHA256Managed_HashFinal_m2914312286
rLb:__ZN12GPUFencePoolC2Ev
f3j:_GC_invoke_finalizers
vTf:_String_Format_m2556382932
Rmj:__ZL14adjustScale128PyS_i
QAi:__ZL59EventType_t3528516131_CustomAttributesCacheGenerator_ignoreP21CustomAttributesCache
Qqb:__Z18Transfer_BlittableI14SafeBinaryReadLb0E8BitFieldEvRK29SerializationCommandArgumentsR31RuntimeSerializationCommandInfo
RSi:_Array_InternalArray__get_Item_TisTimeSpan_t881159249_m1885583191_gshared
F6f:_Guid__ctor_m3421080095
k6:__ZNK10GameObject25QueryComponentByExactTypeEPKN5Unity4TypeE
sTe:_U3CGetEnumeratorU3Ec__Iterator0_System_Collections_Generic_IEnumeratorU3CTU3E_get_Current_m52354244_gshared
H4:__ZNK9ShaderLab22ShaderStencilStateDesc17ToGfxStencilStateEPK19ShaderPropertySheetS3_RK14GfxRasterStateR15GfxStencilState
Jyh:_Collection_1_Remove_m2372638279_gshared
Nnf:_U3CClickRepeatU3Ec__Iterator0_MoveNext_m2800364313
F1c:_tt_cmap0_char_next
zCa:__Z15DecodeBC6HBlockP9HDRColorAPKh
qjg:_Camera_get_farClipPlane_m538536689
e7b:__Z13RegisterClassI10GUIElementEvv
qHd:_DSA_Create_m1220983153
aA:__ZN7mecanim9animation32DeallocateAvatarOuputForBindingsEPNS0_12AvatarOutputERNS_6memory9AllocatorE
m3j:_GC_malloc_uncollectable
vZd:_Array_Clone_m2672907798
Lob:__ZNK16MemoryFileSystem6ParentERK13FileEntryDataRN4core12basic_stringIcNS3_20StringStorageDefaultIcEEEE
PUd:_SynchronizedWriter_Write_m1297715977
TAd:_Graphic_get_rectTransform_m1167152468
uda:__ZN15LODGroupManagerD2Ev
cSe:_ObjectReader_ReadRefTypeObjectInstance_m3311150386
UHc:__ZN8JSONRead21TransferSTLStyleArrayI13dynamic_arrayIN4math12int2_storageELj4EEEEvRT_17TransferMetaFlags
ajh:__Z115RuntimeInvoker_Boolean_t97287965_RuntimeObject_RuntimeObject_Single_t1397266774_SByte_t1669577662_Int32_t2950945753PFvvEPK10MethodInfoPvPS4_
_uf:_BigInteger_op_Multiply_m3801644593
Jog:_DefaultValueAttribute_Equals_m443523471
QPa:__ZN12IFileAdapter9SetLengthER13FileEntryDatay
Loc:__Z39SortingLayer_CUSTOM_GetLayerValueFromIDi
ne:_Mix_PlayMusic
gWf:_DateTime_System_IConvertible_ToSByte_m4130251280
flg:_CullingGroup_SendEvents_m2491312335
AZc:_cff_cmap_encoding_init
fq:__ZN7Hash1288TransferI19StreamedBinaryWriteILb0EEEEvRT_
zhk:___cxa_pure_virtual__wrapper
TMd:_Int32_System_IConvertible_ToSByte_m3133688512_AdjustorThunk
Dwf:_BlockProcessor_Finalize_m3954108481
moc:__Z57Register_UnityEngine_RectTransform_INTERNAL_set_sizeDeltav
rih:__Z57RuntimeInvoker_Void_t1185182177_RaycastResult_t3360306849PFvvEPK10MethodInfoPvPS4_
bjg:_Bounds_op_Equality_m3322991400
Otd:_StandaloneInputModule_Process_m309156323
PDj:__ZNK15dense_hashtableINSt3__24pairIK10KeyWrapperIPK10Il2CppTypeEjEES6_N6il2cpp8metadata14Il2CppTypeHashEN14dense_hash_mapIS6_jSB_NS6_14EqualsComparerINSA_26Il2CppTypeEqualityComparerEEENS0_9allocatorIS8_EEE9SelectKeyESF_SH_E12test_deletedEj
hLa:__ZN10SpookyHash7Hash128EPKvjPyS2_
JXb:__ZL60CombineDirectionalShadowCasterCullingIndexListsAndDestroyJobP20ShadowCullingJobData
$ae:_Hashtable__ctor_m3890751112
Czg:_Vector2_ToString_m1205609053_AdjustorThunk
K_c:_otv_MarkBasePos_validate
qla:__ZN9ShaderLab18SerializedPropertyC2ERKS0_
FWc:_cff_driver_init
Ycb:__ZN14SpriteRenderer10SmartResetEv
sGg:_ThreadPool_QueueUserWorkItem_m1526970260
Dt:__ZN17AnimationPlayable23ConnectNoTopologyChangeEPS_S0_ii
L9b:__ZN16ReflectionProbes20DidChangeActiveSceneEP10UnitySceneS1_
sTf:_String_ToUpperInvariant_m2531236323
M7a:__ZN16SpriteRenderData8TransferI14SafeBinaryReadEEvRT_
nhk:_emscripten_glVertexAttrib3f__wrapper
eHd:_DESTransform_GetStrongKey_m1464830895
Wwc:_access_virt_barray
WJd:_RijndaelTransform_Encrypt192_m3191066202
$5e:_Enumerator_Reset_m1314900927_gshared
eob:__ZN20LocalFileSystemPosix4CopyER13FileEntryDataS1_
qtj:__ZNK15dense_hashtableI10KeyWrapperIPK19Il2CppGenericMethodES4_N6il2cpp8metadata23Il2CppGenericMethodHashEN14dense_hash_setIS4_S7_NS4_14EqualsComparerINS6_26Il2CppGenericMethodCompareEEENSt3__29allocatorIS4_EEE8IdentityESB_SE_E3endEv
TVb:__ZL31SetRenderStateForStencilMarkingR9GfxDeviceR17ShaderPassContextjj
tQa:__ZN20ArchiveStorageReader20FillChunkCachedBlockEPNS_11CachedBlockE
vPg:_Dictionary_2_Add_m653869716_gshared
zTd:_StreamAsyncResult__ctor_m3118856368
yXf:_DateTime_Equals_m611432332_AdjustorThunk
fN:__ZN10AudioMixer16ResumeProcessingEv
