Hc:_glClearStencil
aKg:_UInt16_System_IConvertible_ToChar_m2096055221_AdjustorThunk
N9f:_Array_TrueForAll_TisRuntimeObject_m1084992726_gshared
G$h:_List_1_Contains_m2043664690_gshared
oYj:__ZN6il2cpp2vm5Array13GetByteLengthEP11Il2CppArray
rNi:_Array_InternalArray__set_Item_TisDateTime_t3738529785_m1331437427_gshared
c6i:_KeyBuilder_get_Rng_m3373220441
zmd:__ZN15DownloadHandler7OnAbortEv
tTa:__Z30GetIntermediateRendererManagerv
EKh:_U3CCreateWhereIteratorU3Ec__Iterator1D_1_System_Collections_Generic_IEnumeratorU3CTSourceU3E_get_Current_m1909387290_gshared
Vya:__Z21SourceMipLevelForBlitiiii
VXa:__ZN31CanvasBatchIntermediateRenderer15AddAsRenderNodeER15RenderNodeQueueRK20DeprecatedSourceData
pHg:_TimeSpan_get_Hours_m550761902
OCi:__ZL95CanvasRenderer_t2598313366_CustomAttributesCacheGenerator_CanvasRenderer_SetMaterial_m824577244P21CustomAttributesCache
hBi:__ZL72GUISkin_t1244372282_CustomAttributesCacheGenerator_m_verticalSliderThumbP21CustomAttributesCache
hIf:_Capture_get_Index_m745081289
pui:__ZL63PlayableOutputHandle_t4208053793_CustomAttributesCacheGeneratorP21CustomAttributesCache
UVd:_UnmanagedMemoryStream_Write_m930787521
kid:__ZN11UnityEngine7Connect14AppUpdateEventD0Ev
e7h:__ZL66RuntimeArray_CustomAttributesCacheGenerator_Array_Sort_m3287581440P21CustomAttributesCache
r7i:_AnalyticsEventTracker_SendEvent_m1365958832
pX:__ZdlPv
Vr:__ZN11UnityEngine9Animation28GenericAnimationBindingCacheD2Ev
QEg:_UTF8Encoding_GetHashCode_m641510078
LYi:_X509Store_LoadCrl_m1881903843
SPi:_Array_Sort_TisUICharInfo_t75501106_TisUICharInfo_t75501106_m722747892_gshared
X9d:_CaseInsensitiveComparer__ctor_m2101975011
w4g:__Z67RuntimeInvoker_Byte_t1134296376_Int32_t2950945753_Int32_t2950945753PFvvEPK10MethodInfoPvPS4_
T7a:__ZNSt3__26vectorI13dynamic_arrayI8Vector2fLj4EENS_9allocatorIS3_EEEC2INS_11__wrap_iterIPS3_EEEET_SB_RKS5_PNS_9enable_ifIXaasr21__is_forward_iteratorISB_EE5valuesr16is_constructibleIS3_NS_15iterator_traitsISB_E9referenceEEE5valueEvE4typeE
$2g:__Z53RuntimeInvoker_UInt32_t2560061978_Decimal_t2948259380PFvvEPK10MethodInfoPvPS4_
g_b:__Z18RestoreRenderStateR20CameraRenderOldStateR17ShaderPassContext
CAb:__Z18Transfer_BlittableI18StreamedBinaryReadILb1EELb1E5RectTIfEEvRK29SerializationCommandArgumentsR31RuntimeSerializationCommandInfo
uwb:__Z18Transfer_BlittableI24GenerateTypeTreeTransferLb0E11ColorRGBA32EvRK29SerializationCommandArgumentsR31RuntimeSerializationCommandInfo
nFb:__Z25scripting_class_from_name17ScriptingImagePtrPKcS1_
Mcg:_Array_InternalArray__IndexOf_TisKeyValuePair_2_t3699644050_m1021241249_gshared
SIj:__ZN14dense_hash_mapI10KeyWrapperINSt3__24pairIPK12PropertyInfoP11Il2CppClassEEEj17ReflectionMapHashIS8_ENS9_14EqualsComparerINS1_8equal_toIS8_EEEENS1_9allocatorINS2_IKS9_jEEEEE15set_deleted_keyERSH_
OGb:__Z29scripting_class_enum_basetype17ScriptingClassPtr
F$h:_List_1_Clear_m3097985365_gshared
sY:__ZNK12BaseRenderer18GetRenderNodeCountEv
hMc:__ZN16PhysicsManager2D7RaycastERK3RayfiR12RaycastHit2D
ipe:_PropertyBuilder_get_CanWrite_m2657562188
n3e:_InternalEnumerator_1_get_Current_m1477715453_gshared
J_g:_Enumerator__ctor_m2827156589_AdjustorThunk
Rnb:__ZNK20LocalFileSystemPosix6ParentERK13FileEntryDataRN4core12basic_stringIcNS3_20StringStorageDefaultIcEEEE
Evg:_RectTransform_GetWorldCorners_m3553547973
vvh:_Collection_1_System_Collections_IList_Remove_m1476284619_gshared
usf:_ContractionComparer__ctor_m3439667810
WXd:_MonoType_IsPrimitiveImpl_m2401722705
ULf:_SHA1CryptoServiceProvider__ctor_m4195188793
Wkg:_CSSMeasureFunc_BeginInvoke_m3802154595
Czd:_Dropdown_Hide_m504034854
FMa:__ZN17PersistentManager22CheckInstanceIDsLoadedEPii
Q4a:__ZN9Texture2D25CreateScaledAndPaddedDataEPP17SharedTextureDataS2_
Qzg:_Vector2_get_up_m2647420593
zwa:__ZN7ApiGLES17CopyBufferSubDataEjjlll
Pfg:_Array_InternalArray__ICollection_CopyTo_TisUInt64_t4134040092_m691431926_gshared
$uh:__ZN23InterfaceActionInvoker2Ii22OrderBlock_t1585977831E6InvokeEjP11Il2CppClassP12Il2CppObjectiS0_
HCf:_IPAddress_ToString_m1181734207
XCg:_StringBuilder_Append_m1965104174
OAc:__ZN5Unity9rapidjson15GenericDocumentINS0_4UTF8IcEE13JSONAllocatorS4_E11ParseStreamILj1ES3_NS0_25GenericInsituStringStreamIS3_EEEERS5_RT1_
Sqj:__ZNSt3__26vectorIPK10Il2CppTypeNS_9allocatorIS3_EEE7reserveEj
vUg:_EqualityComparer_1__cctor_m3766928733_gshared
nSb:__ZN25CameraStackRenderingState20GetOrCreateBuiltinRTE24BuiltinRenderTextureTypeii17DepthBufferFormat19RenderTextureFormatj22RenderTextureReadWrite14VRTextureUsagei
QNh:_UnityAction_1_Invoke_m610765085_gshared
QO:__ZN11AudioModule26SetDefaultMicrophoneDriverEPv
jxe:_Kernel_modInverse_m652700340
l9a:__ZNK14Texture2DArray26CanReuploadDataToGfxDeviceEv
CWb:__ZN17PrePassRenderLoop14RenderBasePassEP13RenderTextureRK14LightingLayersR13dynamic_arrayI16RenderObjectDataLj4EERbR10MinMaxAABB
sRa:__ZN17GlobalGameManager23VirtualRedirectTransferER17RemapPPtrTransfer
K1c:_sfnt_stream_close
Dyc:__ZN5IMGUI18RepaintModalWindowER8GUIState
eAf:_HybridDictionary_get_IsSynchronized_m2987560362
T4:__ZNK15dense_hashtableINSt3__24pairIKN9ShaderLab7Program23ShaderKeywordSetAndHashEPKNS2_10SubProgramEEES4_NS3_24ShaderKeywordHashFunctorEN14dense_hash_mapIS4_S8_SA_NS0_8equal_toIS4_EE13stl_allocatorIS9_L18MemLabelIdentifier67ELi16EEE9SelectKeyESD_SG_E23find_position_with_hashERS5_j
l4f:_CompareInfo_Finalize_m404687489
W7a:__Z23SetSpriteMeshIndexCountP14SharedMeshDataj
TEg:_UTF8Decoder_GetChars_m1236346907
eyg:_TouchScreenKeyboard_Open_m231964201
Y$a:__ZN7Texture13SetFilterModeEi
ntg:_Quaternion_GetHashCode_m2636680144_AdjustorThunk
HKb:__ZNSt3__26vectorINS_4pairIiN17InstancingBatcher12PropertyTypeEEE13stl_allocatorIS4_L18MemLabelIdentifier1ELi16EEE21__push_back_slow_pathIKS4_EEvRT_
zzi:__ZL99AudioSource_t3935305588_CustomAttributesCacheGenerator_AudioSource_t3935305588____clip_PropertyInfoP21CustomAttributesCache
QZj:__ZN6il2cpp8metadata13GenericMethod9GetMethodEPK19Il2CppGenericMethod
Iq:__ZNSt3__26vectorIN4core12basic_stringIcNS1_20StringStorageDefaultIcEEEENS_9allocatorIS5_EEE7reserveEj
gje:_Default_SelectProperty_m1220817815
NIe:_RemotingConfiguration_IsRemotelyActivatedClientType_m4117048589
Gvg:_Transform_TransformPoint_m226827784
Mcj:_ListPool_1_Get_m738675669_gshared
sqa:__ZN13GfxDeviceGLES11SetViewportERK5RectTIiE
Yd:_emscripten_glDepthRange
UHe:_SslStreamBase_BeginNegotiateHandshake_m4180435790
v0b:__ZNSt3__26vectorINS_4pairIN4core12basic_stringIcNS2_20StringStorageDefaultIcEEEES6_EE13stl_allocatorIS7_L18MemLabelIdentifier38ELi16EEE12__move_rangeEPS7_SC_SC_
Cja:__Z14resize_trimmedINSt3__26vectorIN9ShaderLab20SerializedSubProgram12UAVParameterENS0_9allocatorIS4_EEEEEvRT_j
gBc:__ZN5Unity9rapidjson13GenericReaderINS0_4UTF8IcEES3_13JSONAllocatorE11ParseObjectILj1ENS0_25GenericInsituStringStreamIS3_EENS0_15GenericDocumentIS3_S4_S4_EEEEvRT0_RT1_
Wtd:_StandaloneInputModule_GetRawMoveVector_m2737091079
ahc:__ZN13BuildSettings34ConvertScenePathToDisplayScenePathERKN4core12basic_stringIcNS0_20StringStorageDefaultIcEEEE
hJi:__ZL62Selectable_t3250028441_CustomAttributesCacheGenerator_m_ColorsP21CustomAttributesCache
lIe:_SslStreamBase_EndWrite_m4073224031
p2:__ZNSt3__218__insertion_sort_3IRNS_6__lessI14ObjectLoadDataS2_EEPS2_EEvT0_S6_T_
Lzi:__ZL92Event_t2956885303_CustomAttributesCacheGenerator_Event_Internal_GetMousePosition_m1101229675P21CustomAttributesCache
VUh:_List_1_System_Collections_ICollection_get_SyncRoot_m1244917400_gshared
pya:__ZN4crndL20crnd_default_reallocEPvjPjbS0_
tqh:__Z54RuntimeInvoker_CustomAttributeNamedArgument_t287865710PFvvEPK10MethodInfoPvPS4_
Kbk:__ZNSt3__212basic_stringIcNS_11char_traitsIcEENS_9allocatorIcEEEC2ERKS5_
M8a:__ZN18SpriteAtlasManager19AddRequestingSpriteE4PPtrI6SpriteE
i_g:_Enumerator__ctor_m247851533_gshared
npc:__Z33Texture_CUSTOM_Internal_GetHeightP12Il2CppObject
jAi:__ZL102GUIStyle_t3956901511_CustomAttributesCacheGenerator_GUIStyle_INTERNAL_CALL_GetRectOffsetPtr_m152975056P21CustomAttributesCache
zM:__ZNK4PPtrI9AudioClipEptEv
jef:_ValueCollection_System_Collections_ICollection_get_SyncRoot_m3381653267_gshared
Pvd:_CanvasScaler_get_defaultSpriteDPI_m871626936
lZb:__ZN23ScriptableRenderContextC2Ev
qCd:_GridLayoutGroup_get_spacing_m2409263614
FTa:__ZN4PPtrI13RenderTextureE8TransferI18StreamedBinaryReadILb0EEEEvRT_
cdf:_Enumerator_MoveNext_m3051926902_gshared
FRh:_List_1_CheckIndex_m581273900_gshared
E3c:_UNITY_FT_Stream_GetChar
HAg:_WaitForSeconds_t1699091251_marshal_pinvoke
bdj:_ObjectPool_1_get_countAll_m819305395_gshared
bBb:__Z18Transfer_BlittableI18StreamedBinaryReadILb1EELb1EdEvRK29SerializationCommandArgumentsR31RuntimeSerializationCommandInfo
pXh:_List_1_ToArray_m190175978_gshared
WGb:__Z26BuildSerializationCacheFor17ScriptingClassPtrRb
Zpd:_EventSystem_get_firstSelectedGameObject_m1576206896
zEa:__ZN7ApiGLES15BlitFramebufferEN2gl6HandleILNS0_10ObjectTypeE9EEENS0_15FramebufferReadES3_S3_iiiiiiiiNS0_15FramebufferTypeE
PJj:_il2cpp_class_get_name
Hch:__Z112RuntimeInvoker_RuntimeObject_RuntimeObject_RuntimeObject_RuntimeObject_RuntimeObject_RuntimeObject_RuntimeObjectPFvvEPK10MethodInfoPvPS4_
C2e:_InternalEnumerator_1_System_Collections_IEnumerator_get_Current_m3553395619_AdjustorThunk
H9h:__ZL70AssemblyVersionCompatibility_t766556580_CustomAttributesCacheGeneratorP21CustomAttributesCache
M1d:_Array_SetValue_m3998268557
yHc:__ZN8JSONRead8TransferI8Vector4fEEvRT_PKc17TransferMetaFlagsb
Mwd:_ColorBlock_set_highlightedColor_m2089444414_AdjustorThunk
pmh:__Z59RuntimeInvoker_Boolean_t97287965_X509ChainStatus_t133602714PFvvEPK10MethodInfoPvPS4_
pvg:_RectTransform_INTERNAL_set_anchoredPosition_m939517950
FEe:_Context_EndSwitchingSecurityParameters_m4148956166
I_c:_otv_PairPos_validate
Bji:__ZL63ThreadStateException_t3003788475_CustomAttributesCacheGeneratorP21CustomAttributesCache
xw:__ZN7mecanim9animation14CopyHumanPosesEPKNS0_18AnimationNodeStateEPS1_RKNS_6bitsetILj83EEE
Yyj:__ZN6il2cpp6icalls8mscorlib6SystemL8IsStaticEPK12PropertyInfo
lIb:__Z9InitInputv
cIj:__ZN30dense_hashtable_const_iteratorINSt3__24pairIK10KeyWrapperIPK22Il2CppGenericParameterEPK24MonoGenericParameterInfoEES6_N6il2cpp5utils11PointerHashIS4_EEN14dense_hash_mapIS6_SA_SF_NS6_14EqualsComparerINS0_8equal_toIS5_EEEENS0_9allocatorISB_EEE9SelectKeyESK_SM_E30advance_past_empty_and_deletedEv
sxb:__Z29Transfer_Blittable_ArrayFieldI24GenerateTypeTreeTransfer11ColorRGBA32EvRT_R9ArrayInfoRK23StaticTransferFieldInfo
nEj:__ZN6il2cpp2gc19AppendOnlyGCHashMapINSt3__24pairIPK10MethodInfoP11Il2CppClassEEP22Il2CppReflectionMethod17ReflectionMapHashIS9_ENS2_8equal_toIS9_EEE3AddERKS9_SB_
Wob:__ZN16MemoryFileSystem6DeleteER13FileEntryDatab
r7g:__Z81RuntimeInvoker_Void_t1185182177_RuntimeObject_Int64_t3736567304_Int32_t2950945753PFvvEPK10MethodInfoPvPS4_
PSh:_List_1_set_Item_m1979164443_gshared
lza:__ZL21BlitScaleStbImageImplRK14ImageReferenceRS_NS_10ColorSpaceE
p4d:_Boolean_System_IConvertible_ToUInt16_m3465173538_AdjustorThunk
bPc:__ZNSt3__26__sortIR31RayHitsByInverseDepthComparitorP12RaycastHit2DEEvT0_S5_T_
cgf:_InputField_get_keyboardType_m1248105267
lsb:__Z29Transfer_Blittable_ArrayFieldI14SafeBinaryReadyEvRT_R9ArrayInfoRK23StaticTransferFieldInfo
ttc:_UNITY_png_icc_set_sRGB
FM:__ZN20SoundChannelInstance15setChannelGroupEPN4FMOD12ChannelGroupE
hZi:_Match__ctor_m2425511580
Jxf:_KeyPairPersistence_Remove_m1876145547
Gai:__ZL63FileNotFoundException_t225391025_CustomAttributesCacheGeneratorP21CustomAttributesCache
owc:__ZL11init_sourceP22jpeg_decompress_struct
rqi:__ZL84Behaviour_t1437897464_CustomAttributesCacheGenerator_Behaviour_set_enabled_m20417929P21CustomAttributesCache
vc:invoke_vifffii
NDb:__Z35Transfer_Blittable_FixedBufferFieldI18StreamedBinaryReadILb0EEaEvRK29SerializationCommandArgumentsR31RuntimeSerializationCommandInfo
FPj:__ZN6il2cpp2vm9Exception27RaiseNullReferenceExceptionEv
vPa:__ZNK25MultiBlocksMemoryFileData5CloneEv
jYe:_InternalEnumerator_1_System_Collections_IEnumerator_Reset_m3873091784_AdjustorThunk
w3j:_GC_add_ext_descriptor
ECj:__ZNK15dense_hashtableINSt3__24pairIK10KeyWrapperINS1_IPK14Il2CppAssemblyP11Il2CppClassEEEjEES9_17ReflectionMapHashIS8_EN14dense_hash_mapIS9_jSD_NS9_14EqualsComparerINS0_8equal_toIS8_EEEENS0_9allocatorISB_EEE9SelectKeyESI_SK_E23find_position_with_hashERSA_j
YRi:_LayoutGroup_SetProperty_TisSingle_t1397266774_m793506911_gshared
y4j:__ZN6il2cpp2os14WindowsRuntime22GetRestrictedErrorInfoEv
CGd:_CryptoConfig_CreateFromName_m1538277313
D1h:_Queue_1__ctor_m263978079_gshared
AOa:__ZN17ArchiveFileSystem11CreateAsDirER13FileEntryData
Pdk:dynCall_iiiiiiiiiiii
ngf:_InputField_set_caretPositionInternal_m3823580651
GKa:__ZN22VertexDeclarationCacheD0Ev
Qpf:_Selectable_set_interactable_m3105888815
fYa:__ZL26KeywordSetToStringDontSortRKNSt3__26vectorIN4core12basic_stringIcNS1_20StringStorageDefaultIcEEEENS_9allocatorIS5_EEEERS5_
chd:__Z54Register_UnityEngine_Analytics_CustomEventData_AddCharv
dBa:__ZN6prcoreL17RemapGenericFloatI16TexFormatRGFloat17TexFormatRGBAHalfEEvPKNS_9InnerInfoE
OG:__ZN12AudioManager22CreateFMODSoundFromWWWEP10IWWWStream15FMOD_SOUND_TYPE17FMOD_SOUND_FORMATjjbbP10SampleClip
Rac:__ZNK32RendererMaterialAnimationBinding15GenerateBindingERKN4core12basic_stringIcNS0_20StringStorageDefaultIcEEEEbRN11UnityEngine9Animation14GenericBindingE
hue:_TargetException__ctor_m4172127019
Ofi:__ZL58BinaryFormatter_t3197753202_CustomAttributesCacheGeneratorP21CustomAttributesCache
mWh:_List_1_CheckCollection_m274117203_gshared
KDi:__ZL70EventSystem_t1003666588_CustomAttributesCacheGenerator_m_FirstSelectedP21CustomAttributesCache
L_:__ZN8Remapper23GetOrGenerateInstanceIDERK26SerializedObjectIdentifier
yxd:_ColorTween_get_startColor_m3792586410_AdjustorThunk
HOa:__ZN17FileSystemHandler10AtomicMoveER13FileEntryDataS1_
$a:invoke_iiiiiifffiiifii
o4g:__Z85RuntimeInvoker_Void_t1185182177_Int32_t2950945753_Int32_t2950945753_Int32_t2950945753PFvvEPK10MethodInfoPvPS4_
MRe:_BinaryFormatter_get_SurrogateSelector_m2111882017
n_d:_X509CertificateCollection__ctor_m3365535796
Xge:_CustomInfo__ctor_m426096741
pqd:_EventSystem_ToString_m3779610692
f8a:__ZN6Sprite8TransferI24GenerateTypeTreeTransferEEvRT_
aQe:_SoapTypeAttribute_get_IsInteropXmlType_m629667929
tqc:__Z48Register_UnityEngine_Transform_SetAsFirstSiblingv
r2a:__ZNK18DelayedCallManager22GetTypeVirtualInternalEv
i8a:__ZN7SubMesh8TransferI24GenerateTypeTreeTransferEEvRT_
t1i:_Literal_IsComplex_m4067122560
Zzj:_NativeTypeAttribute__ctor_m133676646
LLb:__ZN19GfxThreadableDevice20SetShadersThreadableEPP10GpuProgramPPK20GpuProgramParametersPKPKh
nyh:_Collection_1_System_Collections_IList_Contains_m296643274_gshared
QPd:_DirectoryInfo__ctor_m126519516
Iqe:_MethodBase_GetMethodFromIntPtr_m3014201362
Bvh:__ZN21InterfaceFuncInvoker1I19Color32_t2600501292iE6InvokeEjP11Il2CppClassP12Il2CppObjecti
x0i:_Reference_get_CapturingGroup_m3861468528
X3g:__Z40RuntimeInvoker_TypeAttributes_t113483779PFvvEPK10MethodInfoPvPS4_
Rhc:__ZN9Transform23SetSiblingIndexInternalEib
ZWh:_List_1_Clear_m1143167521_gshared
lqe:_AddEventAdapter__ctor_m2428277574
nAh:_Collection_1_SetItem_m794903769_gshared
dde:_Enumerator_MoveNext_m635366482
C_d:_X509Extension_Equals_m1222951829
Ru:__ZN7mecanim5human12HumanPoseSubERNS0_9HumanPoseERKS1_S4_
fsh:__Z37RuntimeInvoker_Enumerator_t1789501480PFvvEPK10MethodInfoPvPS4_
NTj:__ZN6il2cpp8metadata15GenericMetadata15GetGenericClassEiPK17Il2CppGenericInst
d7d:_Char_GetTypeCode_m2433327340_AdjustorThunk
Mqb:__Z18Transfer_BlittableI14SafeBinaryReadLb0E10Matrix4x4fEvRK29SerializationCommandArgumentsR31RuntimeSerializationCommandInfo
lGb:__Z24GetFixedBehaviourManagerv
R5h:__ZL69IntPtr_t_CustomAttributesCacheGenerator_IntPtr_op_Equality_m408849716P21CustomAttributesCache
Uxj:__ZN6il2cpp2vm10ThreadPool4WaitEP17Il2CppAsyncResultPPv
Ozf:_PKCS12_Encrypt_m2617413749
vYi:_X509Crl_VerifySignature_m1377612461
X8j:_vfprintf
azc:__ZN10GUIManager12AddGUIScriptER8ListNodeI13MonoBehaviourE
G1f:_NumberFormatInfo_get_PositiveInfinitySymbol_m1141345134
sde:_Stack_Clear_m2010200235
O1a:__ZL13SortTexByNameRKNSt3__24pairIN9ShaderLab16FastPropertyNameEN18UnityPropertySheet11UnityTexEnvEEES7_
mXc:_cf2_getVStore
fsd:_PointerEventData_set_pointerPressRaycast_m1363193059
jQb:__ZN20DynamicPropertySheetD0Ev
xwe:_SafeHandle_Dispose_m4229010569
z0b:__ZN14SafeBinaryRead17RegisterConverterEPKcS1_PFbPvRS_E
Avi:__ZL77RuntimePlatform_t4159857903_CustomAttributesCacheGenerator_OSXDashboardPlayerP21CustomAttributesCache
m9:__ZN35RegisterRuntimeInitializeAndCleanup8RegisterEPFvPvES2_iS0_
$Vi:_SubjectAltNameExtension_get_IPAddresses_m1641002124
Ome:_FieldBuilder_SetValue_m828035213
Qgg:_Array_InternalArray__Insert_TisSingle_t1397266774_m3161726127_gshared
FGh:_ReadOnlyCollection_1_System_Collections_IList_get_IsFixedSize_m733459177_gshared
aTc:__ZN4PPtrI17PhysicsMaterial2DE8TransferI18StreamedBinaryReadILb0EEEEvRT_
yuc:_UNITY_png_create_read_struct
m6h:__ZL72Enum_t4135868527_CustomAttributesCacheGenerator_Enum_ToObject_m121962870P21CustomAttributesCache
QCh:__ZN23InterfaceActionInvoker2IP24ObjectU5BU5D_t2843939325iE6InvokeEjP11Il2CppClassP12Il2CppObjectS1_i
xqc:__Z21Object_CUSTOM_DestroyP12Il2CppObjectf
Qvi:__ZL99SetupCoroutine_t2062820429_CustomAttributesCacheGenerator_SetupCoroutine_InvokeMoveNext_m3199342729P21CustomAttributesCache
fpa:__ZN8Material26ResetAllCachedMaterialDataEP6Shader
jbh:__Z63RuntimeInvoker_Void_t1185182177_RuntimeObject_Int16_t2552820387PFvvEPK10MethodInfoPvPS4_
Q3c:_UNITY_TT_Get_MM_Var
WSe:_ObjectManager_AddFixup_m2154325362
L4e:_Comparer_1__cctor_m3761458313_gshared
KYf:_DateTimeOffset_CompareTo_m1350732322_AdjustorThunk
ba:invoke_diddi
Pbd:__ZNK2UI6Canvas13GetRenderModeEv
Pmg:_PersistentCall__ctor_m1217622171
Qbg:_Array_compare_TisCustomAttributeTypedArgument_t2723150157_m1384644047_gshared
tzf:_StrongName_get_TokenAlgorithm_m1794722022
FPd:_BinaryReader_ReadInt32_m2994982418
Xpb:__Z18Transfer_BlittableI14SafeBinaryReadLb0EiEvRK29SerializationCommandArgumentsR31RuntimeSerializationCommandInfo
Gwj:__ZN6il2cpp2vm13MetadataCache30GetPropertyDefinitionFromIndexEi
k6i:_SymmetricTransform_Transform_m1683494363
wug:_Rect_Contains_m1232228501
Bkd:__ZN22BaseUnityConnectClient17InitializeSessionERKN4core12basic_stringIcNS0_20StringStorageDefaultIcEEEES6_N19CloudServiceHandler13InitModeFlagsE
V8h:__ZL56KeyCollection_t4251528776_CustomAttributesCacheGeneratorP21CustomAttributesCache
lhh:__Z74RuntimeInvoker_RuntimeObject_Int32_t2950945753_RuntimeObject_RuntimeObjectPFvvEPK10MethodInfoPvPS4_
a0h:_List_1_get_Item_m200663048_gshared
BPe:_ReturnMessage_get_Exception_m3375728265
_jk:_emscripten_glDeleteBuffers__wrapper
h_e:_InternalEnumerator_1_MoveNext_m3664960764_AdjustorThunk
wjc:__ZN13MonoBehaviour34StopCoroutineFromEnumeratorManagedE18ScriptingObjectPtr
Qwc:_alloc_sarray
IUh:_List_1__ctor_m1345008423_gshared
O1c:_gray_raster_reset
BIc:__ZN11UnityEngine9Analytics18SceneLoadTimeEvent12SetSceneLoadERKN4core12basic_stringIcNS2_20StringStorageDefaultIcEEEEiyyyy
mib:__ZN30RuntimeInitializeOnLoadManager8TransferI18StreamedBinaryReadILb0EEEEvRT_
WXf:_DateTimeOffset__ctor_m2084804982
d0c:_UNITY_tt_face_load_pclt
Jpb:__ZN9profiling17ScriptingProfiler31UpdateRegisteredScriptingEventsEv
Uic:__ZL34GetComponentsImplementationRecurseILb1ELi0ELi2EEbR10GameObjectbRK17CompareParametersRK39GetComponentsImplementation_ReturnValue
WRc:__ZN10ClipperLib7Clipper24InsertLocalMinimaIntoAELEx
vpg:_Material_GetTexture_m3545614349
a2g:__Z64RuntimeInvoker_RuntimeObject_Int32_t2950945753_Int16_t2552820387PFvvEPK10MethodInfoPvPS4_
fwf:_ASN1_get_Length_m1923878580
rVg:_EqualityComparer_1__cctor_m4244842342_gshared
GPb:__ZNK6Camera18WorldToScreenPointERK8Vector3fPb
Iwg:_SendMouseEvents_DoSendMouseEvents_m2140870850
Ffd:__ZN14UnityAnalyticsD0Ev
h_i:_PatternCompiler_EmitJump_m3915926156
IDa:__Z18IsCompressedFormat14GraphicsFormat
kv:__ZN7mecanim9animation19AdjustPoseForMotionERKNS0_14AvatarConstantERKNS0_14SkeletonTQSMapERKN4math4trsXERNS_10ValueArrayERNS_8skeleton13SkeletonPoseTIS8_EESG_
ZDd:_SerializationEntry_get_Name_m1530029541_AdjustorThunk
tse:_MonoMethod_GetBaseDefinition_m2844667474
_qc:__Z43LineRenderer_CUSTOM_set_startColor_InjectedP12Il2CppObjectRK10ColorRGBAf
NZ:__ZNSt3__227__insertion_sort_incompleteIRPFbRKN18AwakeFromLoadQueue4ItemES4_EPS2_EEbT0_S9_T_
ehh:__Z71RuntimeInvoker_Boolean_t97287965_AnimatorControllerPlayable_t1015767841PFvvEPK10MethodInfoPvPS4_
Ivi:__ZL73RuntimePlatform_t4159857903_CustomAttributesCacheGenerator_MetroPlayerARMP21CustomAttributesCache
hPd:_InvalidOperationException__ctor_m1685032583
Guj:__ZN14dense_hash_mapI10KeyWrapperIN6il2cpp5utils13dynamic_arrayIPK10Il2CppTypeLj4EEEEPFvvENS1_8metadata19Il2CppSignatureHashENS8_14EqualsComparerINSB_22Il2CppSignatureCompareEEENSt3__29allocatorINSG_4pairIKS8_SA_EEEEE15set_deleted_keyERSJ_
kIg:_TimeSpan_op_Subtraction_m3592306516
pXg:_EqualityComparer_1_System_Collections_IEqualityComparer_GetHashCode_m1517903420_gshared
H5a:__ZN26EnlightenSystemInformation8TransferI14SafeBinaryReadEEvRT_
rhb:__ZN24GenerateTypeTreeTransfer8TransferINSt3__26vectorIN15ResourceManager10DependencyE13stl_allocatorIS4_L18MemLabelIdentifier52ELi16EEEEEEvRT_PKc17TransferMetaFlags
jlj:_CanvasRenderer_SplitUIVertexStreams_m2753637362
bjh:__Z119RuntimeInvoker_Void_t1185182177_RuntimeObject_Single_t1397266774_Single_t1397266774_SByte_t1669577662_Int32_t2950945753PFvvEPK10MethodInfoPvPS4_
Tld:__ZN11UnityEngine15PlatformWrapper20SetPlayerPrefsUInt64ERKN4core12basic_stringIcNS1_20StringStorageDefaultIcEEEEy
wcb:__ZN12MeshRendererD0Ev
bQ:__ZN12AudioManager35GetCurrentSpatializerDefinitionNameEv
jyg:_TouchScreenKeyboard_get_active_m4267591905
Fnj:_CustomEventData_InternalDestroy_m2184675245
AHj:__ZNK15dense_hashtableINSt3__24pairIK10KeyWrapperIPK14Il2CppAssemblyEPK22Il2CppMonoAssemblyNameEES6_N6il2cpp5utils11PointerHashIS4_EEN14dense_hash_mapIS6_SA_SF_NS6_14EqualsComparerINS0_8equal_toIS5_EEEENS0_9allocatorISB_EEE9SelectKeyESK_SM_E8min_sizeEjj
Kh:_utime
txi:__ZL56PlayableGraph_t3515989261_CustomAttributesCacheGeneratorP21CustomAttributesCache
B0i:_BalancingGroup_Compile_m2575117193
bC:__Z28SetExposedSkeletonTransformsRKN7mecanim9animation14AvatarConstantERKN11UnityEngine9Animation30AnimatorGenericBindingConstantERKNS_8skeleton13SkeletonPoseTIN4math4trsXEEERKNSA_INSB_7affineXEEERNS5_21AvatarBindingConstantEy
LBj:__ZNSt3__26vectorIN6il2cpp2vm17TypeNameParseInfoENS_9allocatorIS3_EEE8allocateEj
cZi:_Mark_get_Index_m3048692661_AdjustorThunk
SUi:_TlsServerSettings_get_CertificateRequest_m842655670
Fn:FUNCTION_TABLE_viiiiif
l4e:_DefaultComparer_Compare_m3931992727_gshared
Kn:FUNCTION_TABLE_viiiiii
e3e:_InternalEnumerator_1_System_Collections_IEnumerator_get_Current_m1847780851_AdjustorThunk
a5i:_GUILayoutUtility_get_spaceStyle_m3392862907
XMd:_Int32_System_IConvertible_ToType_m3009233912_AdjustorThunk
XXf:_DateTimeOffset__ctor_m74032857
DD:__ZN7mecanim9animation22DestroyAvatarWorkspaceEPNS0_15AvatarWorkspaceERNS_6memory9AllocatorE
dJg:_Type_type_is_assignable_from_m76737532
jlf:_MaskableGraphic_ParentMaskStateChanged_m1092090553
GWb:__ZN15LightmapSTCacheC2ER13BatchRendererR15RenderLoopStats
k2a:__ZN14PlayableOutput17SetSourcePlayableEP8Playable
eib:__ZNSt3__26vectorIN4core12basic_stringIcNS1_20StringStorageDefaultIcEEEE13stl_allocatorIS5_L18MemLabelIdentifier13ELi16EEE8__appendEj
TC:__ZN7mecanim9animation29MotionOutputGetDeltaTransformEPKNS0_12MotionOutputE
wmi:__ZL64MissingFieldException_t1989070983_CustomAttributesCacheGeneratorP21CustomAttributesCache
yIh:_ReadOnlyCollection_1_System_Collections_Generic_ICollectionU3CTU3E_Add_m2369252587_gshared
AIc:__ZN27PerformanceReportingManager21OnSceneTimingCallbackERK15SceneLoadTimingRKN4core12basic_stringIcNS3_20StringStorageDefaultIcEEEE
uVi:_ValidationResult_get_ErrorCode_m1533688152
Rpc:__Z43Transform_CUSTOM_INTERNAL_get_localRotationP12Il2CppObjectP11Quaternionf
S4f:_CultureInfo_get_Parent_m672689885
Q3j:__ZN6il2cpp6icalls8mscorlib6System10Reflection4Emit13ModuleBuilder13RegisterTokenEP29Il2CppReflectionModuleBuilderP12Il2CppObjecti
Q9g:__Z50RuntimeInvoker_Int64_t3736567304_SByte_t1669577662PFvvEPK10MethodInfoPvPS4_
uFf:_X509Certificate2_GetValueAsString_m1348462142
cik:_glGetShaderInfoLog__wrapper
FSe:_ObjectReader_ReadObjectGraph_m340866276
ecf:_Transform_1_EndInvoke_m2716226219_gshared
ni:_emscripten_glGetTexParameteriv
Qhd:__ZN11UnityEngine7Connect15DeviceInfoEvent7GFXInfoD2Ev
Ajk:_glGenTextures__wrapper
FLj:__ZN15dense_hashtableINSt3__24pairIK10KeyWrapperINS1_IP11Il2CppClassjEEES4_EES6_N6il2cpp8metadata14ArrayClassHashEN14dense_hash_mapIS6_S4_SB_NS6_14EqualsComparerINSA_17ArrayClassCompareEEENS0_9allocatorIS8_EEE9SelectKeyESF_SH_EC2EjRKSB_RKSF_RKSJ_
FDg:_UnicodeEncoding_GetHashCode_m354003420
Zja:__ZN9ShaderLab20SerializedSubProgram14ConstantBufferaSERKS1_
k7b:__Z13RegisterClassI4MeshEvv
Ryi:__ZL74SharedBetweenAnimatorsAttribute_t2857104338_CustomAttributesCacheGeneratorP21CustomAttributesCache
L2f:_Enum_Equals_m3617313991
Afh:__Z98RuntimeInvoker_Boolean_t97287965_PlayableOutputHandle_t4208053793_PlayableOutputHandle_t4208053793PFvvEPK10MethodInfoPvPS4_
Blh:__Z74RuntimeInvoker_Boolean_t97287965_LineTypeU26_t2430394419_Int32_t2950945753PFvvEPK10MethodInfoPvPS4_
J$a:__ZN8PlayableD0Ev
Gg:emscriptenWebGLGetBufferBinding
rI:__ZN12AudioManager8TransferI19StreamedBinaryWriteILb0EEEEvRT_
rqf:_Slider_UpdateCachedReferences_m3259451627
$He:_SslStreamBase_get_KeyExchangeStrength_m217695965
F9g:__Z50RuntimeInvoker_Double_t594665363_Double_t594665363PFvvEPK10MethodInfoPvPS4_
m8g:__Z60RuntimeInvoker_Void_t1185182177_StreamingContext_t3711869237PFvvEPK10MethodInfoPvPS4_
TBb:__ZN18StreamedBinaryReadILb1EE21TransferSTLStyleArrayI13dynamic_arrayI11ColorRGBA32Lj4EEEEvRT_17TransferMetaFlags
xMj:__ZN15dense_hashtableINSt3__24pairIK10KeyWrapperINS1_IP11Il2CppClassjEEES4_EES6_N6il2cpp8metadata14ArrayClassHashEN14dense_hash_mapIS6_S4_SB_NS6_14EqualsComparerINSA_17ArrayClassCompareEEENS0_9allocatorIS8_EEE9SelectKeyESF_SH_E6insertERKS8_
Zzd:_U3CShowU3Ec__AnonStorey1_U3CU3Em__0_m2340880019
Epf:_Selectable_OnSetProperty_m1693943217
BRh:_List_1_GetIndex_m2300811709_gshared
Qac:__ZNK32RendererMaterialAnimationBinding12GetPPtrValueERKN11UnityEngine9Animation10BoundCurveE
YCb:__Z18Transfer_BlittableI18StreamedBinaryReadILb0EELb0E8Vector2fEvRK29SerializationCommandArgumentsR31RuntimeSerializationCommandInfo
rUf:_ASCIIEncoding_GetString_m58523364
Wwg:_Shader__ctor_m837260462
cdd:__ZN2UI11CanvasGroup12CleanupClassEv
oVi:_TlsStream_Flush_m3793197834
wSh:_List_1_GetIndex_m2832472557_gshared
znb:__ZN22LocalFileSystemHandler9MakeLocalER13FileEntryDatab
m$j:__ZN6il2cpp2vm8Profiler10AllocationEP12Il2CppObjectP11Il2CppClass
aHi:__ZL61Graphic_t1660335611_CustomAttributesCacheGenerator_m_MaterialP21CustomAttributesCache
l8c:__ZNSt3__23mapIN20TextRenderingPrivate7FontRefENS1_6OSFontENS_4lessIS2_EENS_9allocatorINS_4pairIKS2_S3_EEEEEixERS8_
mha:__Z13FormatOrderedPKcz
tzj:__ZN6il2cpp2vm8basepathEPKc
eGf:_X509Chain_GetAuthorityKeyIdentifier_m614536199
L5c:__ZN14SafeBinaryRead21TransferSTLStyleArrayI10vector_mapINSt3__24pairIttEEfN20TextRenderingPrivate8FontImpl14KerningCompareENS2_9allocatorINS3_IS4_fEEEEEEEvRT_17TransferMetaFlags
sDe:_TlsServerFinished__ctor_m1445633918
sLd:_NumberFormatter_FastIntegerToString_m390846811
Jvi:__ZL68RuntimePlatform_t4159857903_CustomAttributesCacheGenerator_WP8PlayerP21CustomAttributesCache
Yxf:_PKCS1_RSASP1_m3912327535
rWb:__ZN25DeferredRenderLoopScratchD0Ev
nx:__ZN27AnimationLayerMixerPlayable14SetInputWeightEif
Krd:_PhysicsRaycaster_Raycast_m776323695
ozg:_UnityException__ctor_m1456865679
Nu:__ZN7mecanim9animation17EvaluateHumanPoseERKNS0_18ClipMuscleConstantERKNS0_15ClipMuscleInputEPKfRKNS0_12MotionOutputERNS_5human9HumanPoseE
_xf:_PKCS1_Encrypt_v15_m1016948107
DEi:__ZL92PointerEventData_t3807901092_CustomAttributesCacheGenerator_U3CscrollDeltaU3Ek__BackingFieldP21CustomAttributesCache
hja:__ZN15dense_hashtableINSt3__24pairIKiN4core17string_with_labelILi1EEEEEi18SInt32HashFunctionN14dense_hash_mapIiS5_S7_NS0_8equal_toIiEE13stl_allocatorIS6_L18MemLabelIdentifier1ELi16EEE9SelectKeyESA_SD_E9copy_fromERKSG_j
Gje:_CustomAttributeNamedArgument_GetHashCode_m2317130892
Ogb:__ZN15ResourceManagerD0Ev
pVg:_EqualityComparer_1_get_Default_m990790318_gshared
hRe:_WellKnownClientTypeEntry_ToString_m1119458503
e5:__ZN22CreateGpuProgramOutputD2Ev
e$h:_List_1_get_Item_m1378751541_gshared
pyb:__Z18Transfer_BlittableI19StreamedBinaryWriteILb0EELb1EsEvRK29SerializationCommandArgumentsR31RuntimeSerializationCommandInfo
Tgi:__ZL52HMACSHA512_t923916539_CustomAttributesCacheGeneratorP21CustomAttributesCache
yef:_ValueCollection_CopyTo_m2188334703_gshared
WLf:_SHA1CryptoServiceProvider_Finalize_m1793183797
Jli:__ZL78Convert_t2465617642_CustomAttributesCacheGenerator_Convert_ToUInt64_m409548990P21CustomAttributesCache
YYg:_HashSet_1_System_Collections_Generic_ICollectionU3CTU3E_CopyTo_m408073502_gshared
$ze:_EncryptedPrivateKeyInfo_get_EncryptedData_m491452551
Kmb:__ZN12HandlerChain4OpenER13FileEntryData14FilePermission16FileAutoBehavior
fph:__Z72RuntimeInvoker_Void_t1185182177_Int32_t2950945753_RaycastHit_t1056001966PFvvEPK10MethodInfoPvPS4_
jli:__ZL79Convert_t2465617642_CustomAttributesCacheGenerator_Convert_ToUInt16_m1147931813P21CustomAttributesCache
rEj:__ZN15dense_hashtableINSt3__24pairIK10KeyWrapperINS1_IPK10MethodInfoP11Il2CppClassEEEjEES9_17ReflectionMapHashIS8_EN14dense_hash_mapIS9_jSD_NS9_14EqualsComparerINS0_8equal_toIS8_EEEENS0_9allocatorISB_EEE9SelectKeyESI_SK_E6insertERKSB_
MIc:__ZN27PerformanceReportingManager29OnSceneLoadedAfterAwakeStaticEPS_iR18AwakeFromLoadQueueN19RuntimeSceneManager11LoadingModeE
GEg:_UTF8Encoding_GetCharCount_m2272165989
K1d:_Array_SetValue_m394135409
J1:__ZN14FileCacherReadD2Ev
Mjb:__ZN13RendererScene23UpdatePreviousFrameDataEii
oTf:_String_Remove_m562998446
Clc:__Z50Register_UnityEngine_CullingGroup_FinalizerFailurev
ITi:_Mesh_GetAllocArrayFromChannel_TisVector2_t2156229523_m1057679375_gshared
JOf:_SecurityPermission_IsSubsetOf_m545000671
ukb:__ZN27UnloadUnusedAssetsOperationD0Ev
ey:__ZN26AnimatorControllerPlayable6MemoryD2Ev
Kgj:__ZL25UnresolvedVirtualCall_112P12Il2CppObjectsaaaPK10MethodInfo
Jbk:__ZNKSt3__221__basic_string_commonILb1EE20__throw_out_of_rangeEv
llg:_Cursor_get_lockState_m2828192107
H4g:__Z78RuntimeInvoker_Boolean_t97287965_RuntimeObject_RuntimeObject_Int32_t2950945753PFvvEPK10MethodInfoPvPS4_
GAj:_UpdatedEventHandler_Invoke_m1320302085
QRj:__ZNK15dense_hashtableINSt3__24pairIK10KeyWrapperIP14Il2CppIUnknownEjEES5_N6il2cpp5utils11PointerHashIS3_EEN14dense_hash_mapIS5_jSB_NS5_14EqualsComparerINS0_8equal_toIS4_EEEENS0_9allocatorIS7_EEE9SelectKeyESG_SI_E12test_deletedERK24dense_hashtable_iteratorIS7_S5_SB_SK_SG_SI_E
eG:__ZN9AudioClip23VirtualRedirectTransferER18StreamedBinaryReadILb0EE
B$h:_List_1_AddEnumerable_m2724989594_gshared
lna:__ZNSt3__26vectorIPN9ShaderLab9SubShaderENS_9allocatorIS3_EEE21__push_back_slow_pathIKS3_EEvRT_
C0h:_List_1_Contains_m2043463915_gshared
Zhh:__Z82RuntimeInvoker_Vector2_t2156229523_Vector2_t2156229523_RuntimeObject_RuntimeObjectPFvvEPK10MethodInfoPvPS4_
pIa:__ZN18GlslGpuProgramGLESC2ERK13dynamic_arrayIhLj1EER22CreateGpuProgramOutput
Lrc:__Z70Register_UnityEngine_Playables_PlayableHandle_GetPlayableType_Injectedv
tKb:__ZNK4PPtrI23ShaderVariantCollectionEcvPS0_Ev
Uye:_ARC4Managed_TransformBlock_m1687647868
Pj:_glCopyTexSubImage2D
Yac:__ZNK24RendererAnimationBinding13GetFloatValueERKN11UnityEngine9Animation10BoundCurveE
cU:__ZNK15DownloadHandler14HasPendingDataEv
tzg:_UnitySynchronizationContext_ExecuteTasks_m1310741010
CKf:_RIPEMD160Managed_CompressFinal_m497690796
P$b:__ZN18ScreenManagerWebGL13SetShowCursorEb
GWe:_InternalEnumerator_1_MoveNext_m1773160976_gshared
MLb:__ZN13DrawImmediateC2ER9GfxDevice
g9j:_frexp
xxe:_Kernel_MultiplyMod2p32pmod_m451690680
Iqb:__Z18Transfer_BlittableI14SafeBinaryReadLb0E5RectTIfEEvRK29SerializationCommandArgumentsR31RuntimeSerializationCommandInfo
sOd:_NumberFormatter_NumberToString_m2562899600
kNf:_SymmetricAlgorithm_get_FeedbackSize_m3666584308
Q_c:_otv_u_C_x_Ox
Vxa:__ZN18AsyncUploadManager19AsyncResourceUploadER9GfxDeviceii9TextureID
fva:__ZN14GfxContextGLES14GetFramebufferEv
pkk:_emscripten_glGenVertexArrays__wrapper
qNg:_Version_Clone_m1749041863
lbf:_ShimEnumerator_get_Key_m4155849607_gshared
Qza:__ZN6prcoreL21CreateRemapAnyBlitterE13TextureFormatS0_
xAe:_RSAManaged_ExportParameters_m1754454264
Pgc:__ZN17AnimationCurveTplIfE16StripInvalidKeysEv
D4d:_Boolean_Equals_m535526264_AdjustorThunk
rrh:__Z71RuntimeInvoker_KeyValuePair_2_t71524366_Int32_t2950945753_RuntimeObjectPFvvEPK10MethodInfoPvPS4_
Wbd:__ZNK2UI6Canvas17GetSortingLayerIDEv
o4d:_Convert_ToUInt16_m3116648921
Y5h:__ZL40UIntPtr_t_CustomAttributesCacheGeneratorP21CustomAttributesCache
oPc:__ZN14Raycast2DQuery8RunQueryEb
c7b:__Z13RegisterClassI17GlobalGameManagerEvv
Y6:__ZN8Renderer24SetupNewRendererForSceneEv
_Ig:_Type_internal_from_name_m1721940673
qQi:_Array_swap_TisCustomAttributeTypedArgument_t2723150157_TisCustomAttributeTypedArgument_t2723150157_m365781156_gshared
S2f:_Environment_get_TickCount_m2088073110
cOe:_RemotingServices_GetMethodBaseFromName_m3194612939
IFc:__Z35Transfer_Blittable_FixedBufferFieldI8JSONReadtEvRK29SerializationCommandArgumentsR31RuntimeSerializationCommandInfo
SUa:__ZN4PPtrI7TextureE8TransferI14SafeBinaryReadEEvRT_
Idc:__ZN14PlayableOutput6HandleEv
E7a:__ZNK6Sprite22GetTypeVirtualInternalEv
pod:__ZN13RuntimeStaticINSt3__26vectorI23UnityVRDeviceDefinition13stl_allocatorIS2_L18MemLabelIdentifier90ELi16EEEELb0EE13StaticDestroyEPv
En:FUNCTION_TABLE_iiiiiiiiiiiiii
qmd:__ZN19UnityConnectService18OnPlayerQuitStaticEPS_
H$c:_UNITY_tt_get_cmap_info
BHe:_SslClientStream_RaiseServerCertificateValidation_m3477149273
uxb:__Z29Transfer_Blittable_ArrayFieldI24GenerateTypeTreeTransfer5RectTIiEEvRT_R9ArrayInfoRK23StaticTransferFieldInfo
MYa:__ZN16ReflectionProbes8ScheduleEN18ReflectionProbeJob7JobTypeEP15ReflectionProbei
wDe:_ClientSessionInfo_KeepAlive_m1020179566
ecd:__ZN13dynamic_arrayIN2UI13UIInstructionELj4EE12emplace_backEv
T0h:_List_1_ToArray_m4056539300_gshared
S9h:__ZL51Calendar_t1661121569_CustomAttributesCacheGeneratorP21CustomAttributesCache
kNa:__Z18IsDirectoryCreatedRKN4core12basic_stringIcNS_20StringStorageDefaultIcEEEE
wOf:_String_FormatHelper_m3913915042
Vad:__ZN2UI13CanvasManagerD2Ev
lje:_ConstructorInfo__cctor_m1016079270
Rrj:__ZN15dense_hashtableINSt3__24pairIK10KeyWrapperIPKcEP11Il2CppClassEES5_N6il2cpp5utils11StringUtils12StringHasherIS4_EEN14dense_hash_mapIS5_S8_SE_NS5_14EqualsComparerINSB_13VmStringUtils21CaseSensitiveComparerEEENS0_9allocatorIS9_EEE9SelectKeyESJ_SL_E15set_deleted_keyERKS9_
djh:__Z38RuntimeInvoker_ContentType_t1787303396PFvvEPK10MethodInfoPvPS4_
FBh:_ReadOnlyCollection_1_Contains_m1700717617_gshared
I$d:_AttrListImpl_get_Names_m977594476
Xfi:__ZL53IFormatter_t3549834567_CustomAttributesCacheGeneratorP21CustomAttributesCache
O7c:_UNITY_FT_GlyphLoader_Done
mAi:__ZL89GUIStyle_t3956901511_CustomAttributesCacheGenerator_GUIStyle_get_stretchWidth_m3556443132P21CustomAttributesCache
$te:_Pointer_Box_m389276611
IPc:__ZN19OverlapPointQuery2D14InitializeAABBER6b2AABB
G0f:_StackTrace_get_FrameCount_m344690939
HVd:_UnexceptionalStreamWriter_Write_m363195622
eYb:__ZNK21IntermediateRenderers16GetBoundingBoxesEv
j8c:__ZN20TextRenderingPrivate25ReadFontFileAndAddToCacheERKN4core12basic_stringIcNS0_20StringStorageDefaultIcEEEE
I0c:_tt_cmap14_char_var_index
WDb:__Z35Transfer_Blittable_FixedBufferFieldI18StreamedBinaryReadILb0EEdEvRK29SerializationCommandArgumentsR31RuntimeSerializationCommandInfo
soj:_Physics2D_Raycast_m1700114981
ahf:_Selectable_OnPointerDown_m1086067264
T4c:_psh_globals_new
rzd:_Dropdown_SetupTemplate_m628218778
ZEg:_Thread_GetCompressedStack_m2923422412
t9d:_SynchronizedArrayListWrapper_CopyTo_m4207791406
tEf:_X509BasicConstraintsExtension_ToString_m1809935297
Epa:__ZN9GfxDevice20SetMaxBufferedFramesEi
ycj:_TweenRunner_1_StartTween_m1055628540_gshared
xJc:__ZN10Collider2D19WakeAllBodyContactsEv
KRi:_GameObject_GetComponents_TisRuntimeObject_m1246177135_gshared
dL:__ZN24AudioScriptBufferManagerD2Ev
dek:dynCall_vdd
sWd:_MethodAccessException__ctor_m3542088436
U1b:__Z23ConvertIntegerToTypePtrIsEbPvR14SafeBinaryRead
JLc:__ZN12b2MouseJoint11ShiftOriginERK6b2Vec2
e8d:_ArrayListWrapper_get_Capacity_m51087796
Hif:_LayoutElement_get_minHeight_m4160507569
GUg:_EqualityComparer_1_System_Collections_IEqualityComparer_GetHashCode_m2230215241_gshared
oKi:__ZL60ContentSizeFitter_t3850442145_CustomAttributesCacheGeneratorP21CustomAttributesCache
Bbe:_Hashtable_Contains_m2145146412
Ppi:__ZL64UnmarshalledAttribute_t1517743549_CustomAttributesCacheGeneratorP21CustomAttributesCache
Sfc:__ZN4Mesh24UpdateSubMeshVertexRangeEi
zng:_MaterialEffectPlayable_Equals_m3750885802
BCj:__ZNK15dense_hashtableINSt3__24pairIK10KeyWrapperINS1_IPK14Il2CppAssemblyP11Il2CppClassEEEjEES9_17ReflectionMapHashIS8_EN14dense_hash_mapIS9_jSD_NS9_14EqualsComparerINS0_8equal_toIS8_EEEENS0_9allocatorISB_EEE9SelectKeyESI_SK_E12test_deletedEj
u6j:__ZN6il2cpp2os9FastMutex4LockEv
hLd:_Int32_FindCurrency_m3541026887
iKf:_Interval_CompareTo_m3282557545
olk:_pthread_cond_wait__wrapper
EVb:__ZNK14RenderSettings19GetFlatAmbientColorEv
qza:__ZN6prcoreL10inner_flipILj4EEEvPhS1_j
wfb:__ZN18StreamedBinaryReadILb0EE21TransferSTLStyleArrayI10vector_mapIPKN5Unity4TypeE7Hash128NSt3__24lessIS6_EENS8_9allocatorINS8_4pairIS6_S7_EEEEEEEvRT_17TransferMetaFlags
kz:__ZNK27StateMachineBehaviourPlayer15IsSenderEnabledEv
KJi:__ZL58Text_t1901882714_CustomAttributesCacheGenerator_m_FontDataP21CustomAttributesCache
ine:_GenericTypeParameterBuilder_IsPrimitiveImpl_m1952010459
sDh:_ReadOnlyCollection_1_CopyTo_m3474153465_gshared
RJd:_RijndaelManagedTransform_TransformBlock_m1610137419
oqc:__Z40Register_UnityEngine_Transform_SetParentv
Vhi:__ZL94WindowsIdentity_t2948242406_CustomAttributesCacheGenerator_WindowsIdentity_Dispose_m3466258450P21CustomAttributesCache
t9a:__ZN14Texture2DArray17UploadToGfxDeviceEv
_J:__Z14FMODMemoryFreePvjPKc
Xui:__ZL100RectTransform_t3704657025_CustomAttributesCacheGenerator_RectTransform_INTERNAL_get_rect_m3130887130P21CustomAttributesCache
Img:_NetFxCoreExtensions_GetMethodInfo_m444570327
JTb:__Z14SetSHConstantsR13BatchRendererR17ShaderPassContextRK20SphericalHarmonicsL2b
c6d:_Char_System_IConvertible_ToDecimal_m3534906463
TXc:_cf2_glyphpath_moveTo
E_h:_List_1_AddCollection_m1469681717_gshared
H8h:__ZL86MSCompatUnicodeTable_t1453885583_CustomAttributesCacheGenerator_U3CU3Ef__switchU24map4P21CustomAttributesCache
LQc:__ZNK13BoxCollider2D22GetTypeVirtualInternalEv
xxg:_StackTraceUtility_SetProjectFolder_m830524047
Nv:__ZN7mecanim23TransformValueArrayLoopEiiiRKN4math4trsXES3_RNS_10ValueArrayEf
LDe:_ClientSessionInfo_Finalize_m2165787049
Xyc:__ZN5IMGUI14GUIWindowStateD2Ev
ICe:_ClientContext_Clear_m1774063253
cgc:__ZN4Mesh17SetIndicesComplexEPKvjj16GfxPrimitiveTypeij
mXf:_DateTime_AddSeconds_m332574389_AdjustorThunk
hzg:_RequestAtlasCallback_Invoke_m378128467
k5d:_Byte_System_IConvertible_ToSByte_m1869482168
G7g:__Z99RuntimeInvoker_RuntimeObject_RuntimeObject_RuntimeObject_StreamingContext_t3711869237_RuntimeObjectPFvvEPK10MethodInfoPvPS4_
A7i:_AnalyticsEventTracker_Awake_m2780522130
dC:__ZN7mecanim5human10RetargetToEPKNS0_5HumanEPKNS0_9HumanPoseES6_RKN4math4trsXEPS4_PNS_8skeleton13SkeletonPoseTIS8_EESF_
Fv:__ZN7mecanim9animation8SeekClipERKNS0_12StreamedClipERNS0_18StreamedClipMemoryEf
Sng:_GameObject_Internal_AddComponentWithType_m3797731663
wm:_emscripten_glIsTexture
bl:_emscripten_glHint
Zfj:__ZL24UnresolvedVirtualCall_73P12Il2CppObjectPK10MethodInfo
E6i:_Check_SourceAndPredicate_m2332465641
hUc:__ZZN10Collider2D15InitializeClassEvEN30FunctorImpl_98kDidAddComponent4CallEPviR11MessageData
dhh:__Z67RuntimeInvoker_Boolean_t97287965_TextGenerationSettings_t1351628751PFvvEPK10MethodInfoPvPS4_
C3c:_ft_var_readpackeddeltas
NPf:_String_op_Inequality_m215368492
cSg:_Dictionary_2_Clear_m1938428402_gshared
VBi:__ZL110Physics2D_t1528932956_CustomAttributesCacheGenerator_Physics2D_INTERNAL_CALL_GetRayIntersectionAll_m1016589977P21CustomAttributesCache
yAb:__Z35Transfer_Blittable_FixedBufferFieldI18StreamedBinaryReadILb1EEtEvRK29SerializationCommandArgumentsR31RuntimeSerializationCommandInfo
iLg:_UInt32_System_IConvertible_ToInt64_m2261037378
zm:_SDL_UpperBlit
IYa:__Z35GetTextureDecodeValuesWithIntensity16TextureUsageMode17TextureColorSpace10ColorSpacef
L8f:_Array_InternalArray__ICollection_Remove_TisChar_t3634460470_m4143749387_gshared
_Lb:__ZN15dense_hashtableINSt3__24pairIK9TextureIDiEES2_14GfxGenericHashIS2_EN14GfxDoubleCacheIS2_iS6_NS0_8equal_toIS2_EEN31GfxDoubleCacheConcurrencyPolicy11LocklessGetE42GfxDoubleCacheDefaultEmptyDeletedGeneratorIS2_EE9SelectKeyES9_13stl_allocatorIS4_L18MemLabelIdentifier24ELi16EEE14squash_deletedEv
LIj:__ZN15dense_hashtableINSt3__24pairIK10KeyWrapperINS1_IPK9EventInfoP11Il2CppClassEEEjEES9_17ReflectionMapHashIS8_EN14dense_hash_mapIS9_jSD_NS9_14EqualsComparerINS0_8equal_toIS8_EEEENS0_9allocatorISB_EEE9SelectKeyESI_SK_E15set_deleted_keyERKSB_
SFj:__ZN15dense_hashtableINSt3__24pairIK10KeyWrapperINS1_IPK12PropertyInfoP11Il2CppClassEEEjEES9_17ReflectionMapHashIS8_EN14dense_hash_mapIS9_jSD_NS9_14EqualsComparerINS0_8equal_toIS8_EEEENS0_9allocatorISB_EEE9SelectKeyESI_SK_ED2Ev
ELc:__ZNK12b2MouseJoint10GetAnchorAEv
CBg:_Encoding_GetBytes_m3823106599
GWf:_GregorianCalendar__ctor_m979779718
_Ge:_SslClientStream__ctor_m2402546929
tGb:__ZN14SafeBinaryRead20OverrideRootTypeNameEPKc
HAf:_DictionaryNodeEnumerator_get_Entry_m2309234501
Toj:__ZNK10KeyWrapperIPK22Il2CppGenericParameterE14EqualsComparerINSt3__28equal_toIS2_EEEclERKS3_SA_
N1:__ZN14FileCacherRead16UnlockCacheBlockEj
x$g:_Enumerator_Dispose_m951715887_AdjustorThunk
ZBi:__ZL57ContactPoint2D_t3390240644_CustomAttributesCacheGeneratorP21CustomAttributesCache
RXe:_InternalEnumerator_1_System_Collections_IEnumerator_Reset_m521819017_AdjustorThunk
KQd:_IsolatedStorageException__ctor_m1022659452
raa:__ZN10InstancingL21OnGraphicsCapsChangedEv
cub:__Z18Transfer_BlittableI17RemapPPtrTransferLb1E8Vector3fEvRK29SerializationCommandArgumentsR31RuntimeSerializationCommandInfo
odi:__ZL61ClassInterfaceType_t4029497327_CustomAttributesCacheGeneratorP21CustomAttributesCache
ZGg:_WaitHandle_get_Handle_m3260446580
uPh:_Enumerator_VerifyState_m1745883925_AdjustorThunk
Tc:_emscripten_glUniform1f
yce:_SortedList__ctor_m1261191695
s6b:__ZN13dynamic_arrayIS_I8Vector2fLj4EELj4EE18resize_initializedEjRKS1_12ResizePolicy
SIh:_ReadOnlyCollection_1_System_Collections_IList_get_IsReadOnly_m165706550_gshared
Q2g:__Z75RuntimeInvoker_Int32_t2950945753_DecimalU26_t3714369516_Int64U26_t200113976PFvvEPK10MethodInfoPvPS4_
r8c:__Z20ParseImageParametersR11UTF16StringRiRN20TextRenderingPrivate16TextFormatChangeE
dKi:__ZL55CanvasScaler_t2767979955_CustomAttributesCacheGeneratorP21CustomAttributesCache
xzh:_Collection_1_RemoveItem_m2942561924_gshared
Yc:_emscripten_glUniform1i
Svb:__Z18Transfer_BlittableI24GenerateTypeTreeTransferLb1EN4math12int3_storageEEvRK29SerializationCommandArgumentsR31RuntimeSerializationCommandInfo
lC:__ZN12_GLOBAL__N_119PreProcessAnimationER35AnimationPlayableEvaluationConstantR17AnimationPlayable
Umf:__Z14bankers_roundff
bla:__ZN9ShaderLab16SerializedTagMapaSERKS0_
yS:__ZN11UnityEngine15CloudWebService16SessionContainer20RestoreSessionHeaderERKN4core12basic_stringIcNS2_20StringStorageDefaultIcEEEES8_RNS0_13SessionHeaderE
Mnd:__ZN22UnityWebRequestManager13BackendRetainEv
Khc:__ZN8Material28ApplyMaterialPropertyDrawersEv
G5j:__ZN6il2cpp2os12Cryptography23GetCryptographyProviderEv
ypj:__ZN24dense_hashtable_iteratorINSt3__24pairIK10KeyWrapperIPK22Il2CppGenericParameterEP11Il2CppClassEES6_N6il2cpp5utils11PointerHashIS4_EEN14dense_hash_mapIS6_S9_SE_NS6_14EqualsComparerINS0_8equal_toIS5_EEEENS0_9allocatorISA_EEE9SelectKeyESJ_SL_E30advance_past_empty_and_deletedEv
rD:__ZN11UnityEngine9Animation27CreateAvatarBindingConstantER9TransformPKN7mecanim9animation14AvatarConstantERNS3_6memory9AllocatorE
EBf:_MonoTODOAttribute__ctor_m1298576268
Rkf:_MaskableGraphic_get_onCullStateChanged_m3331479633
W6g:__Z151RuntimeInvoker_RuntimeObject_Int32_t2950945753_RuntimeObject_ObjectU5BU5DU26_t712384779_RuntimeObject_RuntimeObject_RuntimeObject_ObjectU26_t2146539884PFvvEPK10MethodInfoPvPS4_
Kjc:__ZN9BlobWriteC2ER13dynamic_arrayIhLj16EE24TransferInstructionFlags19BuildTargetPlatform
bwd:_CanvasUpdateRegistry__ctor_m2005397069
Dsi:__ZL77Input_t1431474628_CustomAttributesCacheGenerator_Input_GetAxisRaw_m2316819917P21CustomAttributesCache
$$:__ZN14MessageHandler3GetEv
xre:_MonoMethodInfo_GetCallingConvention_m3156036493
Bxa:__ZN10DynamicVBO9DrawChunkERK21DynamicVBOChunkHandle17ShaderChannelMaskS3_P17VertexDeclarationPKNS_10DrawParamsEi
vjf:_LayoutGroup_SetLayoutInputForAxis_m2458344630
kd:_emscripten_glAttachShader
n4b:__Z16tesedgeIntersectP10TESSvertexS0_S0_S0_S0_
Dpa:__ZN9GfxDevice13SetActiveTierE12GraphicsTier
TDd:_Image__cctor_m1927508576
IFg:_SendOrPostCallback_EndInvoke_m2485163446
tla:__ZNSt3__26vectorIN4core12basic_stringIcNS1_20StringStorageDefaultIcEEEENS_9allocatorIS5_EEE6assignIPS5_EENS_9enable_ifIXaasr21__is_forward_iteratorIT_EE5valuesr16is_constructibleIS5_NS_15iterator_traitsISC_E9referenceEEE5valueEvE4typeESC_SC_
D5j:__ZN6il2cpp6icalls8mscorlib6System21CurrentSystemTimeZone15GetTimeZoneDataEiPP11Il2CppArrayS6_
U6e:_Enumerator__ctor_m1195706188_gshared
m5h:__ZL76String_t_CustomAttributesCacheGenerator_String_Concat_m1809518182____values0P21CustomAttributesCache
pqb:__Z18Transfer_BlittableI14SafeBinaryReadLb0E11QuaternionfEvRK29SerializationCommandArgumentsR31RuntimeSerializationCommandInfo
IQc:__ZN13BoxCollider2D16CheckConsistencyEv
EDb:__Z18Transfer_BlittableI18StreamedBinaryReadILb0EELb1E12PropertyNameEvRK29SerializationCommandArgumentsR31RuntimeSerializationCommandInfo
bX:_tlsf_walk_heap
L6g:__Z49RuntimeInvoker_Void_t1185182177_OpCode_t123070264PFvvEPK10MethodInfoPvPS4_
MMj:__ZNK15dense_hashtableINSt3__24pairIK10KeyWrapperIP11Il2CppClassES4_EES5_N6il2cpp8metadata16SZArrayClassHashEN14dense_hash_mapIS5_S4_SA_NS5_14EqualsComparerINS9_19SZArrayClassCompareEEENS0_9allocatorIS7_EEE9SelectKeyESE_SG_E10test_emptyERK24dense_hashtable_iteratorIS7_S5_SA_SI_SE_SG_E
Zfh:__Z69RuntimeInvoker_Void_t1185182177_Int32_t2950945753_HitInfo_t3229609740PFvvEPK10MethodInfoPvPS4_
Hyi:__ZL59AnimatorClipInfo_t3156717155_CustomAttributesCacheGeneratorP21CustomAttributesCache
Ege:_Convert_ToUInt32_m3592050311
ob:invoke_vif
zRi:_Component_GetComponents_TisRuntimeObject_m2416546752_gshared
pb:invoke_vid
K$e:_InternalEnumerator_1__ctor_m2202456613_AdjustorThunk
$bk:__ZNSt3__212basic_stringIcNS_11char_traitsIcEENS_9allocatorIcEEE6insertEjPKc
rb:invoke_vii
fPb:__ZNK12ImageFilters8DoRenderER17ShaderPassContextP13RenderTextureS3_RKNSt3__26vectorI11ImageFilterNS4_9allocatorIS6_EEEE
YLa:__ZN12TLSAllocatorI14StackAllocatorE16ThreadInitializeEP13BaseAllocator
j8g:__Z82RuntimeInvoker_Boolean_t97287965_SByte_t1669577662_RuntimeObject_SByte_t1669577662PFvvEPK10MethodInfoPvPS4_
cqa:__ZN9GfxDevice32UpdateStereoViewProjectionMatrixE21MonoOrStereoscopicEye
Wdd:__Z41CanvasRenderer_CUSTOM_DisableRectClippingP12Il2CppObject
KPg:_Dictionary_2__ctor_m1324730059_gshared
DXd:_MonoType_GetConstructorImpl_m441167626
zyd:_DefaultControls_CreateRawImage_m4219873755
Oth:_Collection_1_IsFixedSize_m3709118201_gshared
gQa:__ZN25SingleBlockMemoryFileDataD0Ev
dMa:__ZNSt3__26vectorI14ConstantStringNS_9allocatorIS1_EEE6assignINS_11__wrap_iterIPS1_EEEENS_9enable_ifIXaasr21__is_forward_iteratorIT_EE5valuesr16is_constructibleIS1_NS_15iterator_traitsISA_E9referenceEEE5valueEvE4typeESA_SA_
WIh:_ReadOnlyCollection_1_CopyTo_m586367390_gshared
tS:__ZN11UnityEngine15CloudWebService16SessionContainer21ConvertFromFolderTimeERKN4core12basic_stringIcNS2_20StringStorageDefaultIcEEEEPjPt
iGd:_CodeAccessPermission_Equals_m1555575992
asb:__ZNSt3__26vectorI8GUIStyle13stl_allocatorIS1_L18MemLabelIdentifier1ELi16EEE7reserveEj
VDh:_ReadOnlyCollection_1_Contains_m3869904379_gshared
COj:__ZN6il2cpp6icalls8mscorlib6System9Threading6Thread27GetSerializedCurrentCultureEP12Il2CppThread
Lbg:__ZN21InterfaceFuncInvoker2IibbE6InvokeEjP11Il2CppClassP12Il2CppObjectbb
gEe:_Context_set_ReadSequenceNumber_m2154909392
MJd:_RijndaelTransform_SubByte_m3037693507
Hjg:_Camera_ScreenToWorldPoint_m3978588570
I3b:__Z31CalculateHierarchyTransformType23TransformAccessReadOnly
z7b:__Z13RegisterClassI11TimeManagerEvv
RJ:__ZN4FMOD8ChannelI11setPositionEjj
wog:_Input_INTERNAL_CALL_GetTouch_m3481893561
rTc:__ZN10Collider2D12SetPolygon2DEP9Polygon2D
z1j:_GC_set_fl_marks
Thb:__ZNSt3__26vectorIN30RuntimeInitializeOnLoadManager15ClassMethodInfoE13stl_allocatorIS2_L18MemLabelIdentifier13ELi16EEE7reserveEj
fqa:__ZN9GfxDevice17SetStereoViewportE15StereoscopicEyeRK5RectTIiE
Jga:__ZN17BaseObjectManager13StaticDestroyEPv
Wkj:_CanvasRenderer_INTERNAL_CALL_GetColor_m597074473
X4e:_Comparer_1__cctor_m3891417387_gshared
rEg:_UTF7Decoder_GetChars_m3413809261
nti:__ZL81Shader_t4151988712_CustomAttributesCacheGenerator_Shader_PropertyToID_m1030499873P21CustomAttributesCache
u6h:__ZL70RuntimeArray_CustomAttributesCacheGenerator_Array_get_Rank_m3448755881P21CustomAttributesCache
dme:_EnumBuilder_GetEvent_m4074915332
Jh:_sysconf
Hyg:_Vector3_get_forward_m3100859705
JI:__ZN4FMOD6Reverb13setPropertiesEPK22FMOD_REVERB_PROPERTIES
RLj:__ZN15dense_hashtableINSt3__24pairIK10KeyWrapperIP11Il2CppClassES4_EES5_N6il2cpp8metadata16SZArrayClassHashEN14dense_hash_mapIS5_S4_SA_NS5_14EqualsComparerINS9_19SZArrayClassCompareEEENS0_9allocatorIS7_EEE9SelectKeyESE_SG_E5clearEv
SQb:__ZN9DepthPass13PrepareSubsetEjRK10RenderNodeifRK17ShaderReplaceData
vSf:_String_IndexOf_m3406607758
gka:__ZN9ShaderLab20SerializedSubProgram16TextureParameter8TransferI14SafeBinaryReadEEvRT_
iye:_ASN1__ctor_m3517592395
jgc:__Z35SetMeshComponentFromArrayFromScriptR4Mesh30InternalScriptingShaderChannel34InternalScriptingVertexChannelTypei17ScriptingArrayPtri
xma:__ZN4PPtrI6ShaderE8TransferI19StreamedBinaryWriteILb0EEEEvRT_
reg:_Array_InternalArray__ICollection_Add_TisCustomAttributeNamedArgument_t287865710_m4157175270_gshared
Bq:__ZN4core20StringStorageDefaultIcE6assignEPKcj
nMg:_UInt64_System_IConvertible_ToUInt64_m2135047981_AdjustorThunk
Cxe:_BigInteger_ModPow_m3776562770
ZUj:__ZN15dense_hashtableINSt3__24pairIK10KeyWrapperIP12Il2CppObjectEN6il2cpp2gc9CachedCCWEEES5_NS7_5utils11PointerHashIS3_EEN14dense_hash_mapIS5_S9_SD_NS5_14EqualsComparerINS0_8equal_toIS4_EEEENS0_9allocatorISA_EEE9SelectKeyESI_SK_E3endEv
GPd:_BinaryReader_ReadInt64_m939370142
fGe:_RecordProtocol_ProcessChangeCipherSpec_m15839975
G7d:_ArrayList_IndexOf_m305368842
u0h:_List_1_Add_m2996644200_gshared
TZb:__ZN6Camera6SetFarEf
zRe:_FormatterConverter_ToBoolean_m1680758923
GAa:__ZN6prcoreL12RemapGenericI17TexFormatABGR888817TexFormatARGB8888EEvPKNS_9InnerInfoE
cRa:__ZN11GameManager17MainThreadCleanupEv
pde:_Stack_get_Count_m2258661097
MBh:_ReadOnlyCollection_1__ctor_m1345363288_gshared
Bfd:__Z50Register_UnityEngine_UISystemProfilerApi_EndSamplev
dOg:_Dictionary_2_System_Collections_ICollection_get_SyncRoot_m2020472285_gshared
N1e:_InternalEnumerator_1_System_Collections_IEnumerator_Reset_m1775752715_AdjustorThunk
Ob:invoke_vffff
poj:_Physics2D_Raycast_m2082490717
Vpi:__ZL91Application_t1852185770_CustomAttributesCacheGenerator_Application_get_isPlaying_m100394690P21CustomAttributesCache
gKe:_ConfigHandler_OnProcessingInstruction_m4212209262
TQc:__ZN10Collider2D12AddToManagerEv
iYh:_List_1_Reverse_m3290386475_gshared
ySe:_SerializationCallbacks_GetSerializationCallbacks_m2939476649
hbe:_Hashtable__cctor_m4112166779
l2c:_UNITY_tt_slot_init
$Mb:__ZZ23InitPlayerLoopCallbacksvEN41PostLateUpdateUpdateResolutionRegistrator7ForwardEv
saf:_KeyCollection_GetEnumerator_m1168803204_gshared
pFb:__Z25scripting_array_class_get17ScriptingClassPtrj
KDc:__ZL22Transfer_ManagedObjectI9JSONWriteLb1EEvRK29SerializationCommandArgumentsR31RuntimeSerializationCommandInfo
OF:__ZNK10SampleClip22GetTypeVirtualInternalEv
ora:__ZN9GfxDevice20DestroyRenderSurfaceER12ObjectHandleI17RenderSurface_TagP17RenderSurfaceBaseE
mde:_Stack__ctor_m2602729586
k1g:__Z77RuntimeInvoker_Byte_t1134296376_RuntimeObject_Int32_t2950945753_RuntimeObjectPFvvEPK10MethodInfoPvPS4_
W5b:__ZL24PrepareSpriteRenderNodesILb1EEvR35RenderNodeQueuePrepareThreadContext
uKa:__ZN9GfxDevice22UpdateComputeResourcesEjPK9TextureIDPK16TextureDimensionPKijPKjjPK15ComputeBufferIDS7_PK20ComputeBufferCounterjSC_S2_S5_S9_SF_
C2:__ZN12_GLOBAL__N_15qAsinEff
Rlg:_Display__ctor_m3105658851
_be:_HashValues_get_IsSynchronized_m3461082747
gXe:_InternalEnumerator_1_System_Collections_IEnumerator_get_Current_m2629988057_AdjustorThunk
ZLa:__ZN12TLSAllocatorI14StackAllocatorE13ThreadCleanupEv
ZQg:_Dictionary_2_get_Item_m2136868513_gshared
oG:__Z18GetAudioManagerPtrv
LXe:_InternalEnumerator_1_Dispose_m2043273260_AdjustorThunk
g$j:__ZThn4_N6il2cpp2vm13ComObjectBase16MarshalInterfaceEP13Il2CppIStreamRK10Il2CppGuidPvjS7_j
_ee:_Convert_ToDouble_m996590115
bIb:__Z27FindActiveTransformWithPathPKc
VSh:_List_1_System_Collections_IEnumerable_GetEnumerator_m3790284976_gshared
ZFh:_ReadOnlyCollection_1_System_Collections_IList_Remove_m4169110229_gshared
OKg:_UInt16_ToString_m3020002356
Tjf:_LayoutRebuilder_LayoutComplete_m68578143
bAj:_RequiredByNativeCodeAttribute__ctor_m119855101
bTa:__ZN12BaseRendererD0Ev
L1b:__Z29StdTemplateConversionFunctionIbyEbPvR14SafeBinaryRead
HJd:_RijndaelManaged_GenerateKey_m1736287430
O4i:_GUIStyle_get_fixedWidth_m2576616348
pEi:__ZL90PointerEventData_t3807901092_CustomAttributesCacheGenerator_U3ClastPressU3Ek__BackingFieldP21CustomAttributesCache
gMf:_SHA1Internal_Initialize_m499810128
XY:__ZNK6Camera7GetNearEv
Vme:_GenericTypeParameterBuilder_GetConstructorImpl_m863833310
r9e:_Enumerator_get_Current_m3687673883_AdjustorThunk
BDa:__ZN7ApiGLES11UnmapBufferEjN2gl12BufferTargetE
u$j:__ZN6il2cpp5utilsL24Utf32CharToSurrogatePairEjRA2_Ds
m4a:__Z25GetNextAllowedTextureSizeib13TextureFormat
VHb:__ZN20LocalFileSystemWebGL4CopyER13FileEntryDataS1_
aV:__ZN19CloudServiceHandler6RetainEv
u7j:__ZN6il2cpp2os9Semaphore4WaitEb
sKc:__ZN15b2FrictionJointD0Ev
DCh:_ReadOnlyCollection_1_System_Collections_IList_IndexOf_m198887188_gshared
b0j:__GLOBAL__sub_I_Assembly_cpp_39422
Gzc:__Z36Event_CUSTOM_Internal_SetNativeEventPv
JDg:_UTF32Encoding_GetBytes_m3180303867
l4:__ZN12BaseRenderer20FlattenToRenderQueueER15RenderNodeQueueRK20DeprecatedSourceData
D0h:_List_1_CopyTo_m4034402519_gshared
lEh:_ReadOnlyCollection_1_System_Collections_IList_Clear_m2007013334_gshared
Jkb:__Z34scripting_liveness_calculation_endPv
TWj:__ZN6il2cpp2os6ThreadC2Ev
yTe:_U3CGetEnumeratorU3Ec__Iterator0_System_Collections_Generic_IEnumeratorU3CTU3E_get_Current_m1566629109_gshared
ZYf:_DateTimeOffset_get_UtcDateTime_m1021718282_AdjustorThunk
Cga:__ZN16memory_pool_implILi64EE15AutoPoolWrapper12UninitializeEPv
ghj:__ZL25UnresolvedVirtualCall_136P12Il2CppObject19Vector2_t2156229523PK10MethodInfo
av:__ZN21AnimationClipPlayable22ProcessAnimationNoClipEPK35AnimationPlayableEvaluationConstantPK32AnimationPlayableEvaluationInputP33AnimationPlayableEvaluationOutput
dAf:_HybridDictionary_get_Count_m1166314536
jVi:_TlsStream_Write_m1412844442
kFc:__Z18Transfer_BlittableI8JSONReadLb0E8Vector3fEvRK29SerializationCommandArgumentsR31RuntimeSerializationCommandInfo
UMj:__ZN6il2cpp2vm6Thread6DetachEP12Il2CppThread
MVi:_GeneralNames_get_DNSNames_m3788548987
nSh:_List_1_AddCollection_m2026039026_gshared
g5c:_Render_Single_Pass
Lfj:__ZL24UnresolvedVirtualCall_59P12Il2CppObjectS0_aPK10MethodInfo
vVc:__GLOBAL__sub_I_runtime_dynamics_2_cpp
UDd:_SerializationEntry_t648286436_marshal_pinvoke
xD:__ZN7mecanim8skeleton30SkeletonBuildReverseIndexArrayEPiPKiPKNS0_8SkeletonES6_
Lxc:__Z19GetGUIBlendMaterialv
hWd:_Math_Round_m3018379666
g9g:__Z41RuntimeInvoker_Boolean_t97287965_IntPtr_tPFvvEPK10MethodInfoPvPS4_
IXj:__ZN6il2cpp2os10ThreadImpl5SleepEjb
mBh:_ReadOnlyCollection_1_System_Collections_Generic_IListU3CTU3E_set_Item_m519295790_gshared
FCh:_ReadOnlyCollection_1_System_Collections_IList_Remove_m1965826685_gshared
UDc:__ZN9JSONWrite8TransferI13GUIStyleStateEEvRT_PKc17TransferMetaFlags
$$f:_Delegate_CreateDelegate_m1051651521
T9f:_PlayableHandle_IsPlayableOfType_TisRuntimeObject_m503495943_AdjustorThunk
Qjk:_glBindSampler__wrapper
VQa:__ZNSt3__26vectorIN20ArchiveStorageHeader12StorageBlockE13stl_allocatorIS2_L18MemLabelIdentifier55ELi16EEE8__appendEj
Rf:_emscripten_set_mouseup_callback
Wpg:_Mathf_Clamp_m3350697880
jKa:__ZN9GfxDevice27SetRandomWriteTargetTextureEi9TextureID
RQg:_Dictionary_2_System_Collections_Generic_ICollectionU3CSystem_Collections_Generic_KeyValuePairU3CTKeyU2CTValueU3EU3E_Contains_m3033743418_gshared
w8g:__Z165RuntimeInvoker_Void_t1185182177_UInt32U26_t3735378166_Int32_t2950945753_UInt32U26_t3735378166_Int32_t2950945753_Int32_t2950945753_Int32_t2950945753_Int32_t2950945753PFvvEPK10MethodInfoPvPS4_
dSh:_List_1_System_Collections_IList_Remove_m3140917266_gshared
vBg:_Encoding_get_DecoderFallback_m1525880676
qfi:__ZL59ITrackingHandler_t1244553475_CustomAttributesCacheGeneratorP21CustomAttributesCache
T_i:_CompositeExpression__ctor_m2434860303
LHd:_DSASignatureDeformatter__ctor_m2759753186
vHf:_X509ChainElementCollection_System_Collections_IEnumerable_GetEnumerator_m3829089536
lyh:_Collection_1_System_Collections_IEnumerable_GetEnumerator_m801406918_gshared
T$b:__ZNK18ScreenManagerWebGL8GetWidthEv
Bwj:__ZN6il2cpp2vm13MetadataCache33GetFieldDefaultValueDataFromIndexEi
LF:__ZN10SampleClipD2Ev
SMh:_InvokableCall_1_remove_Delegate_m790146436_gshared
NLh:_Predicate_1_Invoke_m2389850270_gshared
HXj:__ZN6il2cpp2os10ThreadImpl13SetWaitObjectEPNS0_5posix15PosixWaitObjectE
ckb:__Z13GetGISettingsv
t5b:__ZN19SpriteMeshGenerator7contourERNSt3__26vectorINS_6vertexENS0_9allocatorIS2_EEEERiRf
MU:__ZN11UnityEngine15CloudWebService20WebRequestRestClientC2Ev
EZc:_cff_cmap_unicode_init
X7f:_Array_InternalArray__ICollection_Contains_TisRuntimeObject_m4067783231_gshared
Q1:__ZN14FileCacherRead13GetFileLengthEv
SNh:_UnityAction_1_EndInvoke_m542551745_gshared
w3h:_Collection_1_IsValidItem_m3080586124_gshared
szd:_DropdownItem_set_text_m3702712387
Dwd:_ClipperRegistry_Register_m2407166513
Aak:_readlink
mGj:__ZN15dense_hashtableINSt3__24pairIK10KeyWrapperINS1_IPK9EventInfoP11Il2CppClassEEEjEES9_17ReflectionMapHashIS8_EN14dense_hash_mapIS9_jSD_NS9_14EqualsComparerINS0_8equal_toIS8_EEEENS0_9allocatorISB_EEE9SelectKeyESI_SK_E12resize_deltaEjj
sre:_MonoCMethod_Invoke_m2700167622
dce:_KeyMarker__cctor_m2590194914
F5j:__ZN6il2cpp8metadata14Il2CppTypeHash4HashEPK10Il2CppType
Q6e:_Enumerator_Reset_m627751027_AdjustorThunk
xhj:__ZL25UnresolvedVirtualCall_153P12Il2CppObjectaPK10MethodInfo
xwc:_consume_markers
Edb:__ZNK6Sprite9GetBoundsE8Vector2fbb
sUa:__ZNK19RenderEventsContext21CleanupCommandBuffersEv
fkj:_TextGenerator_PopulateWithErrors_m1222498386
hFh:_ReadOnlyCollection_1_System_Collections_Generic_ICollectionU3CTU3E_Clear_m2102011098_gshared
iva:__ZN11ContextGLES6CreateEi
Lkj:_WillRenderCanvases_BeginInvoke_m1804779886
igh:__Z52RuntimeInvoker_Boolean_t97287965_Vector3_t3722313464PFvvEPK10MethodInfoPvPS4_
AVh:_List_1_set_Capacity_m3382070520_gshared
Nkh:__Z68RuntimeInvoker_Boolean_t97287965_RuntimeObject_ObjectU26_t2146539884PFvvEPK10MethodInfoPvPS4_
rif:_U3CMouseDragOutsideRectU3Ec__Iterator1_Dispose_m267465418
Z_f:_Decimal_CompareTo_m3502307243_AdjustorThunk
sEb:__Z19TransferField_ArrayI18StreamedBinaryReadILb0EE27Converter_SimpleNativeClassI17AnimationCurveTplIfEEEvRK23StaticTransferFieldInfoR31RuntimeSerializationCommandInfoRT0_
ALa:__ZN14StackAllocator16FrameMaintenanceEb
iUc:__ZZN10Collider2D15InitializeClassEvEN33FunctorImpl_99kDidRemoveComponent4CallEPviR11MessageData
Tmf:_Scrollbar_get_value_m760470106
aZ:__ZNK10GameObject20QueryComponentByTypeEPKN5Unity4TypeE
m_f:_Decimal_System_IConvertible_ToInt32_m1488426794_AdjustorThunk
$wc:_jpeg_mem_available
KWd:_MonoCustomAttrs_IsUserCattrProvider_m2878058089
IHi:__ZL71InputField_t3762917431_CustomAttributesCacheGenerator_m_HideMobileInputP21CustomAttributesCache
y3a:__ZN11TextureData5ResetEv
kmc:__Z53Register_UnityEngine_GameObject_get_activeInHierarchyv
INf:_ToBase64Transform_InternalTransformFinalBlock_m360524956
P$d:_ActivationContext_Dispose_m2038725770
Utb:__Z35Transfer_Blittable_FixedBufferFieldI17RemapPPtrTransferiEvRK29SerializationCommandArgumentsR31RuntimeSerializationCommandInfo
r$:__ZL30InitializeCoreScriptingClassesv
JGh:_ReadOnlyCollection_1_Contains_m1699971074_gshared
l$e:_InternalEnumerator_1_Dispose_m630370856_AdjustorThunk
Og:_glBlitFramebuffer
LOa:__ZN17ArchiveFileSystem5TouchER13FileEntryData
zaf:_KeyCollection_System_Collections_Generic_IEnumerableU3CTKeyU3E_GetEnumerator_m818204647_gshared
Ptb:__Z35Transfer_Blittable_SingleValueFieldI14SafeBinaryReadhEvRT_R17GeneralMonoObjectRK23StaticTransferFieldInfo
Iec:__ZN12CachedWriter15CompleteWritingEv
D2a:__ZNK12CubemapArray22GetTypeVirtualInternalEv
bo:FUNCTION_TABLE_vif
co:FUNCTION_TABLE_vid
PQi:_Dictionary_2_Do_CopyTo_TisInt32_t2950945753_TisRuntimeObject_m213146570_gshared
fo:FUNCTION_TABLE_vii
Ukb:__Z40scripting_liveness_calculation_from_root18ScriptingObjectPtrPv
XDd:_SerializationEntry__ctor_m1411687997_AdjustorThunk
Eei:__ZL65IContributeDynamicSink_t2255997386_CustomAttributesCacheGeneratorP21CustomAttributesCache
A$a:__ZN7Texture23VirtualRedirectTransferER24GenerateTypeTreeTransfer
h7c:_UNITY_FT_Set_Transform
Pac:__ZNK32RendererMaterialAnimationBinding12SetPPtrValueERKN11UnityEngine9Animation10BoundCurveEi
aUj:__ZN6il2cpp8metadata15GenericMetadata20RegisterGenericClassEP18Il2CppGenericClass
tjk:_glDeleteFramebuffers__wrapper
s2h:_Collection_1_System_Collections_IList_get_IsFixedSize_m2620019318_gshared
T4g:__Z220RuntimeInvoker_Boolean_t97287965_RuntimeObject_Int32U26_t1369213839_Int32_t2950945753_Int32_t2950945753_Int32_t2950945753_RuntimeObject_SByte_t1669577662_Int32_t2950945753_ContractionU26_t961830454_ContextU26_t3937453398PFvvEPK10MethodInfoPvPS4_
Ycf:_Enumerator__ctor_m920120158_AdjustorThunk
isg:_Playable_Equals_m328753404_AdjustorThunk
oai:__ZL78TextInfo_t3810425522_CustomAttributesCacheGenerator_TextInfo_Clone_m3838580862P21CustomAttributesCache
MXc:_cff_blend_build_vector
xDf:_WebHeaderCollection_ToString_m1263025316
U_e:_InternalEnumerator_1_MoveNext_m1015797184_gshared
nbc:__ZZN12MeshRenderer15InitializeClassEvEN29FunctorImpl_134kDidDeleteMesh4CallEPviR11MessageData
o7g:__Z91RuntimeInvoker_Void_t1185182177_RuntimeObject_RuntimeObject_RuntimeObject_Int32_t2950945753PFvvEPK10MethodInfoPvPS4_
Ate:_GetterAdapter_Invoke_m3767885970
BWh:_List_1__ctor_m747758800_gshared
yYi:_X509Extension_get_Oid_m4107042796
Zne:_MethodBuilder_get_ReflectedType_m3038768129
TTf:_String_CreateString_m2818852475
d$g:_Enumerator_get_Current_m335492761_AdjustorThunk
A6b:__Z22GenerateBoxTilingShapeP22GenerateTilingAreaInfo
J5a:__ZN28EnlightenRendererInformation8TransferI14SafeBinaryReadEEvRT_
slj:_CanvasRenderer_get_hasMoved_m2236392341
Drg:_MessageEvent__ctor_m1231650089
via:__ZNK15Lz4Decompressor16DecompressMemoryEPKvPjPvS2_
D0c:_UNITY_tt_face_build_cmaps
rWd:_MemberAccessException__ctor_m3713703094
WTa:__Z11IsCoroutine18ScriptingMethodPtrRK22CommonScriptingClasses
ibi:__ZL117GenericTypeParameterBuilder_t1988827940_CustomAttributesCacheGenerator_GenericTypeParameterBuilder_Equals_m3260957994P21CustomAttributesCache
h6b:__ZN4core8hash_mapINS_12basic_stringIcNS_20StringStorageDefaultIcEEEE10vector_setI4PPtrI11SpriteAtlasENSt3__24lessIS8_EE13stl_allocatorIS8_L18MemLabelIdentifier81ELi16EEENS_4hashIS4_EENS9_8equal_toIS4_EEEixERKS4_
Fh:_glGetAttribLocation
zfj:__ZL24UnresolvedVirtualCall_47P12Il2CppObject20DateTime_t3738529785PK10MethodInfo
A1a:__Z35UnityPropertySheet_MakeSortedColorsRKNSt3__23mapIN9ShaderLab16FastPropertyNameE10ColorRGBAfNS_4lessIS2_EENS_9allocatorINS_4pairIKS2_S3_EEEEEER10vector_mapIS2_S3_S5_NS6_INS7_IS2_S3_EEEEE
Jni:__ZL72PKCS12_t4101533061_CustomAttributesCacheGenerator_U3CU3Ef__switchU24map8P21CustomAttributesCache
Z$c:_UNITY_tt_face_load_os2
jqi:__ZL90Coroutine_t3829159415_CustomAttributesCacheGenerator_Coroutine_ReleaseCoroutine_m809189848P21CustomAttributesCache
htb:__Z29Transfer_Blittable_ArrayFieldI14SafeBinaryRead8Vector4fEvRT_R9ArrayInfoRK23StaticTransferFieldInfo
_ie:_Default_check_arguments_m3882727959
nbe:_Hashtable_get_IsSynchronized_m1426775249
LEg:_UTF8Encoding_GetMaxCharCount_m3762459613
jke:_ModuleBuilder_RegisterToken_m4166846047
SMb:__ZZ23InitPlayerLoopCallbacksvEN51PostLateUpdateUpdateCustomRenderTexturesRegistrator7ForwardEv
amf:_RawImage_OnPopulateMesh_m1115858855
s6g:__Z74RuntimeInvoker_MonoFileType_t221779374_IntPtr_t_MonoIOErrorU26_t1548853198PFvvEPK10MethodInfoPvPS4_
Pwj:__ZN6il2cpp2vm13MetadataCache25GetStringLiteralFromIndexEi
p0d:_Hashtable_ToPrime_m33531354
yv:__ZN7mecanim9animation12EvaluateClipEPKNS0_4ClipEPKNS0_9ClipInputEPNS0_10ClipMemoryEPNS0_10ClipOutputE
Tyh:_Collection_1_IsSynchronized_m1117613618_gshared
kaf:_KeyCollection_System_Collections_Generic_ICollectionU3CTKeyU3E_Remove_m2555909644_gshared
ftb:__ZN15SerializeTraitsI13dynamic_arrayI5RectTIfELj4EEE19ResizeSTLStyleArrayERS3_i
TJg:_TypeInitializationException__ctor_m3546444694
Yhc:__ZNK9Transform16GetLocalRotationEv
$8e:_Enumerator_System_Collections_IEnumerator_Reset_m4278714428_gshared
U5a:__ZN4PPtrI11LightProbesE8TransferI18StreamedBinaryReadILb0EEEEvRT_
kU:__ZN11UnityEngine15CloudWebService23WebRequestUploadHandler17ConsumeUploadDataEj
Jxj:__ZNSt3__214__split_bufferI6pollfdRNS_9allocatorIS1_EEEC2EjjS4_
RJe:_CrossAppDomainData_get_DomainID_m3516796532
wjh:__Z68RuntimeInvoker_Void_t1185182177_Single_t1397266774_SByte_t1669577662PFvvEPK10MethodInfoPvPS4_
CSd:_MemoryStream_set_Position_m3169779190
LYb:__ZN13RenderManager29SetCurrentCameraAndStackStateEP6CameraP25CameraStackRenderingState
ord:_ExecuteEvents_get_scrollHandler_m2659345019
RSa:__ZNSt3__26__treeINS_12__value_typeIjN4core12basic_stringIcNS2_20StringStorageDefaultIcEEEEEENS_19__map_value_compareIjS7_NS_4lessIjEELb1EEE13stl_allocatorIS7_L18MemLabelIdentifier7ELi16EEE7destroyEPNS_11__tree_nodeIS7_PvEE
FMj:__ZN15dense_hashtableINSt3__24pairIK10KeyWrapperINS1_IP11Il2CppClassjEEES4_EES6_N6il2cpp8metadata14ArrayClassHashEN14dense_hash_mapIS6_S4_SB_NS6_14EqualsComparerINSA_17ArrayClassCompareEEENS0_9allocatorIS8_EEE9SelectKeyESF_SH_E12resize_deltaEjj
ci:_JS_WebRequest_Release
TS:__ZN11UnityEngine15CloudWebService14DataErrorEventD0Ev
ubk:_dispose_chunk
uQj:__ZN6il2cpp6icalls8mscorlib6System4Type20internal_from_handleEi
Ipi:__ZL72RequiredByNativeCodeAttribute_t4130846357_CustomAttributesCacheGeneratorP21CustomAttributesCache
fLe:_Context__ctor_m254302079
YTj:__ZN6il2cpp8metadata15GenericMetadata7InflateEPK19Il2CppGenericMethodPK20Il2CppGenericContext
Kyf:_KeyGeneratedEventHandler_EndInvoke_m3057317531
_4a:__ZN19ShaderPropertySheet16SetArrayPropertyEN9ShaderLab16FastPropertyNameENS_12PropertyTypeEPKvj
Bnf:_Selectable_FindSelectable_m2348614027
_xd:_FloatTween_get_duration_m1227071020
FUj:__ZN15dense_hashtableINSt3__24pairIK10KeyWrapperIP12Il2CppObjectEN6il2cpp2gc9CachedCCWEEES5_NS7_5utils11PointerHashIS3_EEN14dense_hash_mapIS5_S9_SD_NS5_14EqualsComparerINS0_8equal_toIS4_EEEENS0_9allocatorISA_EEE9SelectKeyESI_SK_E16reset_thresholdsEv
$zd:_DropdownItem_OnPointerEnter_m1492957598
Jad:__ZN2UI11CanvasGroup23VirtualRedirectTransferER19StreamedBinaryWriteILb0EE
Jte:_ParameterInfo_get_ParameterType_m4197803362
Q5g:__Z91RuntimeInvoker_Void_t1185182177_Int32U26_t1369213839_Int32U26_t1369213839_Int32_t2950945753PFvvEPK10MethodInfoPvPS4_
dzc:__ZN8GUIState8EndOnGUIEv
s2c:_UNITY_TT_Get_VMetrics
F1g:__Z49RuntimeInvoker_Char_t3634460470_Int16_t2552820387PFvvEPK10MethodInfoPvPS4_
Kfh:__Z69RuntimeInvoker_Color_t2555686324_Color_t2555686324_Single_t1397266774PFvvEPK10MethodInfoPvPS4_
FVg:_EqualityComparer_1__ctor_m2283513024_gshared
W8d:_SimpleEnumerator__cctor_m2844299657
WVd:_LocalDataStoreSlot__ctor_m4104083971
IOi:_Array_qsort_TisVector3_t3722313464_m4117329442_gshared
qGh:_ReadOnlyCollection_1_System_Collections_Generic_IListU3CTU3E_RemoveAt_m3849058645_gshared
Jdj:_AudioSource_ReadExtensionName_m725112169
MXi:_X509CertificateEnumerator_System_Collections_IEnumerator_Reset_m2039524926
Fbh:__Z128RuntimeInvoker_Void_t1185182177_RuntimeObject_BooleanU26_t4125257963_SByte_t1669577662_Int32U26_t1369213839_Int32U26_t1369213839PFvvEPK10MethodInfoPvPS4_
$xa:__ZN7Texture21GetMasterTextureLimitEv
Scf:_Enumerator_Dispose_m3503748991_AdjustorThunk
A_b:__Z12CanAddScriptR10GameObject17ScriptingClassPtrPS1_S2_
mJj:__ZN6il2cpp2vm10Reflection12HasAttributeEP12Il2CppObjectP11Il2CppClass
bih:__Z103RuntimeInvoker_Boolean_t97287965_RuntimeObject_Vector2_t2156229523_RuntimeObject_Vector3U26_t3464235976PFvvEPK10MethodInfoPvPS4_
nJh:_Comparison_1_BeginInvoke_m3263247262_gshared
Naa:__ZN9ShaderLabL25StaticInitializeShaderLabEPv
U:Math_max
RQh:_List_1_Sort_m1293013666_gshared
qgj:__ZL24UnresolvedVirtualCall_92P12Il2CppObjectPK10MethodInfo
OJj:_il2cpp_class_get_methods
Rwg:_HitInfo_SendMessage_m1343099429_AdjustorThunk
Vvb:__Z18Transfer_BlittableI24GenerateTypeTreeTransferLb0EN4math12int2_storageEEvRK29SerializationCommandArgumentsR31RuntimeSerializationCommandInfo
F0f:_StackTrace_get_trace_m1194606084
uRf:_Single_CompareTo_m2785801815_AdjustorThunk
$Wj:__ZN6il2cpp2os6Thread16GetCurrentThreadEv
ghg:_Array_InternalArray__Insert_TisUILineInfo_t4195266810_m3191124053_gshared
Mcc:__ZN10GameObject13ComponentPair15SetComponentPtrEPN5Unity9ComponentE
Mhk:_glBlitFramebuffer__wrapper
l7b:__Z13RegisterClassI10MeshFilterEvv
Ayg:_Transform_INTERNAL_set_position_m3627767375
XSa:__ZN10TagManager8TransferI19StreamedBinaryWriteILb0EEEEvRT_
nkb:__ZN11PreloadData23VirtualRedirectTransferER18StreamedBinaryReadILb0EE
J8a:__ZN13sorted_vectorI4PPtrI11SpriteAtlasENSt3__24lessIS2_EE13stl_allocatorIS2_L18MemLabelIdentifier1ELi16EEE21sort_clear_duplicatesEv
Usg:_PropertyNameUtils_PropertyNameFromString_Injected_m1259736140
RGi:__ZL60FontData_t746620069_CustomAttributesCacheGenerator_m_MinSizeP21CustomAttributesCache
a6d:_Char_System_IConvertible_ToDateTime_m3564102661
sDj:__ZN15dense_hashtableINSt3__24pairIK10KeyWrapperINS1_IPK9FieldInfoP11Il2CppClassEEEjEES9_17ReflectionMapHashIS8_EN14dense_hash_mapIS9_jSD_NS9_14EqualsComparerINS0_8equal_toIS8_EEEENS0_9allocatorISB_EEE9SelectKeyESI_SK_E16reset_thresholdsEv
ebf:_ShimEnumerator_get_Key_m317201915_gshared
C7a:__ZN6Sprite17MainThreadCleanupEv
Vhk:_glBlendFuncSeparate__wrapper
wL:__ZN10AudioMixer14UpdateMuteSoloEv
L0:__Z17GetMonoManagerPtrv
iSa:__ZN9Transform35SetLocalPositionWithoutNotificationERKN4math7_float3Ey
qAi:__ZL87GUIUtility_t1868551600_CustomAttributesCacheGenerator_U3CguiIsExitingU3Ek__BackingFieldP21CustomAttributesCache
mbh:__Z69RuntimeInvoker_UInt64_t4134040092_Int32_t2950945753_SByte_t1669577662PFvvEPK10MethodInfoPvPS4_
dj:_JS_Eval_ClearTimeout
_mk:_glDepthFunc__wrapper
Cmf:_Raycast2DCallback_Invoke_m1500574149
LCa:__ZN7ApiGLES16SetPatchVerticesEi
X0i:_CharacterClass_Compile_m3296067317
SYj:__ZN6il2cpp2gc16GarbageCollector16InvokeFinalizersEv
j5d:_Byte_System_IConvertible_ToInt64_m285584218_AdjustorThunk
lug:_Rect_get_size_m477575021_AdjustorThunk
npj:__ZN6il2cpp2vm5Class20FromGenericParameterEPK22Il2CppGenericParameter
zV:__ZN19CloudServiceHandler11FlushEventsEv
$fa:__ZN15GlobalCallbacksC2Ev
nOe:_MethodCall_System_Runtime_Remoting_Messaging_IInternalMessage_set_Uri_m1919576807
XLc:__ZN7b2World10CreateBodyEPK9b2BodyDef
S5e:_Comparer_1_System_Collections_IComparer_Compare_m2016223770_gshared
FLi:__ZL57BaseMeshEffect_t2440176439_CustomAttributesCacheGeneratorP21CustomAttributesCache
Dah:__Z74RuntimeInvoker_DateTime_t3738529785_DateTime_t3738529785_Int32_t2950945753PFvvEPK10MethodInfoPvPS4_
w8c:_UNITY_FT_New_Memory_Face
tvh:_Collection_1_System_Collections_IList_IndexOf_m3271188411_gshared
A6c:__ZN20TextRenderingPrivate21TextMeshGeneratorImpl5FlushEv
oSd:_MonoIO_GetFileStat_m678141354
o_c:_UNITY_FT_Load_Sfnt_Table
Fyd:__Z15CastclassSealedP12Il2CppObjectP11Il2CppClass
L6b:__ZN15ApplicationInfo14GetSandboxTypeEv
Wtb:__Z18Transfer_BlittableI17RemapPPtrTransferLb1EhEvRK29SerializationCommandArgumentsR31RuntimeSerializationCommandInfo
O_f:_Decimal_IsZero_m4250358244_AdjustorThunk
IVd:_UnmanagedMemoryStream_get_CanRead_m3770815400
oZj:__ZNSt3__26vectorIjNS_9allocatorIjEEE26__swap_out_circular_bufferERNS_14__split_bufferIjRS2_EE
sZb:__ZN16ReflectionProbes40UpdateRealtimeReflectionProbesTimeslicedEv
_Sj:__ZNSt3__26__treeINS_12__value_typeIP24Il2CppReflectionAssemblyPvEENS_19__map_value_compareIS3_S5_NS_4lessIS3_EELb1EEENS_9allocatorIS5_EEE16__insert_node_atEPNS_16__tree_node_baseIS4_EERSF_SF_
E_f:_Decimal_u64_m3374804932
kKg:_UInt16_System_IConvertible_ToInt32_m1950778303_AdjustorThunk
Chb:__ZNK30RuntimeInitializeOnLoadManager22GetTypeVirtualInternalEv
_tj:__ZN15dense_hashtableINSt3__24pairIK10KeyWrapperIN6il2cpp5utils13dynamic_arrayIPK10Il2CppTypeLj4EEEEPFvvEEESA_NS3_8metadata19Il2CppSignatureHashEN14dense_hash_mapISA_SD_SG_NSA_14EqualsComparerINSF_22Il2CppSignatureCompareEEENS0_9allocatorISE_EEE9SelectKeyESK_SM_E12resize_deltaEjj
vac:__ZN16ReflectionProbes15InitializeClassEv
p6h:__ZL71Enum_t4135868527_CustomAttributesCacheGenerator_Enum_Format_m2588135982P21CustomAttributesCache
OKc:__ZNK12b2WheelJoint17GetReactionTorqueEf
qvj:__ZNK15dense_hashtableINSt3__24pairIK10KeyWrapperIPK11Il2CppClassEPKcEES6_N6il2cpp5utils11PointerHashIS3_EEN14dense_hash_mapIS6_S9_SE_NS6_14EqualsComparerINS0_8equal_toIS5_EEEENS0_9allocatorISA_EEE9SelectKeyESJ_SL_E12test_deletedEj
A7h:__ZL107ArrayReadOnlyList_1_t221793636_CustomAttributesCacheGenerator_ArrayReadOnlyList_1_GetEnumerator_m2012327150P21CustomAttributesCache
iEh:_ReadOnlyCollection_1_System_Collections_ICollection_CopyTo_m2527663815_gshared
_Qi:_Dictionary_2_Do_ICollectionCopyTo_TisKeyValuePair_2_t3699644050_m4159638770_gshared
VRj:__ZN6il2cpp2vm5Image9GetCorlibEv
lAg:_Vector3_get_left_m2428419009
BA:__ZN8Animator13BatchedFKPassERK13dynamic_arrayIP14PlayableOutputLj4EE
Jci:__ZL50Pointer_t2088917139_CustomAttributesCacheGeneratorP21CustomAttributesCache
o2j:_GC_reclaim_uninit
vjb:__ZN16LightmapSettings11UnshareDataEv
brd:_ExecuteEvents_Execute_m113814934
wca:__ZN13RuntimeStaticINSt3__23mapIN4core12basic_stringIcNS2_20StringStorageDefaultIcEEEES6_NS0_4lessIS6_EE13stl_allocatorINS0_4pairIKS6_S6_EEL18MemLabelIdentifier13ELi16EEEELb0EE13StaticDestroyEPv
vOi:_Array_qsort_TisColor32_t2600501292_m1362211604_gshared
Z5e:_Enumerator_System_Collections_IEnumerator_get_Current_m2979767597_AdjustorThunk
hJd:_MD5CryptoServiceProvider_ProcessFinalBlock_m2241588515
Lof:_ScrollRect_GetBounds_m449872505
ck:_glIsVertexArray
__d:_SmallXmlParser_Read_m3485223434
YKd:_Int16_Parse_m2276856944
Y_e:_InternalEnumerator_1__ctor_m3443175323_AdjustorThunk
L6:__ZN5Unity9Component8TransferI18StreamedBinaryReadILb0EEEEvRT_
mci:__ZL131CustomAttributeData_t1084486650_CustomAttributesCacheGenerator_CustomAttributeData_t1084486650____ConstructorArguments_PropertyInfoP21CustomAttributesCache
fa:invoke_fff
oak:_mbsinit
y9f:_Array_InternalArray__ICollection_Remove_TisContactPoint2D_t3390240644_m284878234_gshared
wgk:b14
sJf:_RepeatContext_get_Expression_m255006542
U9c:__ZN2UI6Canvas17MainThreadCleanupEv
oAa:__ZN6prcoreL12RemapGenericI17TexFormatARGB155517TexFormatRGBA8888EEvPKNS_9InnerInfoE
krj:__ZN13Il2CppHashMapIPK19Il2CppGenericMethodPK26Il2CppGenericMethodIndicesN6il2cpp8metadata23Il2CppGenericMethodHashENS7_26Il2CppGenericMethodCompareENSt3__29allocatorINSA_4pairIK10KeyWrapperIS2_ES5_EEEEEC2EjRKS8_RKS9_
Ppe:_TypeBuilder_HasElementTypeImpl_m1871001960
zQf:_SecurityFrame__ctor_m2140076703_AdjustorThunk
cUg:_DefaultComparer_Equals_m2458578172_gshared
nEa:__ZN7ApiGLES13CreateProgramEv
Y6e:_Enumerator_VerifyState_m4003066746_gshared
oya:__ZN4crnd12crn_unpackerD2Ev
qk:_emscripten_glTexImage2D
M4e:_Comparer_1_System_Collections_IComparer_Compare_m2537217645_gshared
f$:__ZN18ScriptingArguments9AddStringEPKc
I2j:_setup_header
vZg:_KeyValuePair_2__ctor_m3953574590_AdjustorThunk
$6d:_Char_ToString_m3588025615
eag:_SetPropertyUtility_SetStruct_TisAspectMode_t3417192999_m1565063249_gshared
a4h:_Collection_1_get_Count_m2853642267_gshared
uEh:_ReadOnlyCollection_1_System_Collections_IList_get_IsReadOnly_m375760151_gshared
vfi:__ZL53IEnvoyInfo_t2180778907_CustomAttributesCacheGeneratorP21CustomAttributesCache
Qwf:_CryptoConvert_ToCapiKeyBlob_m3371450375
wza:__ZL23stbir__resize_arbitraryPvPKviiiS_iiiffffPfiij14stbir_datatype12stbir_filterS4_10stbir_edgeS5_16stbir_colorspace
s5b:__ZN19SpriteMeshGenerator4maskC2EP11ColorRGBA32iihj
nwb:__Z18Transfer_BlittableI24GenerateTypeTreeTransferLb1E8Vector4fEvRK29SerializationCommandArgumentsR31RuntimeSerializationCommandInfo
Agk:b18
Bk:_pthread_detach
exj:__ZN6il2cpp2vm19SocketPollingThread7RunLoopEv
HAd:_FontUpdateTracker_UntrackText_m1981515690
JXh:_List_1_System_Collections_ICollection_get_SyncRoot_m1937857346_gshared
RLi:__ZL64AnalyticsEventTracker_t2285229262_CustomAttributesCacheGeneratorP21CustomAttributesCache
qdc:__ZN15DirectorManager20ScheduleGraphDestroyERK14HPlayableGraph
fFb:__ZNSt3__213__stable_sortIRN10vector_mapI17ScriptingClassPtrPKN5Unity4TypeENS_4lessIS2_EENS_9allocatorINS_4pairIS2_S6_EEEEE13value_compareENS_11__wrap_iterIPSB_EEEEvT0_SJ_T_NS_15iterator_traitsISJ_E15difference_typeEPNSM_10value_typeEi
ztf:_SimpleCollator_FillSurrogateSortKeyRaw_m725998232
NYh:_List_1_AddEnumerable_m1284696147_gshared
KCf:_IPAddress_Equals_m1823478787
YLe:_Context_CreateNewContext_m3053563976
nsi:__ZL83RectOffset_t1369453676_CustomAttributesCacheGenerator_RectOffset_set_top_m713260669P21CustomAttributesCache
Wla:__ZN9ShaderLab25SerializedTextureProperty8TransferI24GenerateTypeTreeTransferEEvRT_
FQi:_Array_swap_TisVector2_t2156229523_TisVector2_t2156229523_m345092822_gshared
t3h:_Collection_1_get_Item_m1773274637_gshared
eHj:__ZN6il2cpp2gc19AppendOnlyGCHashMapINSt3__24pairIPK14Il2CppAssemblyP11Il2CppClassEEP24Il2CppReflectionAssembly17ReflectionMapHashIS9_ENS2_8equal_toIS9_EEEC2Ev
H0c:_tt_cmap14_char_next
_yb:__Z18Transfer_BlittableI19StreamedBinaryWriteILb0EELb0EdEvRK29SerializationCommandArgumentsR31RuntimeSerializationCommandInfo
Zla:__ZN11NamedObject8TransferI18StreamedBinaryReadILb0EEEEvRT_
zHa:__ZNK17GPUSkinPoseBuffer12GetBoneCountEv
Emg:_InvokableCall_remove_Delegate_m1376110510
Abe:_Hashtable_Clear_m3112193608
tEg:_UTF8Encoding_InternalGetByteCount_m771565606
ARj:__ZNK15dense_hashtableINSt3__24pairIK10KeyWrapperIP14Il2CppIUnknownEjEES5_N6il2cpp5utils11PointerHashIS3_EEN14dense_hash_mapIS5_jSB_NS5_14EqualsComparerINS0_8equal_toIS4_EEEENS0_9allocatorIS7_EEE9SelectKeyESG_SI_E12test_deletedEj
iGc:__Z18Transfer_BlittableI8JSONReadLb1EyEvRK29SerializationCommandArgumentsR31RuntimeSerializationCommandInfo
WTh:_List_1_System_Collections_IList_Remove_m3654336679_gshared
tsi:__ZL51GUILayer_t2783472903_CustomAttributesCacheGeneratorP21CustomAttributesCache
X8h:__ZL56IDictionary_2_t3177279192_CustomAttributesCacheGeneratorP21CustomAttributesCache
hbg:_Array_InternalArray__IEnumerable_GetEnumerator_TisUInt64_t4134040092_m1382862496_gshared
Yk:_emscripten_glMatrixMode
Tsc:_unity_z_inflate
O5f:_NumberFormatInfo_get_RawPercentGroupSizes_m97703232
kt:__ZN8Animator23VirtualRedirectTransferER18StreamedBinaryReadILb0EE
O6f:_Guid__ctor_m3562600567_AdjustorThunk
aWf:_DateTime_System_IConvertible_ToInt16_m3239820399
nS:__ZN11UnityEngine15CloudWebService14DataDispatcher16PrepareDataBlockERNS0_16SessionContainerE
WIa:__ZN18GfxFramebufferGLES5ClearE13GfxClearFlagsRK10ColorRGBAffib
Udg:_MonoProperty_StaticGetterAdapterFrame_TisRuntimeObject_m4131530968_gshared
JDb:__ZL26Transfer_SimpleNativeClassI18StreamedBinaryReadILb0EE10RectOffsetLb0EEvRK29SerializationCommandArgumentsR31RuntimeSerializationCommandInfo
VZe:_InternalEnumerator_1_get_Current_m2316281569_gshared
BQb:__ZL12DepthPassJobPN21GfxDeviceAsyncCommand10ArgScratchEPKNS_3ArgE
ika:__ZNSt3__26vectorIN9ShaderLab20SerializedSubProgram16TextureParameterENS_9allocatorIS3_EEE6assignINS_11__wrap_iterIPS3_EEEENS_9enable_ifIXaasr21__is_forward_iteratorIT_EE5valuesr16is_constructibleIS3_NS_15iterator_traitsISC_E9referenceEEE5valueEvE4typeESC_SC_
Gcf:_Transform_1_EndInvoke_m1701794896_gshared
DBc:__ZN5Unity9rapidjson6WriterI16TempBufferWriterNS0_4UTF8IcEES4_13JSONAllocatorE11WriteDoubleEd
$Fg:_Thread_SetCachedCurrentUICulture_m1729523031
Sdd:__Z55Register_UnityEngine_CanvasGroup_get_ignoreParentGroupsv
dif:_InputField_get_minHeight_m2822964544
M7b:__Z13RegisterClassI19LowerResBlitTextureEvv
HCe:_ClientContext_set_ClientHelloProtocol_m4189379912
$m:FUNCTION_TABLE_iiiiiiiiiiii
qYh:_List_1_get_Item_m1686506901_gshared
laf:_KeyCollection_System_Collections_Generic_IEnumerableU3CTKeyU3E_GetEnumerator_m1982109872_gshared
hVa:__ZN16GraphicsSettingsD0Ev
q1b:__Z29StdTemplateConversionFunctionIshEbPvR14SafeBinaryRead
n:cttz_i8
AXc:_UNITY_FT_GlyphLoader_Add
dej:_AudioListener_INTERNAL_CALL_ReadExtensionPropertyName_m330480156
jdi:__ZL62ActivationArguments_t4219999170_CustomAttributesCacheGeneratorP21CustomAttributesCache
Cdh:__Z53RuntimeInvoker_Interval_t1802865632_Int32_t2950945753PFvvEPK10MethodInfoPvPS4_
oge:_Convert_ToUInt16_m867476252
Vl:_emscripten_glViewport
n6b:__Z21GenerateTilingAreaJobP22GenerateTilingAreaInfoj
V_j:__ZN6il2cpp6icalls8mscorlib6System15MonoCustomAttrs17IsDefinedInternalEP12Il2CppObjectP20Il2CppReflectionType
r$g:_Enumerator__ctor_m40451936_AdjustorThunk
ggh:__Z53RuntimeInvoker_Vector3_t3722313464_Single_t1397266774PFvvEPK10MethodInfoPvPS4_
yw:__ZN7mecanim9animation16CopyMotionOutputEPKNS0_18AnimationNodeStateEPS1_bbRKNS_6bitsetILj83EEE
Mei:__ZL115SynchronizationAttribute_t3946661254_CustomAttributesCacheGenerator_SynchronizationAttribute_IsContextOK_m324067792P21CustomAttributesCache
pje:_CustomAttributeData_get_Constructor_m489601093
YYc:_cff_parse_font_bbox
Isf:_MSCompatUnicodeTable_Category_m1834196420
Wjc:__Z35Application_Get_Custom_PropIsEditorv
Tfb:__ZN14PlayerSettings23VirtualRedirectTransferER18StreamedBinaryReadILb0EE
mMi:__ZL105TrackableField_t1772682203_CustomAttributesCacheGenerator_TrackableField__ctor_m3758796351____validTypes0P21CustomAttributesCache
u1f:_Double_CompareTo_m3151899116
P7j:__ZN6il2cpp2os5Event5ResetEv
OVb:__Z26CombineDepthNormalsTextureRK17RenderLoopContextR13dynamic_arrayI16RenderObjectDataLj4EE
q0c:_tt_name_ascii_from_other
C9i:_ToggleGroup__ctor_m3308114662
JTj:__ZN6il2cpp8metadata15GenericMetadata17InflateParametersEPK13ParameterInfohPK20Il2CppGenericContextb
iTa:__ZN6Camera13AwakeFromLoadE17AwakeFromLoadMode
WPi:_Array_Sort_TisUILineInfo_t4195266810_m3737783007_gshared
nsg:_PlayableAsset_Internal_CreatePlayable_m2550417712
YDe:_Context_get_LastHandshakeMsg_m2730646725
Nmi:__ZL59ResolveEventArgs_t1779456501_CustomAttributesCacheGeneratorP21CustomAttributesCache
nLa:__ZN4PPtrI6SpriteE8TransferI18StreamedBinaryReadILb0EEEEvRT_
$3d:_Convert_ToInt16_m3324557887
sVi:_TlsStream_Write_m188217214
sBb:__ZN4PPtrI9Texture2DE8TransferI18StreamedBinaryReadILb1EEEEvRT_
IIb:__Z25SetNeedToPerformRenderingb
kck:__ZN10__cxxabiv116__shim_type_infoD2Ev
T$i:_Alternation__ctor_m1629257642
aMg:_UInt64_System_IConvertible_ToInt32_m949522652_AdjustorThunk
vRa:__ZN10GameObjectD2Ev
QQb:__ZN14qsort_internal30FindAndMovePivotToLastPositionIP15RODataDepthPassi17ROSorterDepthPassEEvT_S4_T0_T1_
tWd:_MethodAccessException__ctor_m3411913042
efj:__ZL24UnresolvedVirtualCall_26P12Il2CppObjectS0_iiPK10MethodInfo
VWg:_EqualityComparer_1__ctor_m1767308726_gshared
BYb:__ZN12CullingGroup10SendEventsEPK17CullingGroupEventj
Lxj:__ZNSt3__214__split_bufferI6pollfdRNS_9allocatorIS1_EEED2Ev
S5f:_NumberFormatInfo_get_PerMilleSymbol_m1360140831
QAe:_EncryptedData_get_EncryptionAlgorithm_m905084934
Sag:_Array_InternalArray__IEnumerable_GetEnumerator_TisCustomAttributeTypedArgument_t2723150157_m1333528454_gshared
Dsd:_PointerInputModule__ctor_m3728889932
mY:__ZThn32_NK8Renderer8GetLayerEv
Q$g:_Enumerator_System_Collections_IEnumerator_Reset_m2915500989_gshared
bZc:_cff_parse_vsindex
vSj:__ZN30dense_hashtable_const_iteratorINSt3__24pairIK10KeyWrapperINS1_IPKcS4_EEEiEES6_24NamespaceAndNamePairHashN14dense_hash_mapIS6_iS9_NS6_14EqualsComparerI26NamespaceAndNamePairEqualsEENS0_9allocatorIS8_EEE9SelectKeyESD_SF_E30advance_past_empty_and_deletedEv
iLd:_Int32_ValidDigit_m1059003769
hmk:_emscripten_glTexParameterfv__wrapper
fni:__ZL54MemberFilter_t426314064_CustomAttributesCacheGeneratorP21CustomAttributesCache
bjf:_LayoutGroup_get_rectTransform_m442863741
wqb:__Z18Transfer_BlittableI14SafeBinaryReadLb1E9BoundsIntEvRK29SerializationCommandArgumentsR31RuntimeSerializationCommandInfo
Shk:b63
FKj:_il2cpp_method_get_param_count
zhc:__ZN10systeminfo19ISOToSystemLanguageERN4core12basic_stringIcNS0_20StringStorageDefaultIcEEEE
YFj:__ZNK15dense_hashtableINSt3__24pairIK10KeyWrapperINS1_IPK12PropertyInfoP11Il2CppClassEEEjEES9_17ReflectionMapHashIS8_EN14dense_hash_mapIS9_jSD_NS9_14EqualsComparerINS0_8equal_toIS8_EEEENS0_9allocatorISB_EEE9SelectKeyESI_SK_E3endEv
_Ri:_LayoutGroup_SetProperty_TisAxis_t3613393006_m3591044743_gshared
PMg:_UnauthorizedAccessException__ctor_m40101894
F6h:__ZL69RuntimeArray_CustomAttributesCacheGenerator_Array_SetValue_m282347242P21CustomAttributesCache
t4c:_ps_dimension_done
I9c:__Z46Register_UnityEngine_TextGenerator_Dispose_cppv
s7g:__Z67RuntimeInvoker_GCHandle_t3351438187_RuntimeObject_Int32_t2950945753PFvvEPK10MethodInfoPvPS4_
z1f:_Double_Parse_m4153729520
Qbj:_IndexedSet_1_AddUnique_m861843892_gshared
ioi:__ZL59HybridDictionary_t4070033136_CustomAttributesCacheGeneratorP21CustomAttributesCache
o5a:__ZN16LightmapSettings8TransferI14SafeBinaryReadEEvRT_
vpa:__ZN17BufferManagerGLES13ReleaseBufferEP14DataBufferGLES
GBe:_CipherSuite_Write_m1172814058
SUd:_SynchronizedWriter_Write_m301917713
F9:__ZN9profiling6MarkerC2EPKc13ProfilerGroupNS0_5FlagsE
p4e:__ZN21InterfaceFuncInvoker1Ii22UILineInfo_t4195266810E6InvokeEjP11Il2CppClassP12Il2CppObjectS0_
fGc:__Z18Transfer_BlittableI8JSONReadLb1EjEvRK29SerializationCommandArgumentsR31RuntimeSerializationCommandInfo
nke:_ConstructorBuilder_get_IsCompilerContext_m3364441562
Elg:_Debug_LogWarning_m3752629331
CIh:_ReadOnlyCollection_1_System_Collections_Generic_IListU3CTU3E_RemoveAt_m4037795630_gshared
O8g:__Z117RuntimeInvoker_Void_t1185182177_RuntimeObject_Int32_t2950945753_Int32_t2950945753_Int32_t2950945753_Int32_t2950945753PFvvEPK10MethodInfoPvPS4_
eIi:__ZL81U3CMouseDragOutsideRectU3Ec__Iterator1_t3909241878_CustomAttributesCacheGeneratorP21CustomAttributesCache
xvd:_U3COnFinishSubmitU3Ec__Iterator0_Reset_m3632769946
vp:stackSave
JU:__ZN5Unity9rapidjson15GenericDocumentINS0_4UTF8IcEE13JSONAllocatorNS0_12CrtAllocatorEE6StringEPKcjb
Axd:_ColorTween_get_targetColor_m1724075482_AdjustorThunk
O4c:_ps_dimension_end
xrc:__Z41Register_UnityEngine_Mesh_Internal_Createv
dpb:__ZN16MemoryFileSystem5TouchER13FileEntryData
bdb:__ZN14SpriteRenderer23VirtualRedirectTransferER24GenerateTypeTreeTransfer
HTj:__ZNK15dense_hashtableI10KeyWrapperIP18Il2CppGenericClassES3_N6il2cpp8metadata22Il2CppGenericClassHashEN14dense_hash_setIS3_S6_NS3_14EqualsComparerINS5_25Il2CppGenericClassCompareEEENSt3__29allocatorIS3_EEE8IdentityESA_SD_E12test_deletedERK30dense_hashtable_const_iteratorIS3_S3_S6_SF_SA_SD_E
zPc:__ZNSt3__27__sort3IRN18Overlap2DQueryBase29ColliderHitsByDepthComparitorEPP10Collider2DEEjT0_S7_S7_T_
tPh:_Enumerator_Dispose_m2498245804_AdjustorThunk
zeh:__Z72RuntimeInvoker_Void_t1185182177_Int32_t2950945753_Vector3U26_t3464235976PFvvEPK10MethodInfoPvPS4_
Jde:_Console_Open_m3077673205
daj:_Aiscorescript__ctor_m819729001
TXi:_X509StoreManager_get_CurrentUser_m4040993045
_Zb:__ZN6Camera9SetAspectEf
Tcg:_Array_InternalArray__IndexOf_TisDateTime_t3738529785_m2463359116_gshared
xa:invoke_viiffiii
SYe:_InternalEnumerator_1_MoveNext_m4138204635_gshared
UZj:__ZN15dense_hashtableINSt3__24pairIK10KeyWrapperIPK19Il2CppGenericMethodEP10MethodInfoEES6_N6il2cpp8metadata23Il2CppGenericMethodHashEN14dense_hash_mapIS6_S9_SD_NS6_14EqualsComparerINSC_26Il2CppGenericMethodCompareEEENS0_9allocatorISA_EEE9SelectKeyESH_SJ_E12resize_deltaEjj
ynk:_emscripten_glBindVertexArray__wrapper
zWj:__ZN6il2cpp6icalls8mscorlib6System4Enum19get_underlying_typeEP20Il2CppReflectionType
F1i:_Parser_IsECMAScript_m674158805
IF:__ZN10ObjectPoolIN4FMOD3DSPENS0_4DSPIEE7GetFreeEi
qSa:__ZN9Transform37InitializeTransformHierarchyRecursiveER18TransformHierarchyRii
KIa:__ZN26SinglePassStereoSupportExt23SetupStereoMatrixParamsE21MonoOrStereoscopicEye24BuiltinShaderMatrixParamRK10Matrix4x4f
fPi:_Array_Resize_TisVector2_t2156229523_m1564542050_gshared
jak:_fscanf
qnd:__ZNK25UnityWebRequestJavaScript16GetUploadedBytesEv
pQ:__Z46AudioListener_CUSTOM_GetNumExtensionPropertiesP12Il2CppObject
pyj:__ZN6il2cpp6icalls8mscorlib6SystemL16CheckMemberMatchI9FieldInfoNS_5utils10functional6FilterINSt3__212basic_stringIcNS8_11char_traitsIcEENS8_9allocatorIcEEEENS5_13VmStringUtils23CaseInsensitiveComparerEEEEEbPKT_PK11Il2CppClassSN_iRKT0_
I$:__Z14GetMonoManagerv
edg:_Array_InternalArray__IndexOf_TisMonoResource_t4103430009_m1351751258_gshared
WUj:__ZN6il2cpp2gc16GarbageCollector12RunFinalizerEPvS2_
t3f:_FieldAccessException__ctor_m3583219052
gqc:__Z57Register_UnityEngine_Transform_INTERNAL_set_localPositionv
_ui:__ZL105RectTransform_t3704657025_CustomAttributesCacheGenerator_RectTransform_INTERNAL_get_anchorMax_m1239315619P21CustomAttributesCache
zta:__ZN13GfxDeviceGLES26SetRandomWriteTargetBufferEi15ComputeBufferID
H2j:_GC_split_block
aPi:_Array_Resize_TisUICharInfo_t75501106_m3903846016_gshared
nFh:_ReadOnlyCollection_1_System_Collections_Generic_ICollectionU3CTU3E_get_IsReadOnly_m3887826072_gshared
PFj:__ZNK15dense_hashtableINSt3__24pairIK10KeyWrapperINS1_IPK12PropertyInfoP11Il2CppClassEEEjEES9_17ReflectionMapHashIS8_EN14dense_hash_mapIS9_jSD_NS9_14EqualsComparerINS0_8equal_toIS8_EEEENS0_9allocatorISB_EEE9SelectKeyESI_SK_E8min_sizeEjj
GMb:__ZZ23InitPlayerLoopCallbacksvEN49EarlyUpdateResetFrameStatsAfterPresentRegistrator7ForwardEv
Mak:_poll
axc:_jpeg_open_backing_store
pFh:_ReadOnlyCollection_1_System_Collections_IEnumerable_GetEnumerator_m1671097018_gshared
AMg:_UInt64_ToString_m1529093114_AdjustorThunk
vJi:__ZL85Selectable_t3250028441_CustomAttributesCacheGenerator_Selectable_IsPressed_m907486548P21CustomAttributesCache
Awe:_TypeLibImportClassAttribute__ctor_m2302178978
huf:_Escape_t3294788190_marshal_pinvoke
qpg:_Material__ctor_m1662457592
xhf:_InputField_OnUpdateSelected_m1118869681
ZRj:__ZN6il2cpp2vmL36AddNestedTypesToNametoClassHashTableEP40Il2CppNameToTypeDefinitionIndexHashTablePKcRKNSt3__212basic_stringIcNS5_11char_traitsIcEENS5_9allocatorIcEEEEP11Il2CppClass
cEd:_SerializationException__ctor_m3131447373
yya:__ZN4crnd12crn_unpacker11unpack_dxt1EPPhjjj
ihc:__ZNK11ICallString6ToUTF8Ev
Hqh:__Z39RuntimeInvoker_MonoResource_t4103430009PFvvEPK10MethodInfoPvPS4_
tpj:__ZN15dense_hashtableINSt3__24pairIK10KeyWrapperIPK22Il2CppGenericParameterEP11Il2CppClassEES6_N6il2cpp5utils11PointerHashIS4_EEN14dense_hash_mapIS6_S9_SE_NS6_14EqualsComparerINS0_8equal_toIS5_EEEENS0_9allocatorISA_EEE9SelectKeyESJ_SL_E15insert_noresizeERKSA_
ccf:_Transform_1_Invoke_m2468053724_gshared
D7g:__Z51RuntimeInvoker_Void_t1185182177_TimeSpan_t881159249PFvvEPK10MethodInfoPvPS4_
RQb:__ZNSt3__211__sift_downIR17ROSorterDepthPassP15RODataDepthPassEEvT0_S5_T_NS_15iterator_traitsIS5_E15difference_typeES5_
Z0a:__ZN18UnityPropertySheet11UnityTexEnvC2Ev
Ojc:__ZNSt3__214__split_bufferIPN9BlobWrite11TypeContextENS_9allocatorIS3_EEE10push_frontERKS3_
J0d:_ArgumentException__ctor_m3200406061
VA:__ZN8Animator17ApplyOnAnimatorIKEiRNS_11AnimatorJobE
Y1:__ZN12FileAccessor4ReadEyyPvPy
PEb:__Z29Transfer_Blittable_ArrayFieldI18StreamedBinaryReadILb0EE11QuaternionfEvRT_R9ArrayInfoRK23StaticTransferFieldInfo
g_h:_List_1_set_Capacity_m2777925136_gshared
WIc:__ZN11UnityEngine9Analytics18RenderingInfoEvent13SetFrameStatsERK13dynamic_arrayIjLj4EEjjj
BZb:__ZN13RenderTexture9SetHeightEi
Ju:__ZN7mecanim9animation17ClearMotionOutputEPNS0_18AnimationNodeStateE
sCe:_CipherSuiteCollection_get_IsFixedSize_m3127823890
BYa:__ZN16LevelGameManager8TransferI24GenerateTypeTreeTransferEEvRT_
m3e:_InternalEnumerator_1_System_Collections_IEnumerator_get_Current_m3537550566_gshared
Smf:_Scrollbar_UpdateVisuals_m2492252165
JWi:_PKCS12_get_Keys_m2165478388
POj:__ZN6il2cpp6icalls8mscorlib6System2IO6MonoIO17GetFileAttributesEP12Il2CppStringPi
yId:_HMACMD5__ctor_m3008609295
QXf:_DateTime__ParseAmPm_m3478436123
uYf:_DateTime_ToString_m2992030064_AdjustorThunk
j1c:_tt_cmap8_char_index
q4b:__Z14tessMeshDeleteP8TESSmeshP12TESShalfEdge
G$:__Z24scripting_class_get_name17ScriptingClassPtr
yTd:_Stream_WriteByte_m1519852120
$9i:_VerticalLayoutGroup_CalculateLayoutInputHorizontal_m1404590745
eda:__ZN13RuntimeStaticI15GUIEventManagerLb0EE13StaticDestroyEPv
wXd:_ShortComparer_Compare_m1881262465
nsb:__Z29Transfer_Blittable_ArrayFieldI14SafeBinaryReadjEvRT_R9ArrayInfoRK23StaticTransferFieldInfo
oe:_emscripten_set_keydown_callback
ZAg:_EncoderReplacementFallback__ctor_m1483565116
wJf:_Interpreter_IsWordChar_m2858055765
xbe:_Hashtable_CopyTo_m2905447224
e2:__ZN12FileAccessorC2Ev
lph:__Z96RuntimeInvoker_Void_t1185182177_BooleanU5BU5DU26_t3454195888_Int32_t2950945753_Int32_t2950945753PFvvEPK10MethodInfoPvPS4_
TWg:_EqualityComparer_1_System_Collections_IEqualityComparer_Equals_m3855544238_gshared
ZRf:_String_System_IConvertible_ToDouble_m3740733360
Ny:__ZThn152_NK26AnimatorControllerPlayable25GetStateMachineBehavioursEv
Lbj:_EventFunction_1_Invoke_m2429482587_gshared
lHi:__ZL74GraphicRaycaster_t2999697109_CustomAttributesCacheGenerator_m_BlockingMaskP21CustomAttributesCache
GTa:__ZN6Camera8TransferI19StreamedBinaryWriteILb0EEEEvRT_
RTc:__ZN23ColliderTilingExtensionC2Ev
Ezj:__ZN6il2cpp2vm7Runtime12GetConfigDirEv
_9i:_VerticalLayoutGroup__ctor_m321345421
vr:__ZN4PPtrI13MonoBehaviourE8TransferI18StreamedBinaryReadILb0EEEEvRT_
o$g:_Enumerator_MoveNext_m1177880931_AdjustorThunk
sqf:_Slider_UpdateVisuals_m3662961057
Ozi:__ZL82Event_t2956885303_CustomAttributesCacheGenerator_Event_get_commandName_m4275147343P21CustomAttributesCache
dkj:_TextGenerator_Populate_m194003733
nqi:__ZL111ScriptableObject_t2528358522_CustomAttributesCacheGenerator_ScriptableObject_CreateInstanceFromType_m1997111014P21CustomAttributesCache
qle:_DerivedType_get_FullName_m1025358827
EGd:_CryptoConfig_MapNameToOID_m2044758263
MHi:__ZL70InputField_t3762917431_CustomAttributesCacheGenerator_m_OnValueChangedP21CustomAttributesCache
AJb:__ZN13RenderManager22OnWindowSizeHasChangedEv
YGb:__Z39WriteQueueForTransferSignatureIntoCacheRK31TransferFunctionScriptingTraitsRK24TransferRequestSignature17ScriptingClassPtrR23CachedSerializationDataRb
hjb:__ZN13RenderManager18UpdateAllRenderersEv
mCg:_Encoding_get_UTF8UnmarkedUnsafe_m320312322
iGg:_Thread_Thread_free_internal_m333849022
VCc:__Z35Transfer_Blittable_FixedBufferFieldI9JSONWritexEvRK29SerializationCommandArgumentsR31RuntimeSerializationCommandInfo
RYi:_CostDelegate_BeginInvoke_m2828452701
Ehd:__ZN22BaseUnityConnectClient30OnEnteringStatePausedOrStoppedEv
oSc:__ZN10ClipperLib7Clipper18SwapPositionsInAELEPNS_5TEdgeES2_
txh:_Collection_1_ConvertItem_m1556170494_gshared
Xu:__ZN7mecanim5human12HumanPoseAddERNS0_9HumanPoseERKS1_S4_
oWf:_DateTime_ToUniversalTime_m1945318289
V7d:_ArrayList_ToArray_m3827492363
Kqf:_Slider_get_stepSize_m1423227661
vMg:_UInt64_Parse_m819899889
mNf:_SymmetricAlgorithm_set_IV_m3196220308
Ine:_GenericTypeParameterBuilder_GetHashCode_m852224381
Age:_Convert_ToUInt32_m1453583008
o4f:_CompareInfo_Compare_m894311506
_Ra:__Z24MergeTransformComponentsR9TransformS0_b
rtj:__ZNK15dense_hashtableI10KeyWrapperIPK19Il2CppGenericMethodES4_N6il2cpp8metadata23Il2CppGenericMethodHashEN14dense_hash_setIS4_S7_NS4_14EqualsComparerINS6_26Il2CppGenericMethodCompareEEENSt3__29allocatorIS4_EEE8IdentityESB_SE_E10test_emptyEj
ybj:_U3CStartU3Ec__Iterator0_Dispose_m210235417
mpd:_EventSystem_UpdateModules_m3643806022
PYj:__ZN6il2cpp2gc16GarbageCollector10StartWorldEv
COc:__ZN15b2CircleContactD0Ev
fmj:_AnimationOffsetPlayable__cctor_m1029460816
XMh:_InvokableCall_1__ctor_m2610016537_gshared
YBi:__ZL54Collision2D_t2842956331_CustomAttributesCacheGeneratorP21CustomAttributesCache
jPf:_Evidence_get_SyncRoot_m2835084965
dag:_SetPropertyUtility_SetStruct_TisTouchScreenKeyboardType_t1530597702_m2455393348_gshared
aTg:_DefaultComparer__ctor_m2280347240_gshared
Vgi:__ZL59ICryptoTransform_t2733259762_CustomAttributesCacheGeneratorP21CustomAttributesCache
X_j:__ZN6il2cpp2vm13ComObjectBase19GetRuntimeClassNameEPP15Il2CppHString__
Tde:_Convert_ToBoolean_m2833489984
ak:_emscripten_glVertexAttribPointer
Kck:__ZNSt11logic_errorD0Ev
QWa:__ZNK20IntermediateRenderer12GetSceneMaskEv
LJb:__ZN14PreloadManager26UpdatePreloadingSingleStepENS_21UpdatePreloadingFlagsEi
qcj:_TweenRunner_1__ctor_m340723704_gshared
ypf:_ScrollRect_SetLayoutHorizontal_m3078869633
Ysf:_SimpleCollator__ctor_m1587210019
goc:__Z57Register_UnityEngine_RectTransform_INTERNAL_set_anchorMinv
wge:_Convert_ToUInt16_m1480956416
Xza:__ZN6prcoreL25inner_stretch_i8_bilinearEPKNS_9InnerInfoE
Bkb:__ZL30RegisterFilteredObjectCallbackPP12Il2CppObjectiPv
_Hh:_ReadOnlyCollection_1_System_Collections_Generic_IListU3CTU3E_RemoveAt_m3317217538_gshared
qzi:__ZL54AudioSource_t3935305588_CustomAttributesCacheGeneratorP21CustomAttributesCache
bKb:__Z19InitializeGfxDevicev
JS:__ZN11UnityEngine15CloudWebService16SessionContainer24GetSessionHeaderJsonDataERKN4core12basic_stringIcNS2_20StringStorageDefaultIcEEEERNS2_13StringBuilderE
Vke:_DerivedType_GetEvent_m4157575360
Sca:__ZN13RuntimeStaticI21AssetReferenceStorageLb0EE13StaticDestroyEPv
HFd:_SByte_System_IConvertible_ToType_m4075253447_AdjustorThunk
Jae:_Comparer__ctor_m2831654082
xhg:_Array_InternalArray__set_Item_TisKeyValuePair_2_t2530217319_m258011711_gshared
Ejh:__Z72RuntimeInvoker_Bounds_t2266837910_RuntimeObject_Matrix4x4U26_t3606180965PFvvEPK10MethodInfoPvPS4_
KWj:__ZN6il2cpp6icalls8mscorlib6System9AppDomain22InternalGetProcessGuidEP12Il2CppString
hXc:_cf2_builder_moveTo
qli:__ZL79Convert_t2465617642_CustomAttributesCacheGenerator_Convert_ToUInt32_m3188121845P21CustomAttributesCache
C2g:__Z48RuntimeInvoker_RuntimeObject_Decimal_t2948259380PFvvEPK10MethodInfoPvPS4_
yGg:_ThreadStart_EndInvoke_m3768045394
uOa:__ZNK17FileSystemHandler10IsReadOnlyERK13FileEntryData
wyj:__ZNSt3__214__split_bufferIP9FieldInfoRNS_9allocatorIS2_EEEC2EjjS5_
JEd:_StreamingContext__ctor_m2604757771_AdjustorThunk
Kwb:__Z18Transfer_BlittableI24GenerateTypeTreeTransferLb1EjEvRK29SerializationCommandArgumentsR31RuntimeSerializationCommandInfo
tFj:__ZNK15dense_hashtableINSt3__24pairIK10KeyWrapperINS1_IPK11Il2CppImageP11Il2CppClassEEEjEES9_17ReflectionMapHashIS8_EN14dense_hash_mapIS9_jSD_NS9_14EqualsComparerINS0_8equal_toIS8_EEEENS0_9allocatorISB_EEE9SelectKeyESI_SK_E10test_emptyERK30dense_hashtable_const_iteratorISB_S9_SD_SM_SI_SK_E
rpj:__ZN6il2cpp2os12FastAutoLockD2Ev
Rbi:__ZL68AssemblyCopyrightAttribute_t836190902_CustomAttributesCacheGeneratorP21CustomAttributesCache
P7:__ZN11ColorRGBA328TransferI14SafeBinaryReadEEvRT_
sth:_Collection_1_Add_m1736908447_gshared
qZc:_cff_vstore_done
Qdh:__Z68RuntimeInvoker_Void_t1185182177_UInt16_t2177724958_SByte_t1669577662PFvvEPK10MethodInfoPvPS4_
shb:__ZN15ResourceManager10Dependency8TransferI24GenerateTypeTreeTransferEEvRT_
XId:_MACTripleDES_HashFinal_m3613553534
RLg:_UInt64_System_IConvertible_ToChar_m2074245892
xEg:_UTF8Encoding_InternalGetBytes_m1965760031
Tf:_emscripten_glClearDepth
Tbc:__ZNK8GUILayer22GetTypeVirtualInternalEv
u6a:__ZN14SafeBinaryRead21TransferSTLStyleArrayINSt3__26vectorIN15QualitySettings14QualitySettingENS1_9allocatorIS4_EEEEEEvRT_17TransferMetaFlags
rNh:_UnityAction_1__ctor_m3007623985_gshared
U9e:_KeyCollection__ctor_m2388548663_gshared
imh:__Z56RuntimeInvoker_Boolean_t97287965_ILTokenInfo_t2325775114PFvvEPK10MethodInfoPvPS4_
rfb:__ZNSt3__26vectorINS_4pairIPKN5Unity4TypeE7Hash128EENS_9allocatorIS7_EEE8__appendEj
ezf:_ContentInfo__ctor_m1888388023
tZc:_cff_font_load
oXj:__GLOBAL__sub_I_LibraryLoader_cpp
iic:__Z13IsPathCreatedRKN4core12basic_stringIcNS_20StringStorageDefaultIcEEEE
yGi:__ZL99Dropdown_t2274391225_CustomAttributesCacheGenerator_Dropdown_DelayedDestroyDropdownList_m2082128994P21CustomAttributesCache
Glg:_Debug_LogWarningFormat_m2535776735
Cza:__ZL22stbir__encode_scanlineP11stbir__infoiPvPfiii
Mve:_ExternalException__ctor_m2877839282
lWc:__ZN20QuadTreeNodeRenderer13StaticDestroyEPv
FT:__ZN11UnityEngine15CloudWebService20WebRequestRestClient5AbortEv
R$i:_Regex_Matches_m2080913806
K8b:__ZN9Transform12CleanupClassEv
dxg:_Sprite_get_rect_m2575211689
Gpg:_Mathf_Sin_m3411839043
z8c:_UNITY_FT_Set_Pixel_Sizes
she:_OperatingSystem_Clone_m1122165140
rTi:_GameObject_AddComponent_TisRuntimeObject_m3469369570_gshared
dla:__ZNSt3__26vectorIN9ShaderLab19SerializedSubShaderENS_9allocatorIS2_EEE26__swap_out_circular_bufferERNS_14__split_bufferIS2_RS4_EE
AA:__ZN11UnityEngine9Animation33SetGenericTransformPropertyValuesERKNS0_30AnimatorGenericBindingConstantERKN7mecanim10ValueArrayEP9Transformy
Yji:__ZL59AttributeTargets_t1784037988_CustomAttributesCacheGeneratorP21CustomAttributesCache
Ouh:_Collection_1_System_Collections_IList_get_Item_m3426129749_gshared
TMj:__ZN6il2cpp2vmL24thread_cleanup_on_cancelEPv
oWh:_List_1_RemoveAll_m3165362277_gshared
SIg:_Type_type_is_subtype_of_m1406623598
mbg:_Array_InternalArray__IEnumerable_GetEnumerator_TisRaycastResult_t3360306849_m3650537473_gshared
YEg:_Thread_get_CurrentThread_m4142136012
gXa:__Z30ProcessDynamicBatchGeometryJobP25DynamicVBOGeometryJobDataj
lRb:__ZNSt3__27__sort4IRNS_6__lessI11CulledLightS2_EEPS2_EEjT0_S6_S6_S6_T_
bBj:__ZN6il2cpp2vm14TypeNameParser26ParseArrayModifierOptionalEv
B_:__Z26scripting_object_get_class18ScriptingObjectPtr
SNj:__ZN6il2cpp6icalls8mscorlib6System10Reflection8Assembly13get_code_baseEP24Il2CppReflectionAssemblyb
cib:__ZNSt3__26vectorIN4core12basic_stringIcNS1_20StringStorageDefaultIcEEEE13stl_allocatorIS5_L18MemLabelIdentifier13ELi16EEE7reserveEj
MHd:_DSASignatureDeformatter__ctor_m2889130126
kHf:_X509ChainElementCollection_Clear_m2271223414
n8b:__ZNK28MonoBehaviourPropertyBinding15GenerateBindingERKN4core12basic_stringIcNS0_20StringStorageDefaultIcEEEEbRN11UnityEngine9Animation14GenericBindingE
xvg:_RectTransform_INTERNAL_set_pivot_m1160676233
f$h:_List_1_set_Item_m35836043_gshared
dJi:__ZL70ScrollRect_t4137855814_CustomAttributesCacheGenerator_m_OnValueChangedP21CustomAttributesCache
bHf:_X509ChainElementCollection__ctor_m3424079155
ZYi:_LinkStack_Push_m3081279930
h8e:_Enumerator_MoveNext_m1107569389_gshared
xyj:__ZNSt3__26vectorIP9FieldInfoNS_9allocatorIS2_EEE26__swap_out_circular_bufferERNS_14__split_bufferIS2_RS4_EE
Gbj:_UnityEvent_3_GetDelegate_m1156357290_gshared
YYj:__ZN6il2cpp6icalls8mscorlib6System11Environment15internalGetHomeEv
D_e:_InternalEnumerator_1__ctor_m4200721464_gshared
fqg:_Matrix4x4_GetHashCode_m4034747639_AdjustorThunk
Pue:_ResourceCacheItem_t51292791_marshal_pinvoke_cleanup
JX:__ZNK5Unity9Component7GetNameEv
$yj:__ZNSt3__214__split_bufferIN6il2cpp6icalls8mscorlib6System12PropertyPairERNS_9allocatorIS5_EEEC2EjjS8_
pNf:_SymmetricAlgorithm_get_KeySize_m4185004893
pUh:_List_1_GetEnumerator_m232588170_gshared
Gjf:_U3CDelayedSetDirtyU3Ec__Iterator0_Reset_m160466733
Paj:_Imageinserter_Start_m3386531352
_kg:_Native__cctor_m1435623442
yZh:_List_1_System_Collections_IList_Remove_m1070694895_gshared
m4i:_LayoutCache__ctor_m3885940174
Y6a:__ZN13ScreenManagerD0Ev
Juc:_UNITY_png_set_error_fn
eKc:__ZNK11b2RopeJoint16GetReactionForceEf
NB:__ZN7mecanim8skeleton26SkeletonPoseComputeGlobalQEPKNS0_8SkeletonEPKNS0_13SkeletonPoseTIN4math4trsXEEEPS7_ii
JUi:_TlsServerSettings__ctor_m373357120
QLg:_UInt64_System_IConvertible_ToByte_m1501504925_AdjustorThunk
Yjj:_TextGenerator_Invalidate_m1072346986
eFe:_TlsClientHello_ProcessAsTls1_m2549285167
$rh:__Z74RuntimeInvoker_Boolean_t97287965_UIVertex_t4057497605_UIVertex_t4057497605PFvvEPK10MethodInfoPvPS4_
VFh:_ReadOnlyCollection_1_System_Collections_IList_Clear_m3591436538_gshared
fof:_ScrollRect_set_decelerationRate_m723367336
nB:__ZN9BlobWrite8TransferI22OffsetPtrArrayTransferIiEEEvRT_PKc17TransferMetaFlags
cVf:_EncoderExceptionFallback_Equals_m2760188920
Yub:__Z18Transfer_BlittableI17RemapPPtrTransferLb1EjEvRK29SerializationCommandArgumentsR31RuntimeSerializationCommandInfo
tJd:_RC2CryptoServiceProvider_get_EffectiveKeySize_m3835262416
oK:__ZN4FMOD6System7releaseEv
Iyb:__Z18Transfer_BlittableI19StreamedBinaryWriteILb0EELb1E8BitFieldEvRK29SerializationCommandArgumentsR31RuntimeSerializationCommandInfo
w4d:_Boolean_CompareTo_m3665076258
sSf:_String_Split_m3580120853
kyf:_PrivateKeyInfo__ctor_m2811023496
B1:__Z18PathToAbsolutePathRKN4core12basic_stringIcNS_20StringStorageDefaultIcEEEE
qpe:_PropertyBuilder_GetCustomAttributes_m2917594003
h5i:_GUILayoutUtility_LayoutFromEditorWindow_m2914699782
Wwe:_BigInteger_SetBit_m1723423691
Vkh:__Z78RuntimeInvoker_RuntimeObject_ObjectU26_t2146539884_RuntimeObject_RuntimeObjectPFvvEPK10MethodInfoPvPS4_
P8h:__ZL65X509ExtensionCollection_t609554708_CustomAttributesCacheGeneratorP21CustomAttributesCache
igd:__ZN21UnityAnalyticsManager15ThreadedCleanupEv
eza:__ZL13BlitImageImplR14ImageReferenceiiRKS_NS_10ColorSpaceENS_8BlitModeEb
wdc:__ZN15DirectorManager17AcquireOutputNodeEv
nBa:__ZN6prcoreL17RemapGenericFloatI18TexFormatRGBAFloat17TexFormatRGBFloatEEvPKNS_9InnerInfoE
uTi:_GameObject_GetComponentInChildren_TisRuntimeObject_m1310240902_gshared
Lwi:__ZL69PersistentCall_t3407714124_CustomAttributesCacheGenerator_m_ArgumentsP21CustomAttributesCache
$Ha:__ZN16GeometryJobTasks20ScheduleGeometryJobsER9GfxDevicePFvP15GeometryJobDataEPK22GeometryJobInstructionjb
sFe:_TlsServerCertificateRequest_ProcessAsSsl3_m1084200341
tI:__ZN12AudioManager29ShutdownReinitializeAndReloadEv
jZa:__ZN16ReflectionProbes28GetMinBakedCubemapResolutionEv
bPf:_PermissionSet__ctor_m2328457660
eij:__ZL25UnresolvedVirtualCall_188P12Il2CppObject6Guid_tPK10MethodInfo
Lcf:_Enumerator__ctor_m1849900510_gshared
f_j:__GLOBAL__sub_I_String_cpp
qpj:__ZN15dense_hashtableINSt3__24pairIK10KeyWrapperIPK22Il2CppGenericParameterEP11Il2CppClassEES6_N6il2cpp5utils11PointerHashIS4_EEN14dense_hash_mapIS6_S9_SE_NS6_14EqualsComparerINS0_8equal_toIS5_EEEENS0_9allocatorISA_EEE9SelectKeyESJ_SL_E6insertERKSA_
Ghf:_InputField_GenerateCaret_m1459647218
kvi:__ZL101SpriteAtlasManager_t3158462485_CustomAttributesCacheGenerator_SpriteAtlasManager_Register_m2413332465P21CustomAttributesCache
BWi:_X509CertificateEnumerator__ctor_m85694331
$ua:__ZN14DataBufferGLES16RecreateWithDataEjPKv
w3:__Z29GetGlobalAllowNameConversionsv
ggg:_Array_InternalArray__Insert_TisTableRange_t3332867892_m558285859_gshared
f$b:__ZN8Material8SetColorEN9ShaderLab16FastPropertyNameERK10ColorRGBAf
fEi:__ZL77ExecuteEvents_t3484638744_CustomAttributesCacheGenerator_U3CU3Ef__mgU24cacheFP21CustomAttributesCache
VPh:_Enumerator_System_Collections_IEnumerator_Reset_m3754523291_gshared
Vlk:_glUniform3uiv__wrapper
hki:__ZL77Convert_t2465617642_CustomAttributesCacheGenerator_Convert_ToByte_m2375887898P21CustomAttributesCache
mM:__ZN11AudioSource23VirtualRedirectTransferER18StreamedBinaryReadILb0EE
TGf:_X509CertificateEnumerator__ctor_m943731472
wtg:_RangeInt_get_end_m4128831787
Vca:__ZN21AssetReferenceStorageC2Ev
VMh:_InvokableCall_1_Find_m1741895083_gshared
nzb:__ZN10RectOffset8TransferI19StreamedBinaryWriteILb0EEEEvRT_
Xdk:dynCall_iiifiii
K$:__ZL41AssemblyNameMatchesWithOrWithoutExtensionPKcS0_
rYh:_List_1_set_Item_m2082115010_gshared
EBg:_Encoding_GetBytes_m3735967069
JJc:__ZN23ColliderTilingExtension5ResetEv
h2d:_Array_Initialize_m3004991267
BEa:__ZN14GfxContextGLES43AddRenderSurfaceToDeferredFBOInvalidateListEPK17RenderSurfaceGLES
sOj:__ZN6il2cpp6icalls8mscorlib6System9Threading6Thread15Thread_internalEP12Il2CppThreadP14Il2CppDelegate
rpa:__ZN11NamedObject23VirtualRedirectTransferER14SafeBinaryRead
Erf:_Text_get_resizeTextMinSize_m1002355407
o8c:__ZNSt3__26vectorIN20TextRenderingPrivate8FontImpl13CharacterInfoE13stl_allocatorIS3_L18MemLabelIdentifier1ELi16EEE6insertENS_11__wrap_iterIPKS3_EERS9_
lMa:__ZN23PreloadManagerOperation6IsDoneEv
$Uh:_List_1_GrowIfNeeded_m3796726_gshared
BEj:__ZNK15dense_hashtableINSt3__24pairIK10KeyWrapperINS1_IPK10MethodInfoP11Il2CppClassEEEjEES9_17ReflectionMapHashIS8_EN14dense_hash_mapIS9_jSD_NS9_14EqualsComparerINS0_8equal_toIS8_EEEENS0_9allocatorISB_EEE9SelectKeyESI_SK_E8min_sizeEjj
Dnf:_Selectable_get_navigation_m3508916916
XTc:__ZN10Effector2D10EndContactEP9b2Contact
x_j:__ZN6il2cpp5utils11StringUtils11Utf16ToUtf8ERKNSt3__212basic_stringIDsNS2_11char_traitsIDsEENS2_9allocatorIDsEEEE
uze:_MD4Managed_Decode_m4273685594
R9g:__Z50RuntimeInvoker_Int64_t3736567304_Int16_t2552820387PFvvEPK10MethodInfoPvPS4_
Ljb:__ZN21LightProbeProxyVolume18HasHardwareSupportEv
GOc:__ZNK20b2SeparationFunction17FindMinSeparationEPiS0_f
Sza:__ZN6prcoreL31inner_stretch_argb8888_bilinearEPKNS_9InnerInfoE
KAb:__Z18Transfer_BlittableI18StreamedBinaryReadILb1EELb1E8BitFieldEvRK29SerializationCommandArgumentsR31RuntimeSerializationCommandInfo
q6:__ZNK4PPtrI11LightProbesEcvPS0_Ev
S1c:_UNITY_FT_Outline_Decompose
FNd:_Int64_System_IConvertible_ToChar_m1509243576_AdjustorThunk
NVi:_GeneralNames_get_IPAddresses_m4242915644
I$f:_Decimal_op_Implicit_m3873897383
$_g:_Enumerator_Dispose_m3500272053_AdjustorThunk
Z2j:_GC_init_size_map
lUa:__Z20scripting_object_new17ScriptingClassPtr
$6h:__ZL69RuntimeArray_CustomAttributesCacheGenerator_Array_Reverse_m3714848183P21CustomAttributesCache
xyf:_KeyGeneratedEventHandler_Invoke_m2527485594
QDd:_Image_get_layoutPriority_m1290204116
DDj:__ZN24dense_hashtable_iteratorINSt3__24pairIK10KeyWrapperINS1_IPK9FieldInfoP11Il2CppClassEEEjEES9_17ReflectionMapHashIS8_EN14dense_hash_mapIS9_jSD_NS9_14EqualsComparerINS0_8equal_toIS8_EEEENS0_9allocatorISB_EEE9SelectKeyESI_SK_E30advance_past_empty_and_deletedEv
Q1i:_Repetition_get_Expression_m2673886232
QZf:_Decimal__ctor_m1925875020_AdjustorThunk
CSe:_SerializationCallbacks__ctor_m3863304525
sMa:__ZN23PreloadManagerOperation21MustCompleteNextFrameEv
igi:__ZL59SerializationInfo_t950877179_CustomAttributesCacheGeneratorP21CustomAttributesCache
P:Math_exp
hjg:_Vector3_Min_m1803158933
Xo:FUNCTION_TABLE_iiifi
tWj:__ZN6il2cpp2os5posix13PosixAutoLockD2Ev
bUc:__ZN13BoxCollider2D15InitializeClassEv
UUi:_TlsServerSettings_set_CertificateTypes_m2047242411
n6i:_SymmetricTransform_OFB_m3690147804
v2e:_InternalEnumerator_1_MoveNext_m3713722659_AdjustorThunk
QWc:_cff_get_advances
sGb:__ZN13MonoBehaviour9SetScriptERK4PPtrI10MonoScriptE18ScriptingObjectPtr
Joj:_RaycastHit2D_get_collider_m1549426026
fub:__Z18Transfer_BlittableI17RemapPPtrTransferLb0E8Vector2fEvRK29SerializationCommandArgumentsR31RuntimeSerializationCommandInfo
sRj:__ZNSt3__218uninitialized_copyIPNS_4pairIK10KeyWrapperIP14Il2CppIUnknownEjEES8_EET0_T_SA_S9_
Eph:__Z77RuntimeInvoker_Void_t1185182177_Vector2U5BU5DU26_t476646542_Int32_t2950945753PFvvEPK10MethodInfoPvPS4_
Nzf:_PKCS12_get_RNG_m2649456600
ENa:__ZNK10FileSystem16LastErrorMessageEv
khg:_Array_InternalArray__Insert_TisVector3_t3722313464_m3862657277_gshared
wvi:__ZL104NativeClassAttribute_t2601352714_CustomAttributesCacheGenerator_U3CQualifiedNativeNameU3Ek__BackingFieldP21CustomAttributesCache
DPf:_SecurityException__ctor_m1631242336
urj:__ZN15dense_hashtableINSt3__24pairIK10KeyWrapperIPK11Il2CppClassEPKcEES6_N6il2cpp5utils11PointerHashIS3_EEN14dense_hash_mapIS6_S9_SE_NS6_14EqualsComparerINS0_8equal_toIS5_EEEENS0_9allocatorISA_EEE9SelectKeyESJ_SL_E14squash_deletedEv
nqd:_EventSystem_Update_m1662072334
Vnd:__ZN22UnityWebRequestManager10InitializeEv
JFb:__ZN13MonoBehaviour13AwakeFromLoadE17AwakeFromLoadMode
Fai:__ZL51FileMode_t1183438340_CustomAttributesCacheGeneratorP21CustomAttributesCache
Rub:__ZL26Transfer_SimpleNativeClassI17RemapPPtrTransfer8GradientLb1EEvRK29SerializationCommandArgumentsR31RuntimeSerializationCommandInfo
Rpd:_RaycasterManager_RemoveRaycasters_m3057093063
Hec:__ZN12CachedWriter9InitWriteER15CacheWriterBase
ldc:__Z21UnsignedInt64ToStringy
rmf:_GetRaycastNonAllocCallback_BeginInvoke_m3984885848
TYe:_InternalEnumerator_1_MoveNext_m4138204635_AdjustorThunk
$Zi:_PatternCompiler_BeginLink_m1295557963
LSa:__ZN14SafeBinaryRead21TransferSTLStyleArrayI13dynamic_arrayI17SortingLayerEntryLj4EEEEvRT_17TransferMetaFlags
Zgi:__ZL46MD5_t3177620429_CustomAttributesCacheGeneratorP21CustomAttributesCache
cKd:_GuidParser_ThrowFormatException_m3223388534
o1i:_Group_GetAnchorInfo_m3730312864
$Gi:__ZL50Graphic_t1660335611_CustomAttributesCacheGeneratorP21CustomAttributesCache
vaf:_KeyCollection_System_Collections_Generic_ICollectionU3CTKeyU3E_Add_m454648927_gshared
jIg:_TimeSpan_op_LessThanOrEqual_m300470010
kMe:_ContextAttribute_Freeze_m3288175579
rqc:__Z66Register_UnityEngine_Transform_INTERNAL_CALL_InverseTransformPointv
Qea:__ZZN15DirectorManager15InitializeClassEvEN41FixedUpdateDirectorFixedUpdateRegistrator7ForwardEv
BSd:_MemoryStream_get_Position_m3733941202
G7:__ZN12LineRenderer8TransferI14SafeBinaryReadEEvRT_
vsi:__ZL96TouchScreenKeyboard_t731888065_CustomAttributesCacheGenerator_TouchScreenKeyboard_Open_m43950298P21CustomAttributesCache
idj:_AudioClipPlayable_Equals_m3705880618
B2b:__ZL10KeyHandleriPK23EmscriptenKeyboardEventPv
ece:_Slot_t3975888750_marshal_pinvoke
hnk:_glLinkProgram__wrapper
Hmb:__ZN18ScriptingArguments8AddInt64Ex
AAa:__ZN6prcoreL12RemapGenericI17TexFormatARGB888815TexFormatBGR888EEvPKNS_9InnerInfoE
mnb:__ZN12HandlerChain4LockER13FileEntryData12FileLockMode
x6f:_TextInfo_get_ListSeparator_m1628160079
YDi:__ZL77ExecuteEvents_t3484638744_CustomAttributesCacheGenerator_U3CU3Ef__mgU24cache6P21CustomAttributesCache
Zpf:_Selectable_OnCanvasGroupChanged_m472903475
fFg:_EventWaitHandle_Reset_m3348053200
edf:_Enumerator_get_Current_m2897627569_gshared
Ald:__ZN28UnityConnectScriptingClasses23CallSessionStateChangedEixxbP21ScriptingExceptionPtr
GCe:_ClientContext_get_SslStream_m1583577309
MQj:__ZN6il2cpp6icalls8mscorlib6System13Globalization11CultureInfo35construct_internal_locale_from_nameEP17Il2CppCultureInfoP12Il2CppString
Zwb:__ZL22Transfer_ManagedObjectI24GenerateTypeTreeTransferLb1EEvRK29SerializationCommandArgumentsR31RuntimeSerializationCommandInfo
A1g:__Z100RuntimeInvoker_Boolean_t97287965_RuntimeObject_Int32_t2950945753_RuntimeObject_UInt16U26_t2814738322PFvvEPK10MethodInfoPvPS4_
_ph:__Z56RuntimeInvoker_ILTokenInfo_t2325775114_Int32_t2950945753PFvvEPK10MethodInfoPvPS4_
gId:_HMAC_get_BlockSizeValue_m455678067
ROb:__ZN15RenderNodeQueueC2E10MemLabelId
Lue:_ResourceEnumerator_FillCache_m1661715061
XFh:_ReadOnlyCollection_1_System_Collections_IList_IndexOf_m3664838805_gshared
jii:__ZL72SecuritySafeCriticalAttribute_t3505979402_CustomAttributesCacheGeneratorP21CustomAttributesCache
jk:_emscripten_set_main_loop_timing
Xig:_Bounds_get_min_m3755135869
pge:_Convert_ToUInt16_m3523269149
Jig:_Bounds_get_center_m1418449258
vwa:__ZN14DataBufferGLES12RecordRenderEv
mrd:_ExecuteEvents_get_endDragHandler_m2879610446
O_b:__ZN14ImageReference10FlipImageYEv
cAj:_UsedByNativeCodeAttribute__ctor_m2647015777
CTa:__Z32TransferEnumWithNameForceIntSizeI14SafeBinaryRead13TargetEyeMaskEvRT_RT0_PKc17TransferMetaFlags
hzc:__Z14GetDefaultSkini
FF:__ZN4FMOD3DSP9setBypassEb
u2b:__Z19NormalizeWheelInputf
uBd:_Graphic_DoMeshGeneration_m3548487693
r1b:__Z29StdTemplateConversionFunctionIsaEbPvR14SafeBinaryRead
Py:__ZNK4PPtrI13MonoBehaviourEcvPS0_Ev
n$i:_Repetition__ctor_m1672362629
gIc:__Z29Transfer_Blittable_ArrayFieldI8JSONReadhEvRT_R9ArrayInfoRK23StaticTransferFieldInfo
GQf:_SecurityFrame_ToString_m339310712_AdjustorThunk
Jpe:_TypeBuilder_create_runtime_class_m2581270900
XWe:_InternalEnumerator_1_get_Current_m3008260692_gshared
x7j:__ZN6il2cpp2os20ThreadLocalValueImpl8SetValueEPv
PUa:__ZN22RenderingCommandBuffer20CleanupCommandBufferEv
K$f:_Decimal_op_Implicit_m2299919277
XCc:__Z18Transfer_BlittableI9JSONWriteLb1EtEvRK29SerializationCommandArgumentsR31RuntimeSerializationCommandInfo
BVd:_UnexceptionalStreamReader_ReadToEnd_m920589220
kWf:_DateTime_System_IConvertible_ToType_m1242864300
RSf:_String_IndexOf_m1298810678
Dk:___syscall85
Wzi:__ZL85GUI_t1624858472_CustomAttributesCacheGenerator_GUI_set_nextScrollStepTime_m1026410471P21CustomAttributesCache
LTi:_Mesh_GetAllocArrayFromChannel_TisVector3_t3722313464_m2332439905_gshared
WOb:__ZNSt3__26__sortIRPFbP10GUIElementS2_EPS2_EEvT0_S7_T_
Zbc:__ZN16GraphicsSettings12CleanupClassEv
Fke:_ConstructorBuilder_GetILGenerator_m1750792206
$Ag:_EncoderFallback_get_ReplacementFallback_m818398284
kXj:__ZN6il2cpp2os6Thread19DetachCurrentThreadEv
Iqd:_EventTrigger_OnBeginDrag_m4203438710
Mpj:__ZN6il2cpp2vmL21SetupInterfacesLockedEP11Il2CppClassRKNS_2os12FastAutoLockE
zpb:__ZN11MonoManager23VirtualRedirectTransferER24GenerateTypeTreeTransfer
QQi:_Dictionary_2_Do_CopyTo_TisRuntimeObject_TisRuntimeObject_m2344529027_gshared
Oz:__ZN23AnimationPlayableOutput17SetSourcePlayableEP8Playable
NYj:__ZN6il2cpp2gc16GarbageCollector22MakeDescriptorForArrayEv
Zqh:__Z37RuntimeInvoker_UILineInfo_t4195266810PFvvEPK10MethodInfoPvPS4_
elg:_CullingGroup_Dispose_m782801025
QRg:_Dictionary_2_System_Collections_IDictionary_GetEnumerator_m529247385_gshared
FS:__ZN11UnityEngine15CloudWebService14DataDispatcher15SetupWebRequestEv
fih:__Z64RuntimeInvoker_Boolean_t97287965_RuntimeObject_Int16_t2552820387PFvvEPK10MethodInfoPvPS4_
Nid:__ZN11UnityEngine15PlatformWrapper13GetShaderCapsEv
wWb:__ZNSt3__211__sift_downIR26RenderDeferredObjectSorterP16RenderObjectDataEEvT0_S5_T_NS_15iterator_traitsIS5_E15difference_typeES5_
qne:_GenericTypeParameterBuilder_IsDefined_m98179866
MBi:__ZL82Physics2D_t1528932956_CustomAttributesCacheGenerator_Physics2D_Raycast_m1377762210P21CustomAttributesCache
uxf:_KeyPairPersistence_get_MachinePath_m3812267291
xde:_Stack_Peek_m2216191248
Xcj:_ListPool_1_U3Cs_ListPoolU3Em__0_m657844629_gshared
ZVf:_DateTime_System_IConvertible_ToDecimal_m1044850612_AdjustorThunk
Hcc:__ZN21FixedBehaviourManager6UpdateEv
Shc:__ZN9Transform9SetParentEPS_NS_15SetParentOptionE
u5:__ZN19ShaderPropertySheet8SetFloatEN9ShaderLab16FastPropertyNameEfNS_8SetFlagsE
Cib:__ZN19RuntimeSceneManager24BeginIntegrateMainThreadEP10UnityScene
kFe:_TlsServerCertificate_ProcessAsSsl3_m1306583193
WXj:__ZNSt3__2plIcNS_11char_traitsIcEENS_9allocatorIcEEEENS_12basic_stringIT_T0_T1_EERKS9_S6_
AUd:_StringReader_CheckObjectDisposedException_m3796163530
Gka:__ZN9ShaderLab20SerializedSubProgramaSERKS0_
vdk:_roundf
sPg:_Dictionary_2_pick_value_m4268517353_gshared
p5d:_Byte_System_IConvertible_ToSingle_m324484566_AdjustorThunk
v$f:_Decimal_op_Explicit_m2848387298
tZg:_KeyValuePair_2_ToString_m1238786018_gshared
st:__ZN8Animator15SetPrepareStageEv
eF:__ZN8AnimatorC2E10MemLabelId18ObjectCreationMode
Npj:__ZN6il2cpp2vmL24SetupTypeHierarchyLockedEP11Il2CppClassRKNS_2os12FastAutoLockE
C2b:__ZL11TextHandleriPK23EmscriptenKeyboardEventPv
IPe:_SoapFieldAttribute_get_XmlElementName_m2203304026
L7c:_destroy_face
rjk:_glBlendEquationSeparate__wrapper
BVc:__ZN5physx19PxAllocatorCallbackD2Ev
t4j:__ZN6il2cpp6icalls8mscorlib6System8Security12Cryptography24RNGCryptoServiceProvider13RngInitializeEP11Il2CppArray
lTj:_ImageConversion_LoadImage_m2182108104
Hpi:__ZL68UsedByNativeCodeAttribute_t1703770351_CustomAttributesCacheGeneratorP21CustomAttributesCache
vM:__ZN20SoundChannelInstance7setMuteEb
H1g:__Z81RuntimeInvoker_Void_t1185182177_RuntimeObject_Int32_t2950945753_Int32_t2950945753PFvvEPK10MethodInfoPvPS4_
hZa:__ZN4PPtrI5LightE8TransferI19StreamedBinaryWriteILb0EEEEvRT_
KUh:_List_1__cctor_m972674764_gshared
nZd:_NumberFormatter_NumberToString_m3906556024
JBb:__Z19TransferField_ArrayI18StreamedBinaryReadILb1EE27Converter_SimpleNativeClassI17AnimationCurveTplIfEEEvRK23StaticTransferFieldInfoR31RuntimeSerializationCommandInfoRT0_
tUc:__ZN7b2World18SetContactListenerEP17b2ContactListener
$Oc:__ZN14PhysicsQuery2D11LinecastAllERK8Vector2fS2_RKN10Collider2D13ContactFilterEPKS3_bP13dynamic_arrayI12RaycastHit2DLj4EE
_wa:__ZN18GfxFramebufferGLES22MakeCurrentFramebufferENS_7BuiltinE
H$j:__ZN6il2cpp2vm12MarshalAlloc4FreeEPv
h8:__ZN12CachedReader4ReadEPvj
nue:_TypeFilter_EndInvoke_m998903841
uXc:_cf2_blues_init
YRg:_KeyValuePair_2__ctor_m1794021352_gshared
cuf:_SimpleCollator_MatchesForwardCore_m850743967
kTb:__Z24CalculateLightShadowFadeRK6CamerafffR8Vector4f
yba:__ZN19RuntimeSceneManagerD2Ev
axi:__ZL77DeallocateOnJobCompletionAttribute_t3131681843_CustomAttributesCacheGeneratorP21CustomAttributesCache
nna:__ZN13dynamic_arrayIPN9ShaderLab4PassELj4EE9push_backERKS2_
P3f:_CCGregorianCalendar_GetMonth_m1547203696
VT:__ZN11UnityEngine15CloudWebService25WebRequestDownloadHandler17OnCompleteContentEv
Rza:__ZN6prcore17GetIntegerBlitterE13TextureFormatS0_N14ImageReference8BlitModeE
y2j:_GC_print_block_descr
C2h:_Collection_1_IndexOf_m934463944_gshared
GQc:__ZN13BoxCollider2DD0Ev
UEj:__ZN6il2cpp2gc19AppendOnlyGCHashMapINSt3__24pairIPK11Il2CppImageP11Il2CppClassEEP22Il2CppReflectionModule17ReflectionMapHashIS9_ENS2_8equal_toIS9_EEE11TryGetValueERKS9_PSB_
xai:__ZL51Directory_t828876208_CustomAttributesCacheGeneratorP21CustomAttributesCache
L2d:_SimpleEnumerator_Reset_m2182001888
Pmh:__Z86RuntimeInvoker_Int32_t2950945753_Vector2_t2156229523_Vector2_t2156229523_RuntimeObjectPFvvEPK10MethodInfoPvPS4_
Sjc:__ZN9BlobWrite14ReduceCopyImplERK14ReduceCopyDataj
_9:__ZNSt3__26__treeI19RepeatingLogMessageNS_4lessIS1_EE13stl_allocatorIS1_L18MemLabelIdentifier73ELi16EEE12__find_equalIS1_EERPNS_16__tree_node_baseIPvEESD_RKT_
eQ:__ZN11AudioSource18IsPlayingScriptingEv
mxf:_KeyBuilder_IV_m2230195376
LKc:__ZNK12b2WheelJoint10GetAnchorAEv
gik:_glShaderSource__wrapper
wPa:__ZN25MultiBlocksMemoryFileData17AdjustBlocksCountEj
cOj:__ZNSt3__214__split_bufferIN6il2cpp2vm22EmbeddedResourceRecordERNS_9allocatorIS3_EEED2Ev
cSc:__ZN10ClipperLib14PointInPolygonERKNS_8IntPointEPNS_5OutPtE
e6c:__ZN13TextRendering4Font8TransferI24GenerateTypeTreeTransferEEvRT_
Xsa:__ZN9GfxDevice15EndProfileEventEPN9profiling6MarkerE
zlc:__Z27CullingGroup_CUSTOM_DisposeP12Il2CppObject
MNj:__ZN6il2cpp6icalls8mscorlib6SystemL23CheckWideningConversionEjjj
dmd:__ZNSt3__26vectorIP19BaseConnectSettings13stl_allocatorIS2_L18MemLabelIdentifier6ELi16EEE21__push_back_slow_pathIKS2_EEvRT_
BOb:__ZN13ComputeShader15SetTextureParamEjRKN9ShaderLab16FastPropertyNameE9TextureID16TextureDimension
S4e:_Comparer_1__ctor_m319670016_gshared
Lm:_glStencilMask
KXj:__ZN6il2cpp2os10ThreadImpl16GetCurrentThreadEv
ABf:_TypeConverterAttribute_GetHashCode_m948291090
w2b:__ZN15GUIEventManager10QueueEventERK10InputEvent
EHg:__Z33il2cpp_codegen_check_add_overflowxx
R3h:_Collection_1_Clear_m1300437781_gshared
drj:_AnalyticsEvent_OnValidationFailed_m2609604624
nzh:_Collection_1_Contains_m1707523067_gshared
uve:_DecimalConstantAttribute__ctor_m3583301917
wvh:_Collection_1_System_Collections_ICollection_get_IsSynchronized_m1640823718_gshared
_1j:_GC_push_conditional_with_exclusions
E6e:_Enumerator_System_Collections_IDictionaryEnumerator_get_Entry_m2772123357_AdjustorThunk
uOe:_MethodCallDictionary__ctor_m2167303393
mC:__ZN12_GLOBAL__N_121ProcessAnimationBeginER35AnimationPlayableEvaluationConstantR32AnimationPlayableEvaluationInputR33AnimationPlayableEvaluationOutput
tki:__ZL80Convert_t2465617642_CustomAttributesCacheGenerator_Convert_ToDecimal_m2858622624P21CustomAttributesCache
lMi:__ZL68TrackableField_t1772682203_CustomAttributesCacheGenerator_m_EnumTypeP21CustomAttributesCache
xak:_strrchr
Jkg:_Component_GetComponentInParent_m779177818
sKe:__ZN21InterfaceFuncInvoker1IP8String_tS1_E6InvokeEjP11Il2CppClassP12Il2CppObjectS1_
SPg:_Dictionary_2_System_Collections_ICollection_get_SyncRoot_m2069913662_gshared
xud:_UIBehaviour_IsDestroyed_m3033055982
Ach:__Z109RuntimeInvoker_Void_t1185182177_RuntimeObject_RuntimeObject_SByte_t1669577662_Int32_t2950945753_RuntimeObjectPFvvEPK10MethodInfoPvPS4_
fzg:_Enumerator_Reset_m39541243
Unc:__Z33Register_UnityEngine_Random_Rangev
fgf:_InputField_get_readOnly_m3111985574
uZa:__ZN14RenderSettings27UpdateIndirectSpecularColorEv
cpg:_Logger_get_logHandler_m1335645353
sgb:__ZN14PlayerSettings8TransferI18StreamedBinaryReadILb0EEEEvRT_
Hyj:__ZN6il2cpp6icalls8mscorlib6System8MonoType16GetMethodsByNameEP20Il2CppReflectionTypeP12Il2CppStringibS5_
zfi:__ZL73ObjRef_t2141158884_CustomAttributesCacheGenerator_U3CU3Ef__switchU24map26P21CustomAttributesCache
WEi:__ZL102PointerEventData_t3807901092_CustomAttributesCacheGenerator_PointerEventData_set_pointerId_m1888344330P21CustomAttributesCache
hzi:__ZL88AudioClip_t3680889665_CustomAttributesCacheGenerator_AudioClip_get_ambisonic_m3815052287P21CustomAttributesCache
Bjf:_U3CDelayedSetDirtyU3Ec__Iterator0__ctor_m3936335621
y6:__ZN4PPtrI10GameObjectE8TransferI14SafeBinaryReadEEvRT_
qxi:__ZL106PlayableAsset_t3219022681_CustomAttributesCacheGenerator_PlayableAsset_Internal_CreatePlayable_m2550417712P21CustomAttributesCache
yFg:_Monitor_Monitor_wait_m3706677354
TJd:_RijndaelTransform__cctor_m2439033240
TKb:__ZNSt3__27__sort3IRNS_4lessIN22BuiltinResourceManager8ResourceEEEPS3_EEjT0_S7_S7_T_
C7h:__ZL175U3CGetEnumeratorU3Ec__Iterator0_t1202911786_CustomAttributesCacheGenerator_U3CGetEnumeratorU3Ec__Iterator0_System_Collections_Generic_IEnumeratorU3CTU3E_get_Current_m322251035P21CustomAttributesCache
Uej:__ZL24UnresolvedVirtualCall_14P12Il2CppObject25RSAParameters_t1728406613PK10MethodInfo
B4c:_ps_hints_t2mask
FJh:_Comparison_1__ctor_m3138326461_gshared
h9f:_Array_InternalArray__ICollection_Remove_TisMonoResource_t4103430009_m238733686_gshared
TOd:_IntPtr_ToString_m1831665121
Uqf:_Slider_Set_m1476104429
gDd:_Image_set_fillClockwise_m2210525152
Wbb:__ZN10BlendShape8TransferI19StreamedBinaryWriteILb0EEEEvRT_
jG:__Z32TransferEnumWithNameForceIntSizeI14SafeBinaryReadN10SampleClip8LoadTypeEEvRT_RT0_PKc17TransferMetaFlags
KOd:__Z21il2cpp_codegen_sizeofP11Il2CppClass
KDa:__Z19GetTimeSinceStartupv
Oke:_ILGenerator_emit_int_m2322014738
Dpd:_BaseInputModule_DeactivateModule_m856719157
AXj:__ZN6il2cpp2os10ThreadImpl11SetPriorityENS0_14ThreadPriorityE
KPh:_Enumerator_System_Collections_IEnumerator_Reset_m2953002685_gshared
y3g:__Z50RuntimeInvoker_Int64_t3736567304_Int32_t2950945753PFvvEPK10MethodInfoPvPS4_
X3c:_TT_Load_Composite_Glyph
_sa:__ZN9GfxDevice16DeleteTimerQueryEP13GfxTimerQuery
P$h:_List_1_Insert_m1695211546_gshared
weh:__Z49RuntimeInvoker_Void_t1185182177_Color_t2555686324PFvvEPK10MethodInfoPvPS4_
h0a:__ZN9ShaderLab11shaderprops9GetTexEnvEPK19ShaderPropertySheetS3_NS_16FastPropertyNameE16TextureDimensionb
rWh:_List_1_Sort_m3232912161_gshared
M9e:_KeyCollection_System_Collections_ICollection_CopyTo_m1760651091_gshared
ERb:__ZN29RenderNodeQueuePrepareContextC2Ev
rKj:_il2cpp_gc_disable
Sla:__ZN9ShaderLab20SerializedSubProgram16TextureParameter8TransferI24GenerateTypeTreeTransferEEvRT_
OHd:_DSASignatureDeformatter_SetKey_m2999549245
T4j:__ZN6il2cpp2os11MutexHandle4WaitEb
jqa:__ZN9GfxDevice19SaveStereoConstantsEv
S4j:__ZN6il2cpp2os11MutexHandle4WaitEj
Kic:__ZL34GetComponentsImplementationRecurseILb1ELi1ELi1EEbR10GameObjectbRK17CompareParametersRK39GetComponentsImplementation_ReturnValue
I4g:__Z114RuntimeInvoker_Boolean_t97287965_RuntimeObject_RuntimeObject_Int32_t2950945753_Int32_t2950945753_Int32_t2950945753PFvvEPK10MethodInfoPvPS4_
Xje:_AssemblyBuilder_GetTypes_m3415680380
KBa:__ZN6prcoreL17RemapGenericFloatI15TexFormatRGHalf18TexFormatARGBFloatEEvPKNS_9InnerInfoE
c7i:_AnalyticsEventParam_get_groupID_m569309506
x0f:_StackFrame_GetMethod_m1395840764
H_a:__ZNK13RenderTexture13GetDataHeightEv
YIb:__Z18SimulateMouseInputi
SNb:__ZN13RenderManager23AddRemoveCamerasDelayedEv
aEc:__ZN9JSONWrite8TransferI13dynamic_arrayIdLj8EEEEvRT_PKc17TransferMetaFlags
nMa:__ZN23PreloadManagerOperation11GetPriorityEv
Tif:_LayoutElement_OnEnable_m1760066426
ngd:__ZN11UnityEngine9Analytics15AnalyticsConfigC2Ev
CBc:__ZN5Unity9rapidjson6WriterI16TempBufferWriterNS0_4UTF8IcEES4_13JSONAllocatorE11WriteUint64Ey
n3d:_BitConverter__cctor_m3841343255
K_f:_Decimal_Compare_m3062820418
oKf:_IntervalCollection_GetMetaCollection_m4029522214
Dqd:_EventTrigger_OnDeselect_m1919608102
Qjj:_TextGenerator_get_characterCount_m864136654
EX:__ZN12LineRenderer13AwakeFromLoadE17AwakeFromLoadMode
jig:_AsyncOperation_t1445031843_marshal_pinvoke_cleanup
lHg:_TimeSpan__ctor_m2047388489_AdjustorThunk
AZb:__ZN13RenderTexture8SetWidthEi
y8b:__ZNK28RectTransformPropertyBinding12SetPPtrValueERKN11UnityEngine9Animation10BoundCurveEi
hLb:__ZN18FrameTimingManager18GetVSyncsPerSecondEv
PCb:__Z18Transfer_BlittableI18StreamedBinaryReadILb0EELb0EfEvRK29SerializationCommandArgumentsR31RuntimeSerializationCommandInfo
gcb:__ZN10MeshFilterD0Ev
Z3c:_UNITY_FT_GlyphLoader_CheckSubGlyphs
qWe:_InternalEnumerator_1__ctor_m1341209356_AdjustorThunk
PTb:__Z25SetupObjectBakedOcclusionbRK15SharedLightDataRK26SharedLightmapSettingsDataRK15LightmapIndicesR17ShaderPassContext
Rth:_Collection_1_System_Collections_ICollection_CopyTo_m1516601228_gshared
Vuh:_Collection_1_CopyTo_m4278237485_gshared
axh:_Collection_1_Add_m3860636938_gshared
Lej:__ZL23UnresolvedVirtualCall_5P12Il2CppObjectsPK10MethodInfo
UD:__ZN4PPtrI6AvatarE8TransferI19StreamedBinaryWriteILb0EEEEvRT_
GRh:_List_1_Insert_m4050947056_gshared
C5:__ZN9ShaderLab16FastPropertyName4InitEPKc
ZKc:__ZN11b2GearJointD0Ev
beh:__Z48RuntimeInvoker_OperatingSystemFamily_t1868066375PFvvEPK10MethodInfoPvPS4_
pji:__ZL61Thread_t2300836069_CustomAttributesCacheGenerator_local_slotsP21CustomAttributesCache
I7b:__Z13RegisterClassIN2UI13RectTransformEEvv
wAh:_Collection_1_System_Collections_IEnumerable_GetEnumerator_m3596816767_gshared
rbc:__ZL31MeshRendererTransformChangedJobP13BoundsJobDatajPK23TransformAccessReadOnlyPKyj
tid:__ZN11UnityEngine15PlatformWrapper19GetPhysicalMemoryMBEv
_5d:_Char_System_IConvertible_ToByte_m2347554595_AdjustorThunk
KFj:__ZNK15dense_hashtableINSt3__24pairIK10KeyWrapperINS1_IPK12PropertyInfoP11Il2CppClassEEEjEES9_17ReflectionMapHashIS8_EN14dense_hash_mapIS9_jSD_NS9_14EqualsComparerINS0_8equal_toIS8_EEEENS0_9allocatorISB_EEE9SelectKeyESI_SK_E12test_deletedERK30dense_hashtable_const_iteratorISB_S9_SD_SM_SI_SK_E
cwi:__ZL59TooltipAttribute_t3957072629_CustomAttributesCacheGeneratorP21CustomAttributesCache
m8a:__ZN10VertexData8TransferI17RemapPPtrTransferEEvRT_
i_a:__ZN13RenderTexture9SetMipMapEb
Lrj:__ZN15dense_hashtableINSt3__24pairIK10KeyWrapperIPK11Il2CppClassEPKcEES6_N6il2cpp5utils11PointerHashIS3_EEN14dense_hash_mapIS6_S9_SE_NS6_14EqualsComparerINS0_8equal_toIS5_EEEENS0_9allocatorISA_EEE9SelectKeyESJ_SL_E13set_empty_keyERKSA_
STf:_String_CreateString_m860434552
kfa:__Z18GetDirectorManagerv
adf:_Enumerator_System_Collections_IEnumerator_Reset_m278261807_AdjustorThunk
yth:_Collection_1_GetEnumerator_m1824095167_gshared
gdi:__ZL107CriticalFinalizerObject_t701527852_CustomAttributesCacheGenerator_CriticalFinalizerObject__ctor_m3245424448P21CustomAttributesCache
lNd:_Int32_Equals_m2976157357_AdjustorThunk
Qpc:__Z38Transform_CUSTOM_INTERNAL_get_rotationP12Il2CppObjectP11Quaternionf
vui:__ZL99SceneManager_t2787271929_CustomAttributesCacheGenerator_SceneManager_LoadScene_m2298600132____mode1P21CustomAttributesCache
qgh:__Z73RuntimeInvoker_Single_t1397266774_Vector2_t2156229523_Vector2_t2156229523PFvvEPK10MethodInfoPvPS4_
GPe:_SoapAttribute_get_XmlNamespace_m859394681
JEj:__ZNK15dense_hashtableINSt3__24pairIK10KeyWrapperINS1_IPK10MethodInfoP11Il2CppClassEEEjEES9_17ReflectionMapHashIS8_EN14dense_hash_mapIS9_jSD_NS9_14EqualsComparerINS0_8equal_toIS8_EEEENS0_9allocatorISB_EEE9SelectKeyESI_SK_E5beginEv
HYi:_X509ExtensionCollection_System_Collections_IEnumerable_GetEnumerator_m1475785462
ava:__ZN7ApiGLES19UploadBufferSubDataEjN2gl12BufferTargetEllPKv
Bmj:_SkeletonBone_t4134054672_marshal_pinvoke_cleanup
wha:__ZNSt3__216__rotate_forwardINS_11__wrap_iterIPN4core12basic_stringIcNS2_20StringStorageDefaultIcEEEEEEEET_S9_S9_S9_
Dzg:_Vector2_GetHashCode_m3916089713
hda:__ZdaPv
Hwg:_SendMouseEvents_HitTestLegacyGUI_m579942228
Tpf:_Selectable_get_isPointerDown_m3518318267
qNf:_SymmetricAlgorithm_set_KeySize_m3805756466
rMi:__ZL70ValueProperty_t1868393739_CustomAttributesCacheGenerator_m_CustomValueP21CustomAttributesCache
v5d:_Byte_System_IConvertible_ToUInt32_m1049546902_AdjustorThunk
Zvc:_start_pass_dcolor
_ud:_U3CDelayUpdateU3Ec__Iterator0_System_Collections_IEnumerator_get_Current_m2906633870
Edh:__Z53RuntimeInvoker_Double_t594665363_Interval_t1802865632PFvvEPK10MethodInfoPvPS4_
cLb:__Z21InitializeBatchedJobsv
Qkj:_CanvasGroup_get_blocksRaycasts_m1805542303
_Lf:_SHA1Internal_ProcessBlock_m1991889327
Trb:__Z19TransferField_ArrayI14SafeBinaryRead27Converter_SimpleNativeClassI8GUIStyleEEvRK23StaticTransferFieldInfoR31RuntimeSerializationCommandInfoRT0_
bwi:__ZL60PropertyAttribute_t3677895545_CustomAttributesCacheGeneratorP21CustomAttributesCache
ZQj:__ZN15dense_hashtableINSt3__24pairIK10KeyWrapperIP14Il2CppIUnknownEjEES5_N6il2cpp5utils11PointerHashIS3_EEN14dense_hash_mapIS5_jSB_NS5_14EqualsComparerINS0_8equal_toIS4_EEEENS0_9allocatorIS7_EEE9SelectKeyESG_SI_ED2Ev
rPi:_Array_Sort_TisRuntimeObject_TisRuntimeObject_m1685639929_gshared
C4j:__ZN6il2cpp5utils10MemoryPoolC2Ev
RYa:__ZN14RenderSettings5ResetEv
j6b:__ZN6Sprite9BindAtlasERK4PPtrI11SpriteAtlasE
KAc:__ZN5Unity9rapidjson12GenericValueINS0_4UTF8IcEE13JSONAllocatorE10FindMemberIS4_EENS0_21GenericMemberIteratorILb0ES3_S4_EERKNS1_IS3_T_EE
I_e:_InternalEnumerator_1_System_Collections_IEnumerator_get_Current_m3892960115_AdjustorThunk
LPj:__ZNSt3__212basic_stringIDsNS_11char_traitsIDsEENS_9allocatorIDsEEE6appendEPKDsj
h6i:_SymmetricTransform_Finalize_m4129642865
rIf:_CaptureCollection_CopyTo_m3566922817
sId:_HMAC_HashCore_m3684104066
iBc:__ZN5Unity9rapidjson13GenericReaderINS0_4UTF8IcEES3_13JSONAllocatorE11ParseNumberILj1ENS0_25GenericInsituStringStreamIS3_EENS0_15GenericDocumentIS3_S4_S4_EEEEvRT0_RT1_
fdb:__ZN14SpriteRenderer14OnChangeSpriteEv
Cwh:_Collection_1_RemoveItem_m2911050674_gshared
y1g:__Z79RuntimeInvoker_UInt16_t2177724958_RuntimeObject_Int32_t2950945753_RuntimeObjectPFvvEPK10MethodInfoPvPS4_
uXj:__ZN6il2cpp2os10ThreadImplD2Ev
LLc:__ZN12b2MouseJoint23InitVelocityConstraintsERK12b2SolverData
dCc:__ZN8Gradient8TransferI9JSONWriteEEvRT_
kjb:__ZN21RendererUpdateManager18OncePerFrameUpdateER13RendererScene
xBi:__ZL81TextEditor_t2759855366_CustomAttributesCacheGenerator_TextEditor__ctor_m242049450P21CustomAttributesCache
Ude:_Convert_ToBoolean_m2833621053
VLa:__ZNK12TLSAllocatorI14StackAllocatorE22GetAllocatedMemorySizeEv
Aoi:__ZL62WebHeaderCollection_t1942268960_CustomAttributesCacheGeneratorP21CustomAttributesCache
M3:__ZN17RemapPPtrTransfer12PushMetaFlagE17TransferMetaFlags
WVg:_EqualityComparer_1_System_Collections_IEqualityComparer_GetHashCode_m2138064395_gshared
uN:__ZNK7WeakPtrI20SoundChannelInstanceE10SharedData9GetRawPtrEv
Zmb:__ZN12HandlerChain4NameEv
Txd:_FloatTween_t1274330004_marshal_pinvoke
YIc:__ZN11UnityEngine9Analytics18RenderingInfoEventD0Ev
KKd:_Int16_System_IConvertible_ToType_m3672347013_AdjustorThunk
cTf:_String_LastIndexOf_m578673845
Gtb:__Z29Transfer_Blittable_ArrayFieldI14SafeBinaryReadN4math12int3_storageEEvRT_R9ArrayInfoRK23StaticTransferFieldInfo
qQf:_SecurityException_ToString_m3228070608
uMd:_Int16_ToString_m2013897809
xnh:__Z60RuntimeInvoker_Int32_t2950945753_ResourceCacheItem_t51292791PFvvEPK10MethodInfoPvPS4_
sQf:_String_Substring_m2848979100
Ded:__Z44Register_UnityEngine_CanvasRenderer_get_cullv
Ooj:__ZN15dense_hashtableINSt3__24pairIK10KeyWrapperIPK22Il2CppGenericParameterEP11Il2CppClassEES6_N6il2cpp5utils11PointerHashIS4_EEN14dense_hash_mapIS6_S9_SE_NS6_14EqualsComparerINS0_8equal_toIS5_EEEENS0_9allocatorISA_EEE9SelectKeyESJ_SL_ED2Ev
xTi:_ScriptableObject_CreateInstance_TisRuntimeObject_m1552711675_gshared
nQf:_SecurityException_get_PermissionType_m2237538728
kgj:__ZL24UnresolvedVirtualCall_86P12Il2CppObjectxS0_xPK10MethodInfo
T1b:__Z29StdTemplateConversionFunctionIbbEbPvR14SafeBinaryRead
Yhd:__ZN11UnityEngine7Connect17XRDeviceInfoEvent12XRDeviceInfoD2Ev
Vpb:__Z44InitializeTransferFunctionScriptingTraitsForI17RemapPPtrTransferEvR31TransferFunctionScriptingTraits
p8b:__ZNSt3__26vectorI16MessageForwarder13stl_allocatorIS1_L18MemLabelIdentifier7ELi8EEE6resizeEj
yGf:_X509Chain_SelectBestFromCollection_m1068759221
q6i:_SymmetricTransform_TransformBlock_m851059707
Q5h:__ZL68IntPtr_t_CustomAttributesCacheGenerator_IntPtr_ToPointer_m4157623054P21CustomAttributesCache
GAh:_Collection_1_System_Collections_IList_get_IsReadOnly_m2978442176_gshared
k1h:_Enumerator_System_Collections_IEnumerator_Reset_m2261065994_AdjustorThunk
Kof:_ScrollRect_get_verticalNormalizedPosition_m3693218937
Aib:__ZN18LoadSceneOperation21MustCompleteNextFrameEv
Wqf:_Slider_UpdateDrag_m1102107039
Xse:_MonoMethodInfo_get_method_info_m88651774
wM:__ZNK12AudioManager16GetAudioListenerEv
HMd:_Int32_System_IConvertible_ToDateTime_m1824716955
YPg:_Dictionary_2_System_Collections_Generic_ICollectionU3CSystem_Collections_Generic_KeyValuePairU3CTKeyU2CTValueU3EU3E_CopyTo_m331407443_gshared
gFd:_RuntimeTypeHandle__ctor_m3315980708_AdjustorThunk
Ohi:__ZL69IIdentityPermissionFactory_t3268650966_CustomAttributesCacheGeneratorP21CustomAttributesCache
vkj:_Canvas_set_overrideSorting_m4088794420
fZb:__ZNSt3__26vectorI11CameraStackNS_9allocatorIS1_EEE8__appendEj
JTg:_DefaultComparer_Equals_m2585095694_gshared
vJc:__ZNK11Rigidbody2D20GetAttachedCollidersER13dynamic_arrayIP10Collider2DLj4EE
bpg:_Logger_set_filterLogType_m3622751173
LOh:_UnityEvent_1_GetDelegate_m25714567_gshared
Pu:__ZN7mecanim9animation12GetHumanPoseERKNS0_18ClipMuscleConstantEPKNS0_10ValueDeltaERNS_5human9HumanPoseE
Zfd:__ZN11UnityEngine9Analytics15UserCustomEvent12CustomParams6InsertEPKcRNS1_11CustomValueE
Fw:__ZN22AnimationMixerPlayable17ProcessRootMotionEP35AnimationPlayableEvaluationConstantP32AnimationPlayableEvaluationInputP33AnimationPlayableEvaluationOutput
szb:__Z29Transfer_Blittable_ArrayFieldI19StreamedBinaryWriteILb0EEjEvRT_R9ArrayInfoRK23StaticTransferFieldInfo
H1:__Z13GetFileSystemv
kca:__ZNK5Unity4Type21FindAllDerivedClassesER13dynamic_arrayIPKS0_Lj4EENS0_17TypeFilterOptionsE
dda:__ZN13RuntimeStaticI15GUIEventManagerLb0EE16StaticInitializeEPv
$db:__ZN14SafeBinaryRead8TransferIfEEvRT_PKc17TransferMetaFlags
ZDb:__ZL12InvokeMethodI18StreamedBinaryReadILb0EEEvRK29SerializationCommandArgumentsR31RuntimeSerializationCommandInfo
lPc:__ZNSt3__27__sort5IR24RayHitsByDepthComparitorP12RaycastHit2DEEjT0_S5_S5_S5_S5_T_
sNg:_Version_CompareTo_m3146217210
xMc:__ZN24RigidbodyMovementState2D21ResetAngularMoveStateEv
jdb:__ZThn32_N14SpriteRenderer15AddAsRenderNodeER15RenderNodeQueueRK20DeprecatedSourceData
hfg:_Array_InternalArray__ICollection_CopyTo_TisKeyValuePair_2_t71524366_m1056941380_gshared
FIg:_Type_get_IsClass_m589177581
RIg:_Type_get_IsSystemType_m624798880
ZBb:__Z29Transfer_Blittable_ArrayFieldI18StreamedBinaryReadILb1EE5RectTIfEEvRT_R9ArrayInfoRK23StaticTransferFieldInfo
npb:__ZN19ShaderPropertySheet9SetMatrixEN9ShaderLab16FastPropertyNameERK10Matrix4x4fNS_8SetFlagsE
r4a:__Z29GetTextureSizeAllowedMultiple13TextureFormat
C_f:_Decimal_Subtract_m835601464
zMb:__ZZ23InitPlayerLoopCallbacksvEN52InitializationAsyncUploadTimeSlicedUpdateRegistrator7ForwardEv
Och:__Z73RuntimeInvoker_Boolean_t97287965_RuntimeObject_IPv6AddressU26_t3285609463PFvvEPK10MethodInfoPvPS4_
MHf:_X509ExtensionCollection_get_IsSynchronized_m2607599544
Zcc:__ZN21IntermediateRenderers3AddEP20IntermediateRenderer
CJj:_il2cpp_array_element_size
vWd:_MissingMemberException__ctor_m2571045846
x4h:__ZL62ComVisibleAttribute_t1362837655_CustomAttributesCacheGeneratorP21CustomAttributesCache
FWh:_List_1_System_Collections_IEnumerable_GetEnumerator_m1824431956_gshared
tvg:_RectTransform_INTERNAL_set_sizeDelta_m188783163
eg:_glCheckFramebufferStatus
Z3j:__ZN6il2cpp2os11EventHandle4WaitEv
mTe:_U3CGetEnumeratorU3Ec__Iterator0_System_Collections_Generic_IEnumeratorU3CTU3E_get_Current_m9057020_gshared
inj:_CustomEventData__ctor_m4146403782
lV:__ZN19CloudServiceHandler20StartEventDispatcherERKN11UnityEngine15CloudWebService18CloudServiceConfigERNS1_23WebRequestRestHeaderMapE
UBd:_GraphicRaycaster__ctor_m646559428
rBe:_CipherSuite_get_CipherAlgorithmType_m137858741
RLc:__ZNK15b2DistanceJoint17GetReactionTorqueEf
S9d:_BitArrayEnumerator_get_Current_m4220391712
oie:__Z37il2cpp_codegen_get_executing_assemblyPK10MethodInfo
Uvg:_Transform_get_parent_m835071599
J3h:_Collection_1_System_Collections_IList_Remove_m3686118478_gshared
xmb:__ZN9Transform23VirtualRedirectTransferER17RemapPPtrTransfer
ECf:_IPAddress_get_ScopeId_m4237202723
Sr:__ZN4core8hash_mapIN11UnityEngine9Animation14GenericBindingENS2_10BoundIndexENS2_25GenericBindingHashFunctorENS2_30GenericBindingValueArrayUniqueEE4growEi
au:__ZN21AnimationClipPlayable7SetTimeEd
r$i:_ExpressionCollection_get_Item_m3510736379
TGi:__ZL62FontData_t746620069_CustomAttributesCacheGenerator_m_AlignmentP21CustomAttributesCache
wtd:_StandaloneInputModule_get_inputActionsPerSecond_m3946624274
CEg:_UTF8Encoding_InternalGetCharCount_m82458470
Szg:_Vector2__cctor_m2108982652
ygh:__Z72RuntimeInvoker_Boolean_t97287965_Vector4_t3319028937_Vector4_t3319028937PFvvEPK10MethodInfoPvPS4_
Rr:__ZN4core8hash_mapIN11UnityEngine9Animation14GenericBindingENS2_10BoundIndexENS2_25GenericBindingHashFunctorENS2_30GenericBindingValueArrayUniqueEE4growEv
T1e:_InternalEnumerator_1_MoveNext_m2734554195_AdjustorThunk
aRj:__ZN14dense_hash_mapI10KeyWrapperIP14Il2CppIUnknownEjN6il2cpp5utils11PointerHashIS1_EENS3_14EqualsComparerINSt3__28equal_toIS2_EEEENS9_9allocatorINS9_4pairIKS3_jEEEEE15set_deleted_keyERSF_
xca:__ZN22BuiltinResourceManager16StaticInitializeEPv
H5b:__ZN19SpriteMeshGenerator12path_segment12max_distanceENSt3__26vectorINS_6vertexENS1_9allocatorIS3_EEEEii
YMj:__ZN6il2cpp2gc9AllocatorIP12Il2CppThreadE10deallocateEPvj
rNc:__ZN24b2ChainAndCapsuleContact8EvaluateEP10b2ManifoldRK11b2TransformS4_
nHj:__ZN13Il2CppHashMapIPK14Il2CppAssemblyPK22Il2CppMonoAssemblyNameN6il2cpp5utils11PointerHashIS1_EENSt3__28equal_toIS2_EENSA_9allocatorINSA_4pairIK10KeyWrapperIS2_ES5_EEEEEC2EjRKS9_RKSC_
u0d:_DelegatePInvokeWrapper_AppDomainInitializer_t682969308
ZQc:__ZN13BoxCollider2D13PrepareShapesER13dynamic_arrayIP7b2ShapeLj4EERK10Matrix4x4f
O0:__ZN8Remapper6RemoveEi
lOh:_UnityEvent_1__ctor_m3777630589_gshared
YPa:__ZN10MemoryFile4ReadEyPvPy
DBg:_Encoding_GetBytes_m3148649984
v8c:__ZL36CleanupTextRenderingScriptingClassesv
xZb:__ZN15ReflectionProbe17UseRendererResultEP13ProbeRenderer
rrc:__Z34Mesh_CUSTOM_SetArrayForChannelImplP12Il2CppObject30InternalScriptingShaderChannel34InternalScriptingVertexChannelTypeiP11Il2CppArrayi
F$:__Z32scripting_class_get_nested_types17ScriptingClassPtrRNSt3__26vectorIS_13stl_allocatorIS_L18MemLabelIdentifier1ELi16EEEE
Ykj:_CanvasRenderer_INTERNAL_CALL_EnableRectClipping_m3318097918
WLg:_UInt64_System_IConvertible_ToDecimal_m806594027_AdjustorThunk
z6e:_Enumerator_System_Collections_IEnumerator_get_Current_m361750367_AdjustorThunk
SOh:_UnityEvent_1_GetDelegate_m274387680_gshared
H7e:_Enumerator_get_CurrentValue_m3103267885_gshared
NTh:_List_1__ctor_m3395838871_gshared
eBh:_Collection_1_IsFixedSize_m3698021882_gshared
LTg:_DefaultComparer_GetHashCode_m2651362016_gshared
bWi:_PKCS12__ctor_m1854440921
SOi:_Array_Resize_TisCustomAttributeNamedArgument_t287865710_m885566878_gshared
Gah:__Z85RuntimeInvoker_RuntimeObject_RuntimeObject_SByte_t1669577662_ExceptionU26_t3600731591PFvvEPK10MethodInfoPvPS4_
sSg:_DefaultComparer__ctor_m2556554241_gshared
oE:__ZN11UnityEngine9Animation28GenericAnimationBindingCache25RegisterIAnimationBindingEPKN5Unity4TypeEiP17IAnimationBinding
q7h:__ZL66RuntimeArray_CustomAttributesCacheGenerator_Array_Sort_m2537416106P21CustomAttributesCache
Hed:__Z70RectTransformUtility_CUSTOM_INTERNAL_CALL_RectangleContainsScreenPointP12Il2CppObjectRK13Vector2fIcallS0_
yQd:_DirectoryInfo__ctor_m481305441
Zdk:dynCall_viiffiii
NHf:_X509ExtensionCollection_get_SyncRoot_m2667861032
Epj:__ZN6il2cpp2vm5Class15GetElementClassEP11Il2CppClass
taa:__ZN10MemoryPoolC2E10MemLabelIdbPKciii
rxh:_Collection_1_SetItem_m941095285_gshared
Hfd:__ZN14UnityAnalytics25UnregisterGlobalCallbacksEv
ZXb:__Z40ProcessCameraIndexListIsNodeVisibleInOutRK22SceneCullingParametersPK9SceneNodePK4AABBR9IndexList
l5i:_GUIScrollGroup_SetHorizontal_m291416666
xWa:__ZN16GraphicsSettings8TransferI17RemapPPtrTransferEEvRT_
o2e:_InternalEnumerator_1__ctor_m4175030001_AdjustorThunk
uEf:_X509BasicConstraintsExtension_Decode_m120598446
Lz:__ZNK23AnimationPlayableOutput11DerivesFromE17ScriptingClassPtr
r3a:__ZN7Texture19SupportsAsyncUploadI19StreamedBinaryWriteILb0EEEEbRT_
kgh:__Z49RuntimeInvoker_Boolean_t97287965_Rect_t2360479859PFvvEPK10MethodInfoPvPS4_
Gui:__ZL101Transform_t3600365921_CustomAttributesCacheGenerator_Transform_INTERNAL_get_localRotation_m1111330565P21CustomAttributesCache
lah:__Z51RuntimeInvoker_UInt32_t2560061978_Int16_t2552820387PFvvEPK10MethodInfoPvPS4_
Ypa:__ZNK13GfxDeviceGLES12GetWireframeEv
y6i:_DelegatePInvokeWrapper_Action_t1264377477
OAi:__ZL64EventType_t3528516131_CustomAttributesCacheGenerator_dragUpdatedP21CustomAttributesCache
mjd:__ZN11UnityEngine7Connect13ConfigHandler12GetListenersERKN4core12basic_stringIcNS2_20StringStorageDefaultIcEEEE
Gra:__ZN9GfxDevice18AllocRenderSurfaceEb
S5d:_Char__cctor_m2787437263
c6b:__ZN10TagManager32GetSortingLayerUniqueIDFromValueEi
Lud:_AspectRatioFitter_get_rectTransform_m2996235303
s$:__ZL27CleanupCoreScriptingClassesv
t5f:_DateTimeFormatInfo_get_IsReadOnly_m1173781646
Q5f:_NumberFormatInfo_get_PercentPositivePattern_m1800841633
RBd:_Graphic_UnregisterDirtyMaterialCallback_m2707090617
C5e:_Comparer_1_System_Collections_IComparer_Compare_m1313384821_gshared
Vjf:_LayoutRebuilder_GetHashCode_m1943075341
Kne:_GenericTypeParameterBuilder_MakeGenericType_m3048165991
Jnc:__Z26AnimationCurve_CUSTOM_InitP12Il2CppObjectP11Il2CppArray
Plk:_glUniform1uiv__wrapper
ANc:__ZNK14b2PolygonShape5CloneEP16b2BlockAllocator
_Gj:__ZN6il2cpp2vm10Reflection7IsEventEP12Il2CppObject
m7j:__ZNSt3__26__treeINS_12__value_typeIPFvvEPK10MethodInfoEENS_19__map_value_compareIS3_S7_NS_4lessIS3_EELb1EEENS_9allocatorIS7_EEE16__insert_node_atEPNS_16__tree_node_baseIPvEERSI_SI_
f_:__ZN17PersistentManager26GetStreamNameSpaceInternalEi
sG:__ZN4FMOD6System11createSoundEPKcjP22FMOD_CREATESOUNDEXINFOPPNS_5SoundE
po:FUNCTION_TABLE_iiifiiii
X1e:_InternalEnumerator_1_System_Collections_IEnumerator_Reset_m1451164462_AdjustorThunk
sWc:__ZN13SpeedTreeWind20AdvanceWithoutUpdateEd
gBh:_ReadOnlyCollection_1_System_Collections_Generic_ICollectionU3CTU3E_Add_m1422506275_gshared
YVf:_DateTime_System_IConvertible_ToDecimal_m1044850612
uTh:_List_1_IndexOf_m2206067159_gshared
PVe:_InternalEnumerator_1_System_Collections_IEnumerator_Reset_m1318888374_AdjustorThunk
Yaa:__ZN9ShaderLab19CommonPropertyNames13StaticCleanupEPv
g0:__Z31scripting_method_get_returntype18ScriptingMethodPtr
agj:__ZL24UnresolvedVirtualCall_76P12Il2CppObjectPK10MethodInfo
M5a:__ZN15SerializeTraitsI12LightmapDataE8TransferI24GenerateTypeTreeTransferEEvRS0_RT_
NOf:_SecurityElement_AddAttribute_m311510562
htc:_unity_z_zcfree
iik:_glStencilOpSeparate__wrapper
Xfc:__ZN4Mesh5SetUvEiPKfjj
N6a:__ZN7Texture13SetAnisoLimitENS_20AnisotropicFilteringE
sO:__ZN11AudioModule16SetListenerPauseEb
d3d:_Attribute_IsDefined_m4069052474
$h:_emscripten_glCompressedTexSubImage2D
qEa:__ZN13GfxDeviceGLES22MemoryBarrierImmediateEyN2gl17MemoryBarrierTypeE
mif:_U3CCaretBlinkU3Ec__Iterator0_Dispose_m860898205
YBa:__ZN6prcoreL26RemapGenericFloatToIntegerI18TexFormatARGBFloat17TexFormatARGB8888EEvPKNS_9InnerInfoE
_$h:_List_1_set_Capacity_m1977188119_gshared
Eic:__Z46GetShaderModelNumericValueFromRequirementsMask18ShaderRequirements
e_c:_cff_ps_has_glyph_names
Fzd:_DropdownItem_get_rectTransform_m3147806615
aSg:_Dictionary_2_Resize_m3287623642_gshared
C0j:_GC_write
E6h:__ZL69RuntimeArray_CustomAttributesCacheGenerator_Array_SetValue_m394135409P21CustomAttributesCache
nJd:_RC2_Create_m2516417038
BBd:_Graphic_OnPopulateMesh_m767318148
LId:_HMACSHA512_set_ProduceLegacyHmacValues_m3961135292
HOg:_Dictionary_2_Remove_m4193450060_gshared
X4b:__Z13tessTesselateP14TESStesselatoriiiiPKf
ewf:_ASN1_get_Tag_m1032367219
z8i:_StandardEventPayload_set_name_m549984672
tNe:_ConstructionCallDictionary__ctor_m2541174073
NNi:_Array_InternalArray__set_Item_TisMark_t3471605523_m1299772331_gshared
wAc:__Z44Register_UnityEngine_GUIStyle_SetDefaultFontv
l5b:__ZN19SpriteMeshGenerator9MakeShapeEP11ColorRGBA32iifhbjfi
Szb:__Z18Transfer_BlittableI18StreamedBinaryReadILb1EELb1EiEvRK29SerializationCommandArgumentsR31RuntimeSerializationCommandInfo
lB:__ZN9BlobWrite8TransferI22OffsetPtrArrayTransferIKN4math7_float3EEEEvRT_PKc17TransferMetaFlags
O4g:__Z173RuntimeInvoker_Int32_t2950945753_RuntimeObject_Int32_t2950945753_Int32_t2950945753_Int32_t2950945753_RuntimeObject_Int32_t2950945753_SByte_t1669577662_ContextU26_t3937453398PFvvEPK10MethodInfoPvPS4_
FVh:_List_1__ctor_m2576108087_gshared
OFj:__ZN15dense_hashtableINSt3__24pairIK10KeyWrapperINS1_IPK12PropertyInfoP11Il2CppClassEEEjEES9_17ReflectionMapHashIS8_EN14dense_hash_mapIS9_jSD_NS9_14EqualsComparerINS0_8equal_toIS8_EEEENS0_9allocatorISB_EEE9SelectKeyESI_SK_E12maybe_shrinkEv
yWi:_X509Certificate_get_DSA_m565099499
rAb:__Z18Transfer_BlittableI18StreamedBinaryReadILb1EELb1EsEvRK29SerializationCommandArgumentsR31RuntimeSerializationCommandInfo
UCg:_StringBuilder_Remove_m940064945
hHd:_DESCryptoServiceProvider_GenerateIV_m683687014
NXg:_GenericComparer_1__ctor_m1900257738_gshared
r2e:_InternalEnumerator_1_get_Current_m3792939945_gshared
Bhd:__ZN22BaseUnityConnectClient17OnEnterStateReadyEv
Mrf:_Text_get_fontSize_m1677872538
Fvc:_start_pass_dpost
CHd:_DSACryptoServiceProvider_get_PublicOnly_m3933928860
Soi:__ZL63X509ChainStatusFlags_t1026973125_CustomAttributesCacheGeneratorP21CustomAttributesCache
MUa:__ZN14GrowableBufferD2Ev
$mc:__Z29Input_CUSTOM_GetMouseButtonUpi
$Kd:_Int16_Parse_m138525169
fzj:__ZN6il2cpp6icalls8mscorlib6System8MonoType16InternalGetEventEP20Il2CppReflectionTypeP12Il2CppStringi
Y2i:_UriScheme_t722425697_marshal_pinvoke_back
Y$c:_UNITY_tt_face_load_maxp
nnc:__Z46Input_CUSTOM_INTERNAL_set_compositionCursorPosRK13Vector2fIcall
Vt:__ZN7mecanim5human12FullBodyMaskEv
MLi:__ZL62Shadow_t773074319_CustomAttributesCacheGenerator_m_EffectColorP21CustomAttributesCache
Luf:_BigInteger_ToString_m3475000413
Odb:__ZN19ShaderPropertySheet11ComputeHashEv
stj:__ZN30dense_hashtable_const_iteratorI10KeyWrapperIPK19Il2CppGenericMethodES4_N6il2cpp8metadata23Il2CppGenericMethodHashEN14dense_hash_setIS4_S7_NS4_14EqualsComparerINS6_26Il2CppGenericMethodCompareEEENSt3__29allocatorIS4_EEE8IdentityESB_SE_EppEv
Ryd:_Resources_t1597885468_marshal_pinvoke_cleanup
fOc:__ZN12b2EPCollider24ComputePolygonSeparationEv
nBb:__ZN4PPtrI6ObjectE8TransferI18StreamedBinaryReadILb1EEEEvRT_
ET:__ZN11UnityEngine15CloudWebService20WebRequestRestClient6IsDoneEv
M0i:_Group__ctor_m2980794822
XUi:_X509CertificateCollection_get_Item_m1033426577
mMh:_CachedInvokableCall_1_Invoke_m502907382_gshared
Yi:_llvm_fabs_f32
hT:__ZN11UnityEngine15CloudWebService16SessionContainer16GetJsonDataBlockEjRKN4core12basic_stringIcNS2_20StringStorageDefaultIcEEEERS6_PjSA_
awf:_ASN1_Decode_m1695284166
LHj:__ZN15dense_hashtableINSt3__24pairIK10KeyWrapperIPK14Il2CppAssemblyEPK22Il2CppMonoAssemblyNameEES6_N6il2cpp5utils11PointerHashIS4_EEN14dense_hash_mapIS6_SA_SF_NS6_14EqualsComparerINS0_8equal_toIS5_EEEENS0_9allocatorISB_EEE9SelectKeyESK_SM_E13set_empty_keyERKSB_
Bwh:_Collection_1_RemoveAt_m2240641437_gshared
h2f:_Enum_ToString_m3248653065
v_:__ZN14SafeBinaryReadD2Ev
hag:_SetPropertyUtility_SetStruct_TisFillMethod_t1167457570_m4164776730_gshared
B7b:__Z13RegisterClassI7TextureEvv
RPh:_Enumerator_MoveNext_m3859993671_gshared
HBb:__ZN8Gradient8TransferI18StreamedBinaryReadILb1EEEEvRT_
cye:_SequentialSearchPrimeGeneratorBase_IsPrimeAcceptable_m1127740833
fIf:_Capture__ctor_m3103117740
P8a:__ZN4core8hash_mapINS_12basic_stringIcNS_20StringStorageDefaultIcEEEE13dynamic_arrayI4PPtrI6SpriteELj4EENS_4hashIS4_EENSt3__28equal_toIS4_EEEixERKS4_
M3g:__Z113RuntimeInvoker_Void_t1185182177_RuntimeObject_Int64_t3736567304_RuntimeObject_Int64_t3736567304_Int64_t3736567304PFvvEPK10MethodInfoPvPS4_
xtg:_RangeInt_get_end_m4128831787_AdjustorThunk
yQj:__ZN6il2cpp6icalls8mscorlib6System4Type15MakeGenericTypeEP20Il2CppReflectionTypeP11Il2CppArray
yj:_SDL_PauseAudio
Gbe:_Hashtable_Clone_m3078962909
ZJj:_il2cpp_class_from_type
hAj:__ZN6il2cpp2os4File11GetStdErrorEv
$kc:__Z48Register_UnityEngine_Camera_set_orthographicSizev
Xaa:__ZN9ShaderLab19CommonPropertyNames16StaticInitializeEPv
Fkb:__ZN13MemoryManager31DisallowAllocationsOnThisThreadEv
D4e:_Comparer_1__cctor_m2517796511_gshared
qD:__ZN7mecanim9animation18CreateAvatarOutputEPKNS0_14AvatarConstantEbbRNS_6memory9AllocatorE
r1d:_Array_GetLongLength_m561139708
xdj:_DelegatePInvokeWrapper_PCMSetPositionCallback_t1059417452
Cqf:_Slider_set_maxValue_m2251404465
lrf:_SpriteState_get_pressedSprite_m3868967445_AdjustorThunk
oM:__ZN11AudioSource23VirtualRedirectTransferER24GenerateTypeTreeTransfer
Hfc:__ZN7Texture11SetWrapModeE15TextureWrapMode
ygd:__ZN14UnityAnalytics15SendCustomEventERN11UnityEngine9Analytics15UserCustomEventE
k9a:__ZN14Texture2DArray23VirtualRedirectTransferER14SafeBinaryRead
yWd:_MissingMemberException__ctor_m1220732369
fTb:__ZNK6Camera21CalculateCanDoShadowsEv
ijh:__Z52RuntimeInvoker_Void_t1185182177_Int32U26_t1369213839PFvvEPK10MethodInfoPvPS4_
Shg:_Application_InvokeOnBeforeRender_m2875673833
dXj:__ZN6il2cpp2os6Thread12SetStackSizeEj
mlf:_MaskableGraphic_RecalculateMasking_m183336762
BSi:_Array_InternalArray__get_Item_TisRuntimeObject_m3347010206_gshared
Zpe:_TypeBuilder_IsSubclassOf_m3458909121
Afc:__ZNK8Renderer16IsVisibleInSceneEv
VZ:__Z13VFormatBufferPciPKcz
NCb:__Z18Transfer_BlittableI18StreamedBinaryReadILb0EELb1EhEvRK29SerializationCommandArgumentsR31RuntimeSerializationCommandInfo
b_d:_X509Certificate__cctor_m198658613
G6g:__Z43RuntimeInvoker_MethodAttributes_t2366443849PFvvEPK10MethodInfoPvPS4_
xsg:_PlayableHandle_Equals_m1666612586_AdjustorThunk
aCa:__ZN6prcoreL27StretchGenericFloatBilinearI15TexFormatRFloatEEvPKNS_9InnerInfoE
zoi:__ZL139ServicePointManager_t170559685_CustomAttributesCacheGenerator_ServicePointManager_t170559685____CheckCertificateRevocationList_PropertyInfoP21CustomAttributesCache
t2f:_Enum_ToObject_m1628250250
Iw:__Z24ProcessAnimationMixBeginP35AnimationPlayableEvaluationConstantP32AnimationPlayableEvaluationInputP33AnimationPlayableEvaluationOutput
rMc:__ZN16PhysicsManager2D16GetProfilerStatsER14Physics2DStats
dza:__Z14PadImageBorderR14ImageReferenceii
oEj:__ZN15dense_hashtableINSt3__24pairIK10KeyWrapperINS1_IPK10MethodInfoP11Il2CppClassEEEjEES9_17ReflectionMapHashIS8_EN14dense_hash_mapIS9_jSD_NS9_14EqualsComparerINS0_8equal_toIS8_EEEENS0_9allocatorISB_EEE9SelectKeyESI_SK_E4findERSA_
Cwj:__ZN6il2cpp2vm13MetadataCache28GetFieldDefaultValueForFieldEPK9FieldInfo
Acg:_Array_IndexOf_TisUIVertex_t4057497605_m3336763564_gshared
Puh:__ZN21InterfaceFuncInvoker1I22OrderBlock_t1585977831iE6InvokeEjP11Il2CppClassP12Il2CppObjecti
kx:__ZN27AnimationLayerMixerPlayableD2Ev
cxd:_ColorBlock_Equals_m518833916_AdjustorThunk
Iwi:__ZL66PersistentCall_t3407714124_CustomAttributesCacheGenerator_m_TargetP21CustomAttributesCache
zI:__ZN12AudioManager39HandlePendingAudioConfigurationCallbackEv
wk:_emscripten_glIsFramebuffer
Cyf:_RSAManaged_EncryptValue_m799827583
B2:__ZN12_GLOBAL__N_16qAtan2Eff
a1g:__Z61RuntimeInvoker_UInt32_t2560061978_RuntimeObject_RuntimeObjectPFvvEPK10MethodInfoPvPS4_
pGg:_ThreadAbortException__ctor_m1955533141
Ak:_JS_Sound_SetLoopPoints
Jda:__ZN15dense_hashtableINSt3__24pairIKyP17VertexDeclarationEEy14GfxGenericHashIyEN14GfxDoubleCacheIyS4_S7_NS0_8equal_toIyEEN31GfxDoubleCacheConcurrencyPolicy11LocklessGetE42GfxDoubleCacheDefaultEmptyDeletedGeneratorIyEE9SelectKeyESA_13stl_allocatorIS5_L18MemLabelIdentifier24ELi16EEE14squash_deletedEv
CN:__ZN12AudioManager17ShouldSourcePauseEb
b5j:__ZN6il2cpp2vm26MetadataAllocGenericMethodEv
s9f:_Array_InternalArray__ICollection_Remove_TisUInt16_t2177724958_m1766181761_gshared
aIa:__ZN19ConstantBuffersGLES12RecordRenderEv
UOh:_UnityEvent_1__ctor_m3675246889_gshared
VDc:__ZN9JSONWrite8TransferI10RectOffsetEEvRT_PKc17TransferMetaFlags
Kya:__ZN4crnd12symbol_codec11decode_bitsEj
$lh:__Z59RuntimeInvoker_Boolean_t97287965_KeyValuePair_2_t3842366416PFvvEPK10MethodInfoPvPS4_
Xze:_EncryptedPrivateKeyInfo__ctor_m3415744930
BOc:__ZN15b2CircleContact8EvaluateEP10b2ManifoldRK11b2TransformS4_
ODf:_AsnEncodedData__ctor_m3792312694
J6i:_AesManaged_GenerateIV_m1368817386
Gcc:__ZN21FixedBehaviourManagerD0Ev
NSa:__ZN13dynamic_arrayI17SortingLayerEntryLj4EE6insertEPS0_jRKS0_
DI:__ZN4FMOD6System12createReverbEPPNS_6ReverbE
g_j:__ZN6il2cpp2vm6String21InitializeEmptyStringEP11Il2CppClass
bx:__ZN7mecanim19ValueArrayBlendNodeILb1EEEvRKNS_10ValueArrayERKNS_14ValueArrayMaskERS1_RS4_RNS_16ValueArrayWeightEf
jGd:_CodeAccessPermission_GetHashCode_m880096813
Hkb:__Z16MarkDependenciesR27GarbageCollectorThreadStatej
qie:_AssemblyConfigurationAttribute__ctor_m3236176989
Jvc:_noop_upsample
edj:_ObjectPool_1_get_countInactive_m526975942_gshared
xQe:_RemotingServices_DisposeIdentity_m2605848806
N2:__ZNK9Transform11GetPositionEv
XRd:_WriteDelegate_EndInvoke_m952736984
Tig:_Bounds_set_size_m4127623202
aKd:_GuidParser_Reset_m2640004655
AXa:__ZN23SharedMeshRenderingData18UnloadVertexStreamEi
Ycc:__ZN31CanvasBatchIntermediateRenderer11AddSubBatchERK16DrawBuffersRangePK19ShaderPropertySheet
Ebc:__ZN19RenderEventsContextC2Ei
sR:__Z6simd4fRKf
rui:__ZL67SceneManager_t2787271929_CustomAttributesCacheGenerator_sceneLoadedP21CustomAttributesCache
A5f:_GregorianCalendar_GetEra_m2369958449
cl:_emscripten_glEnable
EYe:_InternalEnumerator_1_System_Collections_IEnumerator_get_Current_m2982675020_gshared
GSa:__ZN10TagManager23VirtualRedirectTransferER14SafeBinaryRead
xIi:__ZL51RawImage_t3182918964_CustomAttributesCacheGeneratorP21CustomAttributesCache
HAh:_Collection_1_System_Collections_IList_get_Item_m2931804586_gshared
iQe:_ObjRef_get_EnvoyInfo_m1782007847
QVh:_List_1_System_Collections_ICollection_get_IsSynchronized_m3331050698_gshared
QVb:__Z15InitLightMeshesv
Gre:_MonoCMethod_ToString_m3992577062
UAj:_RaycastHit_get_collider_m1464180279
Nhj:__ZL25UnresolvedVirtualCall_169P12Il2CppObject20UIVertex_t4057497605PK10MethodInfo
Pn:FUNCTION_TABLE_iifiii
cpj:__ZNK15dense_hashtableINSt3__24pairIK10KeyWrapperIPK22Il2CppGenericParameterEP11Il2CppClassEES6_N6il2cpp5utils11PointerHashIS4_EEN14dense_hash_mapIS6_S9_SE_NS6_14EqualsComparerINS0_8equal_toIS5_EEEENS0_9allocatorISA_EEE9SelectKeyESJ_SL_E10test_emptyEj
EHh:_ReadOnlyCollection_1_System_Collections_IList_Contains_m2904046095_gshared
I6a:__ZN15QualitySettings8TransferI19StreamedBinaryWriteILb0EEEEvRT_
juc:_UNITY_png_reciprocal
ZAi:__ZL56GUISkin_t1244372282_CustomAttributesCacheGenerator_m_boxP21CustomAttributesCache
vkf:_LayoutUtility_U3CGetFlexibleHeightU3Em__7_m2991026842
dyb:__Z18Transfer_BlittableI19StreamedBinaryWriteILb0EELb1E8Vector2fEvRK29SerializationCommandArgumentsR31RuntimeSerializationCommandInfo
CXc:_cf2_arrstack_init
KSi:_Array_InternalArray__get_Item_TisResourceCacheItem_t51292791_m1306056717_gshared
Whh:__Z157RuntimeInvoker_Void_t1185182177_RuntimeObject_RuntimeObject_RuntimeObject_RuntimeObject_RuntimeObject_RuntimeObject_RuntimeObject_RuntimeObject_RuntimeObjectPFvvEPK10MethodInfoPvPS4_
Xpd:_EventSystem_get_pixelDragThreshold_m1103650852
wX:__Z15CleanLogHandler7LogTypePKcz
aZd:_NumberFormatter_NumberToString_m2481532188
zma:__ZN9ShaderLab19SerializedSubShader8TransferI19StreamedBinaryWriteILb0EEEEvRT_
Nof:_ScrollRect_InternalGetBounds_m599803667
o9e:_Enumerator_MoveNext_m76191888_gshared
ZH:__ZN14AudioBehaviour15ThreadedCleanupEv
dGb:__ZN6Camera17RemoveImageFilterERK11ImageFilter
eoa:__ZNSt3__218__insertion_sort_3IR25ValueParameterArraySorterPN20GpuProgramParameters14ValueParameterEEEvT0_S6_T_
ZRc:__ZN10ClipperLib7Clipper27ProcessEdgesAtTopOfScanbeamEx
noi:__ZL67EditorBrowsableAttribute_t1475454531_CustomAttributesCacheGeneratorP21CustomAttributesCache
Lae:_Comparer__cctor_m3311686689
add:__ZZN2UI11CanvasGroup15InitializeClassEvEN38FunctorImpl_117kTransformParentChanged4CallEPviR11MessageData
uud:_UIBehaviour_OnDidApplyAnimationProperties_m2143584361
eqi:__ZL102SystemInfo_t3561985952_CustomAttributesCacheGenerator_SystemInfo_get_operatingSystemFamily_m4256884728P21CustomAttributesCache
cCf:_HttpWebRequest_get_Address_m2672661563
lIg:_TimeZone__ctor_m1831364098
rGj:__ZNK10KeyWrapperINSt3__24pairIPK9EventInfoP11Il2CppClassEEE14EqualsComparerINS0_8equal_toIS7_EEEclERKS8_SE_
gYe:_InternalEnumerator_1_get_Current_m3500427238_AdjustorThunk
Qcd:__ZN2UI26InitializeDeviceForOverlayEi
Lqi:__ZL100Camera_t4157153871_CustomAttributesCacheGenerator_Camera_INTERNAL_CALL_ScreenToWorldPoint_m845213319P21CustomAttributesCache
Y9:__Z27LogRepeatingStringWithFlagsRKN4core12basic_stringIcNS_20StringStorageDefaultIcEEEE15LogMessageFlagsi
fMg:_UInt64_System_IConvertible_ToSingle_m925613075
L9e:_KeyCollection_System_Collections_Generic_IEnumerableU3CTKeyU3E_GetEnumerator_m525473090_gshared
u2f:_Enum_IsDefined_m1442314461
QFg:_Thread__cctor_m817723615
Fdj:_AudioExtensionManager_RegisterBuiltinDefinitions_m2742744104
uu:__ZN17AnimationPlayable28ComputeNeedsBindingRebuildedEv
Bt:__ZN17AnimationPlayable23RequestAllocateBindingsEv
EJi:__ZL66Slider_t3903728902_CustomAttributesCacheGenerator_m_OnValueChangedP21CustomAttributesCache
YUf:_DecoderReplacementFallbackBuffer_Fallback_m1261056214
ZOb:__ZNSt3__227__insertion_sort_incompleteIRPFbP10GUIElementS2_EPS2_EEbT0_S7_T_
Sie:_Binder_get_DefaultBinder_m950908649
QQd:_StreamReader__ctor_m1616861391
Sji:__ZL59ArgumentException_t132251570_CustomAttributesCacheGeneratorP21CustomAttributesCache
skd:__ZN18UnityConnectClient33OnPlayerSessionStateChangedStaticEPS_jyy
hLf:_RSA_ToXmlString_m2922661427
oU:__ZNK11UnityEngine15CloudWebService23WebRequestUploadHandler11GetProgressEv
Kva:__ZN7ApiGLES4LoadE16GfxDeviceLevelGL
Z5a:__ZN18StreamedBinaryReadILb0EE21TransferSTLStyleArrayI13dynamic_arrayI31EnlightenSystemAtlasInformationLj8EEEEvRT_17TransferMetaFlags
UAi:__ZL61GUIContent_t3050628031_CustomAttributesCacheGenerator_m_ImageP21CustomAttributesCache
FVc:__ZN5physx15PxErrorCallbackD2Ev
STj:__ZN15dense_hashtableI10KeyWrapperIP18Il2CppGenericClassES3_N6il2cpp8metadata22Il2CppGenericClassHashEN14dense_hash_setIS3_S6_NS3_14EqualsComparerINS5_25Il2CppGenericClassCompareEEENSt3__29allocatorIS3_EEE8IdentityESA_SD_E15insert_noresizeERKS3_
Lac:__ZZL31RegisterOtherRendererPropertiesR22GenericPropertyBindingEN30Wrapper_RendererReceiveShadows13GetFloatValueEPv
Chj:__ZL25UnresolvedVirtualCall_158P12Il2CppObject22OrderBlock_t1585977831S1_PK10MethodInfo
P7f:_Array_InternalArray__ICollection_Contains_TisSlot_t384495010_m688761886_gshared
q4a:__ZN17SharedTextureDataC2E10MemLabelIdii13TextureFormatjiibb
Sjh:__Z114RuntimeInvoker_RuntimeObject_RuntimeObject_Int32_t2950945753_Int32_t2950945753_Int32_t2950945753_Int32_t2950945753PFvvEPK10MethodInfoPvPS4_
kJb:__ZN8Material11SetPassFastEPN9ShaderLab4PassER17ShaderPassContextP6Shaderib
f7a:__ZNK13ScreenManager13GetLockCursorEv
qkd:__ZN11UnityEngine7Connect20BasePersistentValues10SaveValuesER9JSONWrite
hyh:_Collection_1_IsFixedSize_m3748602684_gshared
_Vf:_DateTime_System_IConvertible_ToDouble_m2116720007
Wlg:_Display_GetSystemExtImpl_m2808197389
cHg:_WaitHandle_WaitOne_m2577152516
QZd:_X509Certificate_PEM_m1177570576
Hgi:__ZL46DSA_t2386879874_CustomAttributesCacheGeneratorP21CustomAttributesCache
NTe:_ArrayReadOnlyList_1_GetEnumerator_m1835926958_gshared
kPc:__ZNSt3__27__sort4IR24RayHitsByDepthComparitorP12RaycastHit2DEEjT0_S5_S5_S5_T_
Ngc:__Z14ScaleCurveTimeR17AnimationCurveTplIfEf
jda:__ZN22VirtualJoystickManagerC2Ev
Lca:__ZN20GlobalCachingManager7DisposeEv
dQb:__Z12SetupLODFadeR9GfxDeviceR17ShaderPassContextf
i2a:__ZNK14PlayableOutput7GetTypeEv
lNc:__ZN26b2PolygonAndCapsuleContact6CreateEP9b2FixtureiS1_iP16b2BlockAllocator
P7h:__ZL69Type_t_CustomAttributesCacheGenerator_Type_GetConstructors_m576905011P21CustomAttributesCache
DVb:__ZL24CollectForwardObjectsJobP27CollectForwardObjectsHeader
Vvj:__ZNK15dense_hashtableINSt3__24pairIK10KeyWrapperIPK11Il2CppClassEPKcEES6_N6il2cpp5utils11PointerHashIS3_EEN14dense_hash_mapIS6_S9_SE_NS6_14EqualsComparerINS0_8equal_toIS5_EEEENS0_9allocatorISA_EEE9SelectKeyESJ_SL_E12test_deletedERK24dense_hashtable_iteratorISA_S6_SE_SN_SJ_SL_E
yXb:__Z13IsNodeVisibleRK9SceneNodeRK4AABBRK22SceneCullingParameters
cdg:_Array_InternalArray__IndexOf_TisLabelFixup_t858502054_m1491765395_gshared
Z3g:__Z44RuntimeInvoker_RuntimeTypeHandle_t3027515415PFvvEPK10MethodInfoPvPS4_
F3e:__ZN21InterfaceFuncInvoker1IibE6InvokeEjP11Il2CppClassP12Il2CppObjectb
ytf:_SortKeyBuffer_AppendCJKExtension_m2591091991
Jed:__Z57RectTransformUtility_CUSTOM_INTERNAL_CALL_PixelAdjustRectP12Il2CppObjectS0_R5RectTIfE
wEg:_UTF8Encoding_GetByteCount_m4153686982
yYb:__Z24ScheduleCullingAllGroupsR8JobFenceRK22SceneCullingParametersiRK13CullingOutputRK13dynamic_arrayIP12CullingGroupLj4EERKS_
Lnk:_emscripten_glStencilMask__wrapper
B2g:__Z49RuntimeInvoker_Void_t1185182177_Double_t594665363PFvvEPK10MethodInfoPvPS4_
itj:__ZN15dense_hashtableI10KeyWrapperIPK19Il2CppGenericMethodES4_N6il2cpp8metadata23Il2CppGenericMethodHashEN14dense_hash_setIS4_S7_NS4_14EqualsComparerINS6_26Il2CppGenericMethodCompareEEENSt3__29allocatorIS4_EEE8IdentityESB_SE_EC2ERKSH_j
Mwc:_jpeg_get_small
GUa:__ZN15RenderNodeQueue7CleanupEv
xag:_Array_InternalArray__IEnumerable_GetEnumerator_TisByte_t1134296376_m1979205379_gshared
qte:_MonoProperty_CreateGetterDelegate_m2478402519
DVc:__ZN16NovodexAllocator8allocateEjPKcS1_i
a1a:__ZN39DeprecatedFastPropertyNameSerialization8TransferI14SafeBinaryReadEEvRT_
pWi:_DeriveBytes_DeriveIV_m973925711
SMd:_Int32_System_IConvertible_ToSByte_m3133688512
Tej:__ZL24UnresolvedVirtualCall_13P12Il2CppObjectaPK10MethodInfo
FHh:_ReadOnlyCollection_1_System_Collections_IList_IndexOf_m848971554_gshared
AVb:__ZN9ShaderLab10GrabPassesD2Ev
v9a:__ZN14Texture2DArray13UploadTextureEv
Ykf:_MaskableGraphic_UpdateCull_m2805101913
F0c:_tt_cmap14_done
Dib:__ZN18AwakeFromLoadQueue25RegisterObjectInstanceIDsEv
UNi:_Array_InternalArray__set_Item_TisColor32_t2600501292_m1891325855_gshared
px:__ZNK27AnimationLayerMixerPlayable11DerivesFromE17ScriptingClassPtr
R6c:__ZN20TextRenderingPrivate19NativeTextGenerator15InsertCharacterEiPj
m5g:__Z77RuntimeInvoker_Void_t1185182177_RuntimeObject_SByte_t1669577662_RuntimeObjectPFvvEPK10MethodInfoPvPS4_
U5g:__Z81RuntimeInvoker_Void_t1185182177_RuntimeObject_SByte_t1669577662_SByte_t1669577662PFvvEPK10MethodInfoPvPS4_
jKc:__ZN11b2RopeJoint24SolveVelocityConstraintsERK12b2SolverData
zXd:_MonoType_get_attributes_m1332507727
A4i:_GUIContent_ClearStaticCache_m1205116045
KXh:_List_1_System_Collections_IList_get_IsFixedSize_m203251153_gshared
UPf:_WindowsIdentity_Dispose_m3466258450
Yv:__ZN17AnimationPlayableD0Ev
Xyb:__Z18Transfer_BlittableI19StreamedBinaryWriteILb0EELb0EyEvRK29SerializationCommandArgumentsR31RuntimeSerializationCommandInfo
ERe:_BinaryCommon__cctor_m2978407547
Y5d:_Char_System_IConvertible_ToByte_m2347554595
nHh:_ReadOnlyCollection_1_GetEnumerator_m1017886827_gshared
Q8h:__ZL47ASN1_t2114160832_CustomAttributesCacheGeneratorP21CustomAttributesCache
y8c:__ZN20TextRenderingPrivate15DynamicFontData21GetFontMetricsForFaceERK13dynamic_arrayIN4core17string_with_labelILi35EEELj4EEiRKS1_I4PPtrIN13TextRendering4FontEELj4EEPfSF_
Obj:_IndexedSet_1__ctor_m2250384602_gshared
aUg:_DefaultComparer__ctor_m1306123661_gshared
JKg:_UInt16_TryParse_m4139137016
UWj:__ZN6il2cpp5utils13dynamic_arrayIPNS_2os6ThreadELj4EE9push_backEv
RYj:__ZN6il2cpp2gc16GarbageCollector9FreeFixedEPv
qBg:_Encoding__ctor_m2997749867
opg:_ManagedStreamHelpers_ManagedStreamSeek_m3158782053
i1i:_ExpressionAssertion_Compile_m2166597834
wFb:__ZN16ScriptingManagerD0Ev
fRf:_Single_System_IConvertible_ToSByte_m1208276900_AdjustorThunk
x$j:__ZN6il2cpp6icalls8mscorlib6System7Convert24InternalFromBase64StringEP12Il2CppStringb
vVg:_EqualityComparer_1__ctor_m2241711498_gshared
pei:__ZL58ChannelServices_t3942013484_CustomAttributesCacheGeneratorP21CustomAttributesCache
uSj:__ZN30dense_hashtable_const_iteratorINSt3__24pairIK10KeyWrapperINS1_IPKcS4_EEEiEES6_24NamespaceAndNamePairHashN14dense_hash_mapIS6_iS9_NS6_14EqualsComparerI26NamespaceAndNamePairEqualsEENS0_9allocatorIS8_EEE9SelectKeyESD_SF_EppEv
wlc:__Z44Register_UnityEngine_Component_get_transformv
Unh:__Z48RuntimeInvoker_Void_t1185182177_Link_t3209266973PFvvEPK10MethodInfoPvPS4_
pC:__ZN12_GLOBAL__N_120ProcessPlayableGraphERN8Animator11AnimatorJobER35AnimationPlayableEvaluationConstantR32AnimationPlayableEvaluationInputR33AnimationPlayableEvaluationOutputPFvS4_R17AnimationPlayableEPFvS4_S6_S8_EPFvS8_S4_S6_S8_fESE_MS9_FvPS3_PS5_PS7_E
rlj:_CanvasRenderer_get_absoluteDepth_m2703237819
B6f:_TextInfo_ToLower_m2744057472
hMb:__ZN17ArchiveFileSystem12MountArchiveEPKcS1_
qXg:_EqualityComparer_1_System_Collections_IEqualityComparer_Equals_m3977314386_gshared
_Cc:__Z18Transfer_BlittableI9JSONWriteLb1E8Vector4fEvRK29SerializationCommandArgumentsR31RuntimeSerializationCommandInfo
Ln:FUNCTION_TABLE_viififiii
I3f:_CCGregorianCalendar_year_from_fixed_m463929682
Wad:__ZN2UI13CanvasManagerD0Ev
pY:__ZThn32_NK8Renderer14GetSubsetIndexEi
qlg:_Debug_get_unityLogger_m2239795986
pBh:_ReadOnlyCollection_1_System_Collections_IEnumerable_GetEnumerator_m2123446296_gshared
jze:_MD2Managed_Initialize_m2341076836
CHh:_ReadOnlyCollection_1_System_Collections_IList_Add_m4240023232_gshared
zsa:__ZN9GfxDevice15ImmediateVertexEfff
j7b:__Z13RegisterClassI8MaterialEvv
i5a:__ZNK16LightmapSettings22GetTypeVirtualInternalEv
iVa:__ZN16GraphicsSettings13AwakeFromLoadE17AwakeFromLoadMode
YPi:_Array_Sort_TisUIVertex_t4057497605_TisUIVertex_t4057497605_m4243853890_gshared
pq:__ZN6Object13AwakeFromLoadE17AwakeFromLoadMode
Rpa:__ZN13GfxDeviceGLES15SetStencilStateEPK18DeviceStencilStatei
M4d:_Buffer_BlockCopyInternal_m418318694
z9j:_cycle
big:_AssetBundleCreateRequest_t3119663542_marshal_pinvoke
n$j:__ZN6il2cpp2vm8Profiler7GCEventE13Il2CppGCEvent
m4g:__Z76RuntimeInvoker_Void_t1185182177_RuntimeObject_RuntimeFieldHandle_t1871169219PFvvEPK10MethodInfoPvPS4_
GWi:_PKCS12_Finalize_m507756088
Nd:_emscripten_glUniform1iv
BXg:_EqualityComparer_1_get_Default_m1095255266_gshared
QMc:__ZN15b2DistanceProxy3SetEPK7b2Shapei
tob:__ZN16MemoryFileSystemD2Ev
D4g:__Z150RuntimeInvoker_Int32_t2950945753_RuntimeObject_Int32_t2950945753_Int32_t2950945753_RuntimeObject_Int32_t2950945753_Int32_t2950945753_Int32_t2950945753PFvvEPK10MethodInfoPvPS4_
q3d:_BitConverter_DoubleToInt64Bits_m3574395137
CXf:_DateTime_Parse_m3729096069
KVh:_List_1_System_Collections_IList_Add_m1540114404_gshared
zUe:_InternalEnumerator_1_System_Collections_IEnumerator_Reset_m81420524_AdjustorThunk
clc:__Z37Register_UnityEngine_Camera_get_depthv
wsh:__Z92RuntimeInvoker_RuntimeObject_SByte_t1669577662_SByte_t1669577662_RuntimeObject_RuntimeObjectPFvvEPK10MethodInfoPvPS4_
BUd:_StringReader_Read_m3322058819
JJe:_CrossAppDomainChannel_get_ChannelPriority_m3418073750
zUg:_EqualityComparer_1__ctor_m1860346363_gshared
Uhf:_Selectable_StartColorTween_m3618813981
upd:_BaseInputModule_HandlePointerExitAndEnter_m1705532066
hqe:_EventInfo__ctor_m3033129999
J6b:__ZN15ApplicationInfo16GetInstallerNameEv
V1b:__Z23ConvertIntegerToTypePtrItEbPvR14SafeBinaryRead
g0f:_Delegate_CombineImpl_m3572135514
CLd:_NumberFormatter_IntegerToString_m1679294587
tMf:_SHA256Managed_AddLength_m1060552216
UEh:_ReadOnlyCollection_1_System_Collections_IList_RemoveAt_m422909114_gshared
WC:__ZN7mecanim5human29HumanGetGoalOrientationOffsetENS0_4GoalE
ce:_emscripten_glStencilFunc
_Ki:__ZL78LayoutRebuilder_t541313304_CustomAttributesCacheGenerator_U3CU3Ef__amU24cache2P21CustomAttributesCache
WQi:_Dictionary_2_Do_CopyTo_TisKeyValuePair_2_t3699644050_TisRuntimeObject_m2224738096_gshared
Mej:__ZL23UnresolvedVirtualCall_6P12Il2CppObjectiPK10MethodInfo
gtd:__Z46il2cpp_codegen_get_marshal_directive_exceptionPKc
xff:_InputField_get_isFocused_m709836844
je:_glGetActiveUniformBlockName
vEi:__ZL90PointerEventData_t3807901092_CustomAttributesCacheGenerator_U3CpointerIdU3Ek__BackingFieldP21CustomAttributesCache
Uf:_emscripten_glUniform1fv
D1i:_Parser_IsIgnoreCase_m2210120858
Enc:__Z39Quaternion_CUSTOM_INTERNAL_CALL_InverseRK11QuaternionfRS_
WUa:__ZNK4PPtrI5FlareEcvPS0_Ev
yJ:__ZN4FMOD7Channel20set3DConeOrientationEP11FMOD_VECTOR
Cn:FUNCTION_TABLE_iiifii
Wje:_AssemblyBuilder_not_supported_m1735277432
f1e:_InternalEnumerator_1_MoveNext_m1344185775_AdjustorThunk
YVj:__ZN6il2cpp2vm12GenericClass11SetupEventsEP11Il2CppClass
D3c:_tt_delta_interpolate
b1c:_tt_cmap12_get_info
ixc:__Z24LoadImageIntoTextureImplI11JpegDecoderEbR9Texture2DPKhjb13TextureFormatR13dynamic_arrayIhLj1EE
ERj:__ZN6il2cpp2vm15ReboxIReferenceEP14Il2CppIUnknownP11Il2CppClass
nPh:_Enumerator__ctor_m2029608698_AdjustorThunk
Mmj:__ZN6il2cpp6icalls8mscorlib6System7Decimal14decimalCompareEP19il2cpp_decimal_reprS5_
GOg:_Dictionary_2_OnDeserialization_m4209543208_gshared
U$j:__ZThn4_N6il2cpp2vm13CachedCCWBaseINS0_13ManagedObjectEE7ReleaseEv
Tng:_GameObject_AddComponent_m136524825
jfi:__ZL62SoapMethodAttribute_t1935009310_CustomAttributesCacheGeneratorP21CustomAttributesCache
Tdh:__Z100RuntimeInvoker_Void_t1185182177_RuntimeObject_Int32_t2950945753_Int32_t2950945753_UInt16_t2177724958PFvvEPK10MethodInfoPvPS4_
c2a:__ZNSt3__26__treeINS_12__value_typeIN9ShaderLab16FastPropertyNameE10ColorRGBAfEENS_19__map_value_compareIS3_S5_NS_4lessIS3_EELb1EEENS_9allocatorIS5_EEE12__find_equalIS3_EERPNS_16__tree_node_baseIPvEENS_21__tree_const_iteratorIS5_PNS_11__tree_nodeIS5_SF_EEiEESI_RKT_
Okk:_glCopyTexImage2D__wrapper
zUc:__ZN16PhysicsManager2D11CreateWorldERK8Vector2f
m1f:_Double_System_IConvertible_ToUInt32_m271206838
N8:__GLOBAL__sub_I_runtime_graphics_billboard_0_cpp
vJb:__Z18ClearByDrawingQuad13GfxClearFlagsRK10ColorRGBAffjR17ShaderPassContext
zBa:__ZN6prcoreL17RemapGenericFloatI14TexFormatRHalf15TexFormatRFloatEEvPKNS_9InnerInfoE
JYc:_cf2_getBlueValues
UPb:__Z16ShouldUseShadowsb
gfa:__ZN15DirectorManager21RebuildStageCallbacksEv
IJb:__ZN19RuntimeSceneManager9LoadSceneERKN4core12basic_stringIcNS0_20StringStorageDefaultIcEEEES6_S6_RK9UnityGUIDiNS_11LoadingModeE
jfj:__ZL24UnresolvedVirtualCall_31P12Il2CppObjectiS0_S0_PK10MethodInfo
Rua:__ZN7ApiGLES10DrawArraysE16GfxPrimitiveTypejjj
VG:__ZN10SampleClip13LoadBaseSoundEv
d$d:_SmallXmlParser_SkipWhitespaces_m4243606597
w4f:_CompareInfo_IndexOf_m2631915198
Cke:_ConstructorBuilder_GetCustomAttributes_m2495332786
pNe:_MethodCall__ctor_m3669645
z5d:_Byte_CompareTo_m4285128861
Nqd:_TriggerEvent__ctor_m87299207
ich:__Z48RuntimeInvoker_ExchangeAlgorithmType_t1320888206PFvvEPK10MethodInfoPvPS4_
BQ:__Z57AudioSource_CUSTOM_INTERNAL_CALL_ClearExtensionPropertiesP12Il2CppObjectRK12PropertyName
kVj:__ZN15dense_hashtableINSt3__24pairIK10KeyWrapperIP12Il2CppObjectEN6il2cpp2gc9CachedCCWEEES5_NS7_5utils11PointerHashIS3_EEN14dense_hash_mapIS5_S9_SD_NS5_14EqualsComparerINS0_8equal_toIS4_EEEENS0_9allocatorISA_EEE9SelectKeyESI_SK_E15insert_noresizeERKSA_
gBe:_CertificateValidationCallback2__ctor_m1685875113
AUg:_EqualityComparer_1__cctor_m3962593840_gshared
e2a:__ZN22DeviceMVPMatricesStateC2ER9GfxDevice
r5h:__ZL48Double_t594665363_CustomAttributesCacheGeneratorP21CustomAttributesCache
mn:FUNCTION_TABLE_iifii
apg:_Logger_set_logEnabled_m1180597166
$9d:_Comparer_Compare_m3984347512
p5a:__ZN21EnlightenSceneMapping8TransferI14SafeBinaryReadEEvRT_
nJj:__ZN6il2cpp2vm10Reflection12HasAttributeEP9FieldInfoP11Il2CppClass
Zm:FUNCTION_TABLE_iiffi
rc:invoke_viiifi
pte:_MonoProperty_GetCustomAttributes_m3619796755
pzj:__ZNSt3__214__split_bufferIP11Il2CppClassRNS_9allocatorIS2_EEEC2EjjS5_
zOe:_MethodDictionary_System_Collections_IEnumerable_GetEnumerator_m4169036899
i$d:__ZN23InterfaceActionInvoker2IP8String_tP12Il2CppObjectE6InvokeEjP11Il2CppClassS3_S1_S3_
YMa:__ZNK11AssetBundle14GetPreloadDataEiR13dynamic_arrayIiLj4EE
$vc:_rgb_gray_convert_22
JKf:_RIPEMD160Managed_JJJ_m4161373884
CJe:_CrossContextChannel__ctor_m3755842292
DSg:_DefaultComparer_Equals_m3257444875_gshared
tf:_JS_Sound_SetPosition
_Za:__ZN19RenderBufferManager13GetTempBufferEii17DepthBufferFormat19RenderTextureFormatj22RenderTextureReadWrite14VRTextureUsagei23RenderTextureMemoryless
cwj:__ZL13GetSharedInstPK17Il2CppGenericInst
ZEi:__ZL98PointerEventData_t3807901092_CustomAttributesCacheGenerator_PointerEventData_get_delta_m1062010255P21CustomAttributesCache
FUh:_List_1_get_Count_m634446588_gshared
Jhd:__ZN22BaseUnityConnectClient17SaveSessionValuesEv
jWe:_InternalEnumerator_1_get_Current_m476140818_gshared
nXh:_List_1_Sort_m4240158523_gshared
GAg:_WaitForEndOfFrame__ctor_m1381314187
GVb:__Z24SetupActiveLightsContextR21ActiveLightingContextRK12ActiveLightsRK11CullResultsP14ShadowMapCacheRK10MinMaxAABB
Gud:_AnimationTriggers_set_disabledTrigger_m933056574
Uoc:__Z38Sprite_CUSTOM_INTERNAL_get_textureRectP12Il2CppObjectP5RectTIfE
$Hj:__ZNK15dense_hashtableINSt3__24pairIK10KeyWrapperIPK22Il2CppGenericParameterEPK24MonoGenericParameterInfoEES6_N6il2cpp5utils11PointerHashIS4_EEN14dense_hash_mapIS6_SA_SF_NS6_14EqualsComparerINS0_8equal_toIS5_EEEENS0_9allocatorISB_EEE9SelectKeyESK_SM_E3endEv
cUh:_List_1_Add_m238442097_gshared
Bic:__ZN9TextAsset7SetTextERKN4core12basic_stringIcNS0_20StringStorageDefaultIcEEEE
DTa:__ZN6Camera8TransferI24GenerateTypeTreeTransferEEvRT_
Ka:invoke_iiiiiiif
Ga:invoke_iiiiiiii
phg:_Array_InternalArray__set_Item_TisByte_t1134296376_m3104140039_gshared
Jug:_Rect_ToString_m447614148
TWi:_PKCS12_GetBytes_m415958948
mDe:_Context_get_HandshakeState_m2425796590
YYb:__ZN8Renderer17PendingAddToSceneEv
jzh:_Collection_1_System_Collections_IList_set_Item_m2625856224_gshared
Bok:b122
Eok:b125
Dok:b124
Gok:b127
Fok:b126
yhj:__ZL25UnresolvedVirtualCall_154P12Il2CppObject39CustomAttributeNamedArgument_t287865710S1_PK10MethodInfo
eoc:__Z52Register_UnityEngine_RectTransform_INTERNAL_get_rectv
Dqg:_Mesh_SetSizedArrayForChannel_m2565120436
e$:__Z21PostprocessStacktracePKcRN4core12basic_stringIcNS1_20StringStorageDefaultIcEEEE
ppg:_ManagedStreamHelpers_ManagedStreamLength_m2930872960
ygb:__ZN18StreamedBinaryReadILb0EE21TransferSTLStyleArrayI13dynamic_arrayI16SplashScreenLogoLj4EEEEvRT_17TransferMetaFlags
DVi:_BasicConstraintsExtension_Encode_m2009213240
plc:__Z47Register_UnityEngine_Camera_get_allCamerasCountv
nwd:___clang_call_terminate
Mhd:__ZN22BaseUnityConnectClient20StartEventDispatcherEv
agc:__ZNSt3__26vectorIj13stl_allocatorIjL18MemLabelIdentifier1ELi16EEE6assignIPKtEENS_9enable_ifIXaasr21__is_forward_iteratorIT_EE5valuesr16is_constructibleIjNS_15iterator_traitsIS9_E9referenceEEE5valueEvE4typeES9_S9_
HB:__ZN7mecanim9animation16EvaluateAvatarIKEPKNS0_14AvatarConstantEPKNS0_11AvatarInputEPNS0_12AvatarOutputEPNS0_12AvatarMemoryEPNS0_15AvatarWorkspaceEb
fDa:__ZL25ProgramUniformMatrix4x3fvPK7ApiGLESjiihPKv
m1b:__Z29StdTemplateConversionFunctionIsiEbPvR14SafeBinaryRead
tNb:__ZN12InputManager13InputEndFrameEv
lLc:__ZN15b2RevoluteJointC2EPK18b2RevoluteJointDef
Cyj:__ZNSt3__26__treeIP11Il2CppClassNS_4lessIS2_EENS_9allocatorIS2_EEE25__emplace_unique_key_argsIS2_JRKS2_EEENS_4pairINS_15__tree_iteratorIS2_PNS_11__tree_nodeIS2_PvEEiEEbEERKT_DpOT0_
Sqg:_Object_get_name_m4211327027
$Mj:__ZN6il2cpp2vm6Thread5SetupEP12Il2CppThread
esi:__ZL81Screen_t3860757715_CustomAttributesCacheGenerator_Screen_SetResolution_m875896249P21CustomAttributesCache
KCh:_ReadOnlyCollection_1_System_Collections_IList_get_IsReadOnly_m1248651675_gshared
b8e:_Enumerator_System_Collections_IDictionaryEnumerator_get_Key_m2500634048_gshared
Ejj:_TextGenerator_t3211863866_marshal_pinvoke_back
Fak:___munmap
kg:_localtime_r
zOb:__ZN22RenderingCommandBuffer13GetAndCheckRTE24BuiltinRenderTextureTypeRKN9ShaderLab16FastPropertyNameEPKcPP13RenderTexture
Ida:__ZN14GfxDoubleCacheIyP17VertexDeclaration14GfxGenericHashIyENSt3__28equal_toIyEEN31GfxDoubleCacheConcurrencyPolicy11LocklessGetE42GfxDoubleCacheDefaultEmptyDeletedGeneratorIyEEC2Ev
fZe:_InternalEnumerator_1_System_Collections_IEnumerator_Reset_m3619766341_AdjustorThunk
lX:__Z19free_alloc_internalPv10MemLabelId
gfi:__ZL56ReturnMessage_t1376985608_CustomAttributesCacheGeneratorP21CustomAttributesCache
YDg:_UTF32Decoder_GetChars_m1925558948
ng:_strftime
YFa:__ZN7Texture33SetStoredColorSpaceNoDirtyNoApplyE17TextureColorSpace
cve:_ResourceSet__ctor_m3618395942
i_f:_Decimal_System_IConvertible_ToDouble_m3125524987_AdjustorThunk
f2:__ZN12FileAccessorD2Ev
f8:__ZN10ColorRGBAf8TransferI18StreamedBinaryReadILb0EEEEvRT_
NXa:__ZN14VertexDataInfoC2Ev
BYj:__ZN6il2cpp2gc16GarbageCollector14CollectALittleEv
Gti:__ZL87Sprite_t280657092_CustomAttributesCacheGenerator_Sprite_INTERNAL_get_border_m3728071101P21CustomAttributesCache
xdc:__ZNK9HPlayable15GetPlayableTypeEv
rph:__Z117RuntimeInvoker_Void_t1185182177_CustomAttributeTypedArgumentU5BU5DU26_t2503877664_Int32_t2950945753_Int32_t2950945753PFvvEPK10MethodInfoPvPS4_
eBb:__ZL17Transfer_GUIStyleI18StreamedBinaryReadILb1EELb1EEvRK29SerializationCommandArgumentsR31RuntimeSerializationCommandInfo
imf:_RectMask2D_IsRaycastLocationValid_m1652308696
Xyj:__ZN6il2cpp6icalls8mscorlib6SystemL9IsPrivateEPK12PropertyInfo
aXi:_X501_ToString_m1148552872
yvg:_RectTransform_add_reapplyDrivenProperties_m1374850920
Vaa:__ZN9shadertag10InitializeEv
Rlh:__Z69RuntimeInvoker_Void_t1185182177_Int32_t2950945753_Color32_t2600501292PFvvEPK10MethodInfoPvPS4_
fQb:__ZN13BatchRenderer20RenderSingleWithPassER17ShaderPassContextPK18SharedMaterialDataP6ShaderPN9ShaderLab4PassEiPKNS7_10GrabPassesEjib15BatchBreakCause
lsj:__ZN15dense_hashtableINSt3__24pairIK10KeyWrapperIPK19Il2CppGenericMethodEPK26Il2CppGenericMethodIndicesEES6_N6il2cpp8metadata23Il2CppGenericMethodHashEN14dense_hash_mapIS6_SA_SE_NS6_14EqualsComparerINSD_26Il2CppGenericMethodCompareEEENS0_9allocatorISB_EEE9SelectKeyESI_SK_ED2Ev
F6a:__ZN15QualitySettings14QualitySetting8TransferI24GenerateTypeTreeTransferEEvRT_
W5j:__ZN6il2cpp5utils6Memory11AlignedFreeEPv
UBe:_Context_get_ClientWriteKey_m3174706656
ZDi:__ZL77ExecuteEvents_t3484638744_CustomAttributesCacheGenerator_U3CU3Ef__mgU24cache7P21CustomAttributesCache
Cff:_InputField_get_textComponent_m948764648
Fqc:__Z44Register_UnityEngine_Object_DestroyImmediatev
kJc:__ZL34CleanupModule_PerformanceReportingv
cge:_Convert_ToSingle_m835189399
Pec:__ZN22BlockMemoryCacheWriter14LockCacheBlockEjPPhS1_
Pyc:__ZNSt3__218__insertion_sort_3IRPFbPKN5IMGUI9GUIWindowES4_EPPS2_EEvT0_SA_T_
NGd:_CryptographicUnexpectedOperationException__ctor_m69881930
Bhi:__ZL73TripleDESCryptoServiceProvider_t3595206342_CustomAttributesCacheGeneratorP21CustomAttributesCache
v3h:_Collection_1_SetItem_m1218178236_gshared
I8e:_Enumerator_MoveNext_m1574460676_gshared
KGc:__Z22TransferField_NonArrayI8JSONRead27Converter_SimpleNativeClassI8GUIStyleEEvRK23StaticTransferFieldInfoR31RuntimeSerializationCommandInfoRT0_
ktj:__ZN15dense_hashtableI10KeyWrapperIPK19Il2CppGenericMethodES4_N6il2cpp8metadata23Il2CppGenericMethodHashEN14dense_hash_setIS4_S7_NS4_14EqualsComparerINS6_26Il2CppGenericMethodCompareEEENSt3__29allocatorIS4_EEE8IdentityESB_SE_E16reset_thresholdsEv
Ug:_llvm_eh_typeid_for
a7b:__Z13RegisterClassI10GameObjectEvv
Aae:_CollectionBase_OnClear_m883003723
u6e:_Enumerator__ctor_m2609246966_gshared
hOe:_RemotingServices_FindInterfaceMethod_m2125212568
Kz:__ZNK23AnimationPlayableOutput7GetTypeEv
hUd:_StreamWriter__cctor_m1229272693
d2f:_Enum_System_IConvertible_ToSByte_m779472798
GIg:_Type_get_IsInterface_m3284996719
UVe:_InternalEnumerator_1_MoveNext_m1543390728_gshared
sDb:__Z18Transfer_BlittableI18StreamedBinaryReadILb0EELb1E8Vector4fEvRK29SerializationCommandArgumentsR31RuntimeSerializationCommandInfo
p6f:_SortKey_get_OriginalString_m1428586816
Vlh:__Z51RuntimeInvoker_Void_t1185182177_Vector4_t3319028937PFvvEPK10MethodInfoPvPS4_
oSg:_Dictionary_2_U3CCopyToU3Em__0_m2023886030_gshared
kmh:__Z64RuntimeInvoker_Boolean_t97287965_RefEmitPermissionSet_t484390987PFvvEPK10MethodInfoPvPS4_
lnk:_glBindVertexArray__wrapper
dEd:_SerializationInfo__ctor_m2923079689
H0a:__ZN8Material8TransferI14SafeBinaryReadEEvRT_
S2a:__ZN12CubemapArray17UploadToGfxDeviceEv
rKh:_Func_2__ctor_m1150804732_gshared
fLd:_Int32_JumpOverWhite_m208298144
LMj:__ZN24dense_hashtable_iteratorINSt3__24pairIK10KeyWrapperIP11Il2CppClassES4_EES5_N6il2cpp8metadata16SZArrayClassHashEN14dense_hash_mapIS5_S4_SA_NS5_14EqualsComparerINS9_19SZArrayClassCompareEEENS0_9allocatorIS7_EEE9SelectKeyESE_SG_E30advance_past_empty_and_deletedEv
Onh:__Z53RuntimeInvoker_Int32_t2950945753_UIVertex_t4057497605PFvvEPK10MethodInfoPvPS4_
mmk:_emscripten_glGetUniformiv__wrapper
N$j:__ZN6il2cpp2vm13ManagedObject14QueryInterfaceERK10Il2CppGuidPPv
rH:__ZN11AudioSource4StopEb
_sb:__ZN14SafeBinaryRead21TransferSTLStyleArrayI13dynamic_arrayI10Matrix4x4fLj4EEEEvRT_17TransferMetaFlags
qUa:__ZN15LODGroupManager26CollectAllLODGroupManagersERK16CoreCameraValuesR13dynamic_arrayIPS_Lj4EEb
w4j:__ZN6il2cpp2os14WindowsRuntime13DeleteHStringEP15Il2CppHString__
sLg:_UInt32_System_IConvertible_ToUInt32_m1744564280_AdjustorThunk
xIa:__ZN18GlslGpuProgramGLESD2Ev
l$b:__ZN13RenderTexture14SetVolumeDepthEi
LS:__ZN11UnityEngine15CloudWebService14DataErrorEvent12ToJsonStringERN4core12basic_stringIcNS2_20StringStorageDefaultIcEEEEjPKc
jdh:__Z86RuntimeInvoker_Void_t1185182177_UInt16_t2177724958_SByte_t1669577662_SByte_t1669577662PFvvEPK10MethodInfoPvPS4_
Una:__Z22LoadGpuProgramFromDataPKhS0_Rj
oHc:__ZN10Matrix4x4f8TransferI8JSONReadEEvRT_
N5c:__ZN14SafeBinaryRead21TransferSTLStyleArrayI13dynamic_arrayIN4core17string_with_labelILi35EEELj4EEEEvRT_17TransferMetaFlags
Ulf:_PositionAsUV1_ModifyMesh_m4231919476
ebe:_Hashtable__ctor_m1941859523
o4i:_WindowFunction__ctor_m2544237635
n5e:_Comparer_1_get_Default_m1947376189_gshared
vof:_ScrollRect_set_horizontalScrollbarSpacing_m2209919081
Tvc:_jsimd_h2v2_fancy_upsample
xZ:__ZN17PersistentManager18ReadObjectThreadedEi
nFa:__ZN25TransformFeedbackSkinning31CleanupTransformFeedbackShadersEv
eUa:__Z22scripting_object_unbox18ScriptingObjectPtr
eNe:_AsyncResult_get_NextSink_m1844209137
T6c:__ZNK20TextRenderingPrivate8FontImpl19GetCharacterAdvanceEjijfPj
Keg:_Array_InternalArray__ICollection_Add_TisUriScheme_t722425697_m3142345403_gshared
a9j:_fmt_u
LQi:_Dictionary_2_Do_CopyTo_TisDictionaryEntry_t3123975638_TisDictionaryEntry_t3123975638_m1126292988_gshared
s8a:__ZN10VertexData8TransferI18StreamedBinaryReadILb0EEEEvRT_
b8j:__ZN6il2cpp8metadata25Il2CppGenericClassCompare7CompareEPK18Il2CppGenericClassS4_
aYd:_MonoType_get_Assembly_m4290914179
C6h:__ZL70RuntimeArray_CustomAttributesCacheGenerator_Array_GetValue_m1062368071P21CustomAttributesCache
Ooa:__ZN9ShaderLab7ProgramC2E10MemLabelIdi10ShaderType
x$b:__ZN14PreloadManager16UpdatePreloadingEv
U2:__ZN12BaseRendererD2Ev
fTf:_String_LastIndexOf_m95398196
cOi:_Array_InternalArray__set_Item_TisUILineInfo_t4195266810_m2313892078_gshared
x0e:_InternalEnumerator_1_System_Collections_IEnumerator_Reset_m3355902602_AdjustorThunk
lsg:_PlayableAsset__ctor_m2395156306
xFi:__ZL79StandaloneInputModule_t2760469101_CustomAttributesCacheGenerator_m_SubmitButtonP21CustomAttributesCache
bbj:_Medium__ctor_m448055906
kW:__ZNK21UnityDefaultAllocatorI17LowLevelAllocatorE8ContainsEPKv
mxj:__ZNSt3__213__vector_baseI6pollfdNS_9allocatorIS1_EEED2Ev
iFd:_RuntimeTypeHandle_Equals_m2857439487
di:_emscripten_get_main_loop_timing
zwe:_SafeHandle_Finalize_m3866180675
E6a:__ZN24GenerateTypeTreeTransfer21TransferSTLStyleArrayINSt3__26vectorIN15QualitySettings14QualitySettingENS1_9allocatorIS4_EEEEEEvRT_17TransferMetaFlags
LSd:_MemoryStream_ToArray_m3911744835
C7e:_Enumerator_System_Collections_IDictionaryEnumerator_get_Entry_m859540448_AdjustorThunk
okh:__Z72RuntimeInvoker_Boolean_t97287965_RaycastHitU26_t2429360258_RuntimeObjectPFvvEPK10MethodInfoPvPS4_
R7j:__ZN6il2cpp2os5Event4WaitEjb
iJg:_Type_GetHashCode_m1947148725
t8g:__Z91RuntimeInvoker_Void_t1185182177_RuntimeObject_RuntimeObject_RuntimeObject_SByte_t1669577662PFvvEPK10MethodInfoPvPS4_
Ilb:__ZNK2UI13RectTransform22GetTypeVirtualInternalEv
Ap:getTempRet0
LPf:_StrongName_get_Version_m4243032012
uZe:_InternalEnumerator_1_MoveNext_m2234422530_gshared
wCj:__ZN6il2cpp2gc19AppendOnlyGCHashMapINSt3__24pairIPK14Il2CppAssemblyP11Il2CppClassEEP24Il2CppReflectionAssembly17ReflectionMapHashIS9_ENS2_8equal_toIS9_EEE10CopyValuesEPv
Opd:_BaseRaycaster_OnEnable_m2678466030
O6e:_Enumerator_get_CurrentKey_m627428048_AdjustorThunk
fng:_UnityEventBase__ctor_m1851535676
hQi:_Array_Sort_TisVector4_t3319028937_m2797285308_gshared
LEe:_HandshakeMessage_Update_m2417837686
hzh:_Collection_1_System_Collections_IList_get_Item_m3314684800_gshared
xOj:__ZN6il2cpp6icalls8mscorlib6System9ThreadingL21lookup_cached_cultureEP12Il2CppThreadi
X3j:__ZN6il2cpp2os11EventHandleD2Ev
brc:__Z40LineRenderer_CUSTOM_SetPosition_InjectedP12Il2CppObjectiRK8Vector3f
Cmg:_NetFxCoreExtensions_CreateDelegate_m751211712
xWb:__ZN18DeferredRenderLoopD2Ev
Vlj:_AnimationLayerMixerPlayable__cctor_m4086299972
s3:__ZNK16TypeTreeIterator4NameEv
exh:_Collection_1_CopyTo_m756458445_gshared
F1:__ZN15FileSystemEntry3SetEPKc
vke:_ConstructorBuilder_Invoke_m3010446651
Iud:_AspectRatioFitter_get_aspectMode_m3735191157
Xaj:_MagnifyGlass_createMagnifyGlass_m500014374
JCf:_IPv6Address_set_ScopeId_m3907190992
PBh:_ReadOnlyCollection_1_System_Collections_Generic_IListU3CTU3E_Insert_m568455025_gshared
hJ:__ZN20SoundChannelInstance15ParameterBuffer5ApplyEPN4FMOD7ChannelE
Efj:__ZL24UnresolvedVirtualCall_52P12Il2CppObjectPK10MethodInfo
xCf:_IPv6Address__ctor_m4117281080
Nri:__ZL88GameObject_t1113636619_CustomAttributesCacheGenerator_GameObject_SendMessage_m3720186693P21CustomAttributesCache
Q6c:__ZN20TextRenderingPrivate19NativeTextGenerator9InsertTabEv
xdk:_sbrk
Hig:_Bounds_GetHashCode_m1844059663
Buh:_Collection_1_System_Collections_Generic_ICollectionU3CTU3E_get_IsReadOnly_m1032650589_gshared
$Ph:_Enumerator_VerifyState_m3474272061_AdjustorThunk
nid:__ZN11UnityEngine15PlatformWrapper24GetRuntimePlatformStringEv
Pi:_glIsEnabled
glb:__ZN15CacheWriterBaseD2Ev
$je:_DerivedType__ctor_m1853298054
Prb:__Z25scripting_class_get_image17ScriptingClassPtr
_9d:_CaseInsensitiveComparer_Compare_m1224120810
FSh:_List_1_RemoveAt_m2730968292_gshared
fib:__ZNSt3__26vectorIN4core12basic_stringIcNS1_20StringStorageDefaultIcEEEE13stl_allocatorIS5_L18MemLabelIdentifier13ELi16EEEC2INS_11__wrap_iterIPS5_EEEET_SE_RKS8_PNS_9enable_ifIXaasr21__is_forward_iteratorISE_EE5valuesr16is_constructibleIS5_NS_15iterator_traitsISE_E9referenceEEE5valueEvE4typeE
Ti:_emscripten_glDrawElementsInstanced
xy:__ZN26AnimatorControllerPlayable27SetupStateMachineBehavioursEv
Hag:_Array_InternalArray__IEnumerable_GetEnumerator_TisSlot_t3975888750_m1869932007_gshared
gjf:_LayoutGroup_get_preferredWidth_m3816902260
UVa:__ZN18JobBatchDispatcherD2Ev
Dlb:__ZN9Transform17MainThreadCleanupEv
E2j:_GC_clear_hdr_marks
hok:_emscripten_glCreateShader__wrapper
_Wc:_cff_fd_select_get
Drf:_Text_set_resizeTextForBestFit_m4095249125
GEf:_OidEnumerator_MoveNext_m3138911739
wmh:__Z53RuntimeInvoker_Boolean_t97287965_Keyframe_t4206410242PFvvEPK10MethodInfoPvPS4_
cj:_emscripten_glGetShaderiv
hK:__ZN4FMOD6System10getVersionEPj
$9c:__ZN2UI6Canvas23VirtualRedirectTransferER24GenerateTypeTreeTransfer
Sfk:dynCall_viiiififfi
Mpf:_Selectable_set_animationTriggers_m2970345687
Rxh:_Collection_1_CopyTo_m4271769704_gshared
SEc:__ZN9JSONWrite8TransferIN4math12int2_storageEEEvRT_PKc17TransferMetaFlags
z5c:__ZN13TextRendering4Font13AwakeFromLoadE17AwakeFromLoadMode
C4f:_CompareInfo_LastIndexOf_m2688553706
T1f:_Enum__ctor_m3602080049
dra:__ZN9GfxDevice21ReleaseSharedMeshDataEP14SharedMeshData
Esd:_MouseState__ctor_m1467839005
u2i:_Uri_IsDomainAddress_m2867513594
ofb:__ZNSt3__27__sort5IRNS_6__lessINS_4pairIPKN5Unity4TypeE7Hash128EES8_EEPS8_EEjT0_SC_SC_SC_SC_T_
uki:__ZL79Convert_t2465617642_CustomAttributesCacheGenerator_Convert_ToDouble_m2949593046P21CustomAttributesCache
Mzd:_Dropdown_CreateItem_m2954407740
L1j:_GC_unreachable_finalize_mark_proc
bGf:_X509Chain_ProcessCrlExtensions_m236234529
h3j:_maybe_finalize
brj:__ZN6il2cpp2vm5Class40GetInterfaceInvokeDataFromVTableSlowPathEPK12Il2CppObjectPK11Il2CppClassj
bdg:_Array_InternalArray__IndexOf_TisLabelData_t360167391_m1826525656_gshared
Ync:__Z43RectTransform_CUSTOM_INTERNAL_get_anchorMaxP12Il2CppObjectP13Vector2fIcall
Ljj:_TextGenerator_INTERNAL_CALL_Populate_Internal_cpp_m4171649399
zLe:_RealProxy_get_ObjectIdentity_m2790771985
MKe:_RemotingConfiguration_RegisterChannelTemplate_m3105688054
JZf:_Decimal_Parse_m942471224
$4a:__ZN8Material28UpdateHashesOnPropertyChangeEN9ShaderLab16FastPropertyNameE
qth:_Collection_1_System_Collections_IList_get_Item_m1368877441_gshared
pbi:__ZL56MethodBuilder_t2807316753_CustomAttributesCacheGeneratorP21CustomAttributesCache
Iwe:_Locale_GetText_m3520169047
Moc:__Z53Register_UnityEngine_SortingLayer_GetLayerValueFromIDv
lsi:__ZL85RectOffset_t1369453676_CustomAttributesCacheGenerator_RectOffset_set_right_m807318764P21CustomAttributesCache
Hqb:__Z18Transfer_BlittableI14SafeBinaryReadLb1E8Vector4fEvRK29SerializationCommandArgumentsR31RuntimeSerializationCommandInfo
EAj:_SessionStateChanged_EndInvoke_m3128001178
Zaj:_MagnifyGlass_getLine_m3930504756
Oud:_AspectRatioFitter_SetDirty_m2910185270
mxc:__Z27LoadMemoryBufferIntoTextureR9Texture2DPKhj20LoadImageCompressionb
jt:__ZN8Animator23VirtualRedirectTransferER19StreamedBinaryWriteILb0EE
eA:__ZN11UnityEngine9Animation32CreateAnimatorGenericBindingsOptERKNS0_20AnimationSetBindingsER9TransformPKN7mecanim9animation14AvatarConstantEPKNS0_21AvatarBindingConstantEbRNS6_6memory9AllocatorER8Animator
zSj:__ZN6il2cpp2vm5Image13ClassFromNameEPK11Il2CppImagePKcS6_
cek:dynCall_vdddddd
Dla:__ZN24GenerateTypeTreeTransfer21TransferSTLStyleArrayINSt3__26vectorIN9ShaderLab14SerializedPassENS1_9allocatorIS4_EEEEEEvRT_17TransferMetaFlags
tba:__ZL32MarkLevelGameManagerDependenciesR27GarbageCollectorThreadState
Bta:__ZNK13GfxDeviceGLES26HasActiveRandomWriteTargetEv
RMj:__GLOBAL__sub_I_Thread_cpp
dwc:_gray_rgb_convert
T7h:__ZL54_MemberInfo_t3922476713_CustomAttributesCacheGeneratorP21CustomAttributesCache
Zik:_glGetActiveUniformsiv__wrapper
Joc:__Z43Register_UnityEngine_Material_EnableKeywordv
n3b:__Z17BuildSmoothCornerILb0EEvjRPhRKN4math8float4x4EPK15LineBuilderDataRKfSA_RK11ColorRGBA32
R_:__ZN13MonoBehaviour19SetupScriptingCacheE17ScriptingClassPtrP10MonoScript
Fxj:__ZNSt3__214__split_bufferIP12Il2CppThreadRNS_9allocatorIS2_EEED2Ev
zs:__Z20AnimationEventToMonoRK14AnimationEventR18MonoAnimationEvent
hkh:__Z106RuntimeInvoker_Void_t1185182177_Single_t1397266774_Single_t1397266774_Single_t1397266774_Int32_t2950945753PFvvEPK10MethodInfoPvPS4_
Zxd:_FloatTween_set_targetValue_m3604919944_AdjustorThunk
e_:__ZN17PersistentManager29ReadAndActivateObjectThreadedEiRK26SerializedObjectIdentifierP14SerializedFilebb
x7d:_ArrayList_get_IsReadOnly_m913775115
ssd:_PointerEventData_get_dragging_m746831934
VIg:_Type_get_TypeHandle_m160082026
BHh:_ReadOnlyCollection_1_System_Collections_IEnumerable_GetEnumerator_m2781605075_gshared
Wea:__ZZN15DirectorManager15InitializeClassEvEN52PreLateUpdateDirectorUpdateAnimationBeginRegistrator7ForwardEv
p7f:_Array_get_swapper_TisCustomAttributeNamedArgument_t287865710_m4254011335_gshared
QBd:_Graphic_RegisterDirtyMaterialCallback_m106898453
F4i:_GUILayoutEntry_get_margin_m3174861737
lLa:__ZN4PPtrI6SpriteE8TransferI14SafeBinaryReadEEvRT_
RUg:_EqualityComparer_1_System_Collections_IEqualityComparer_Equals_m1672604045_gshared
F3h:_Collection_1_System_Collections_IList_Add_m2739652888_gshared
PLj:__ZN15dense_hashtableINSt3__24pairIK10KeyWrapperIP11Il2CppClassES4_EES5_N6il2cpp8metadata16SZArrayClassHashEN14dense_hash_mapIS5_S4_SA_NS5_14EqualsComparerINS9_19SZArrayClassCompareEEENS0_9allocatorIS7_EEE9SelectKeyESE_SG_E16reset_thresholdsEv
XYh:_List_1_GetEnumerator_m2095602005_gshared
bSj:__ZNK15dense_hashtableINSt3__24pairIK10KeyWrapperINS1_IPKcS4_EEEiEES6_24NamespaceAndNamePairHashN14dense_hash_mapIS6_iS9_NS6_14EqualsComparerI26NamespaceAndNamePairEqualsEENS0_9allocatorIS8_EEE9SelectKeyESD_SF_E13find_positionERS7_
Vka:__ZNSt3__26vectorIN9ShaderLab14SerializedPassENS_9allocatorIS2_EEE8__appendEj
eka:__ZNSt3__26vectorIN9ShaderLab20SerializedSubProgram13BufferBindingENS_9allocatorIS3_EEEC2INS_11__wrap_iterIPS3_EEEET_SB_RKS5_PNS_9enable_ifIXaasr21__is_forward_iteratorISB_EE5valuesr16is_constructibleIS3_NS_15iterator_traitsISB_E9referenceEEE5valueEvE4typeE
msh:__Z37RuntimeInvoker_Enumerator_t3436819725PFvvEPK10MethodInfoPvPS4_
Jsg:_PlayableOutputHandle_op_Equality_m388301694
VBg:_Encoding_get_ISOLatin1_m2107621369
qMc:__ZNK16PhysicsManager2D21GetAutoSyncTransformsEv
Pxe:_BigInteger_op_Inequality_m2697143438
Zsi:__ZL89Mathf_t3464937446_CustomAttributesCacheGenerator_Mathf_SmoothDamp_m394423605____maxSpeed4P21CustomAttributesCache
SKc:__ZN12b2WheelJoint24SolveVelocityConstraintsERK12b2SolverData
Ihj:__ZL25UnresolvedVirtualCall_164P12Il2CppObject20UICharInfo_t75501106S1_PK10MethodInfo
S5h:__ZL72IntPtr_t_CustomAttributesCacheGenerator_IntPtr_op_Inequality_m3063970704P21CustomAttributesCache
LWi:_SafeBag_get_ASN1_m2293701606
I4a:__ZN9Texture2D23VirtualRedirectTransferER18StreamedBinaryReadILb0EE
XSc:__ZN10Collider2D8TransferI24GenerateTypeTreeTransferEEvRT_
$Vf:_DateTime_System_IConvertible_ToDouble_m2116720007_AdjustorThunk
Q9d:_BitArrayEnumerator__ctor_m2359341397
n$g:_Enumerator_MoveNext_m1177880931_gshared
L2a:__ZNK12CubemapArray12GetDataWidthEv
J3e:_DefaultComparer__ctor_m3288720761_gshared
bnh:__Z102RuntimeInvoker_Int32_t2950945753_RuntimeObject_Vector2_t2156229523_Int32_t2950945753_Int32_t2950945753PFvvEPK10MethodInfoPvPS4_
esj:__ZN30dense_hashtable_const_iteratorINSt3__24pairIK10KeyWrapperIPKcEP11Il2CppClassEES5_N6il2cpp5utils11StringUtils12StringHasherIS4_EEN14dense_hash_mapIS5_S8_SE_NS5_14EqualsComparerINSB_13VmStringUtils21CaseSensitiveComparerEEENS0_9allocatorIS9_EEE9SelectKeyESJ_SL_E30advance_past_empty_and_deletedEv
hyi:__ZL73g_UnityEngine_TextRenderingModule_Assembly_CustomAttributesCacheGeneratorP21CustomAttributesCache
n0:__ZN16ScriptingManager27NativeTypeForScriptingClassE17ScriptingClassPtr
TLg:_UInt64_System_IConvertible_ToDateTime_m3434604642
QIg:_Type_get_IsSerializable_m1040556850
O$c:_get_sfnt_table
dPi:_Array_Resize_TisUIVertex_t4057497605_m1219201596_gshared
Tai:__ZL55StreamWriter_t1266378904_CustomAttributesCacheGeneratorP21CustomAttributesCache
YOg:_Dictionary_2_System_Collections_ICollection_get_IsSynchronized_m256515291_gshared
ZX:__ZN8Renderer20RendererAddedToSceneEv
SXb:__ZL22ScheduleSceneNodesJobsP25ScheduleSceneNodesJobDataj
Vk:_emscripten_set_canvas_size
UAd:_Graphic_SetVerticesDirty_m2124914069
F4f:_CultureInfo__ctor_m3285927757
Xkf:_MaskableGraphic_get_rootCanvasRect_m3492154629
_Oi:_Array_Resize_TisRaycastResult_t3360306849_m1811054291_gshared
xCh:_ReadOnlyCollection_1_System_Collections_Generic_ICollectionU3CTU3E_get_IsReadOnly_m3152485890_gshared
zka:__ZNSt3__26vectorIN9ShaderLab20SerializedSubProgramENS_9allocatorIS2_EEE8__appendEj
UW:__ZN20DynamicHeapAllocatorI17LowLevelAllocatorE8AllocateEji
Vfd:__ZN11UnityEngine9Analytics15UserCustomEvent12ToJsonStringER9JSONWrite
b6i:_Locale_GetText_m2427493201
MQb:__ZN20DynamicPropertySheet15SetVectorQueuedERKN9ShaderLab16FastPropertyNameERK8Vector4fN19ShaderPropertySheet8SetFlagsE
SA:__ZN7mecanim9animation22EvaluateAvatarRetargetEPKNS0_14AvatarConstantEPKNS0_11AvatarInputEPNS0_12AvatarOutputEPNS0_12AvatarMemoryEPNS0_15AvatarWorkspaceEb
H0e:_InternalEnumerator_1_System_Collections_IEnumerator_Reset_m996811230_AdjustorThunk
TYa:__ZN14RenderSettings23VirtualRedirectTransferER19StreamedBinaryWriteILb0EE
lke:_ConstructorBuilder_get_TypeBuilder_m2755629087
ar:__ZN13dynamic_arrayI8Vector2fLj4EE9push_backERKS0_
pDc:__ZL26Transfer_SimpleNativeClassI9JSONWrite10RectOffsetLb0EEvRK29SerializationCommandArgumentsR31RuntimeSerializationCommandInfo
d2j:_GC_push_conditional
ggd:__ZN21UnityAnalyticsManager23VirtualRedirectTransferER24GenerateTypeTreeTransfer
Exa:__ZN17GenericDynamicVBO10AllocateVBEjR21DynamicVBOChunkHandle
yZf:_DBNull_ToString_m3638608738
ETj:__ZN30dense_hashtable_const_iteratorI10KeyWrapperIP18Il2CppGenericClassES3_N6il2cpp8metadata22Il2CppGenericClassHashEN14dense_hash_setIS3_S6_NS3_14EqualsComparerINS5_25Il2CppGenericClassCompareEEENSt3__29allocatorIS3_EEE8IdentityESA_SD_EppEv
N9d:_BitArray_Clone_m3537018332
aSe:_ObjectRecord_UnchainFixup_m3191243952
_Ui:_TlsStream_get_CanWrite_m16389328
Ceh:__Z65RuntimeInvoker_RuntimeObject_RuntimeObject_Vector3U26_t3464235976PFvvEPK10MethodInfoPvPS4_
tl:_glMapBufferRange
A4a:__ZN9Texture2D8TransferI18StreamedBinaryReadILb0EEEEvRT_
_mc:__Z31Input_CUSTOM_GetMouseButtonDowni
Fdc:__ZN13PlayableGraph4PlayEv
_cc:__Z29AddCanvasIntermediateRendererPN2UI6CanvasEPNS_13CanvasBuffersEP17VertexDeclarationjRK10Matrix4x4ftRK4AABB4PPtrI8MaterialEi17ShadowCastingModebP6Camerab
_Ob:__ZNK9Transform16GetLocalPositionEv
eVf:_EncoderExceptionFallbackBuffer_get_Remaining_m1573636148
dYd:_MonoType_get_BaseType_m1098640416
qMa:__ZN13LoadOperation19IntegrateTimeSlicedEi
rVi:_TlsStream_Read_m3392972801
Mta:__ZN13GfxDeviceGLES22DispatchComputeProgramE12ObjectHandleI18ComputeProgram_TagPvE15ComputeBufferIDj
ULb:__ZN20DefaultGfxDeviceImpl32InitStereoGlobalsBuffersPlatformEiijPKv
CCg:_Latin1Encoding_GetString_m254210343
Kjb:__Z17TransformAABBSlowRK4AABBRK10Matrix4x4fRS_
q2d:_Array_combsort_m4052486289
a8a:__ZN15SerializeTraitsI13dynamic_arrayI12SpriteVertexLj4EEE19ResizeSTLStyleArrayERS2_i
bTh:_List_1_System_Collections_ICollection_get_SyncRoot_m314215814_gshared
Wia:__ZN9ShaderLab21SerializedShaderState8TransferI14SafeBinaryReadEEvRT_
V2f:_Environment_GetWindowsFolderPath_m1738399646
I1h:_Queue_1_System_Collections_Generic_IEnumerableU3CTU3E_GetEnumerator_m2263220760_gshared
__h:_List_1_Sort_m378918663_gshared
sLj:__ZN15dense_hashtableINSt3__24pairIK10KeyWrapperINS1_IP11Il2CppClassjEEES4_EES6_N6il2cpp8metadata14ArrayClassHashEN14dense_hash_mapIS6_S4_SB_NS6_14EqualsComparerINSA_17ArrayClassCompareEEENS0_9allocatorIS8_EEE9SelectKeyESF_SH_E12expand_arrayEjN21dense_hash_map_traits17integral_constantIbLb0EEE
$Xc:_cf2_stack_pushInt
aE:__ZN7mecanim9animation20DestroyLayerConstantEPNS0_13LayerConstantERNS_6memory9AllocatorE
KA:__ZN8Animator19FireAnimationEventsERNS_11AnimatorJobE
ere:_Module_GetCustomAttributes_m76573271
FGd:_CryptoConfig_EncodeOID_m2635914623
Pog:_LineRenderer_set_startWidth_m1093267133
Fla:__ZN15SerializeTraitsINSt3__24pairIN4core12basic_stringIcNS2_20StringStorageDefaultIcEEEES6_EEE8TransferI24GenerateTypeTreeTransferEEvRS7_RT_
lZi:_Match_get_Groups_m841244970
hlk:b89
alk:b88
Jkk:b81
Ikk:b80
iGa:__ZN7ApiGLES19CreateSparseTextureEjj14GraphicsFormatiiiiRiS1_S1_
X0:__ZN18ResourceImageGroup7CleanupEv
Tkk:b85
Mkk:b84
$kk:b87
Ukk:b86
Wp:__ZN11Quaternionf8TransferI24GenerateTypeTreeTransferEEvRT_
mPe:_RemotingSurrogateSelector_GetSurrogate_m3900875713
tRf:_Single_IsNaN_m4024467661
YEh:_ReadOnlyCollection_1_System_Collections_IList_get_IsReadOnly_m3626439112_gshared
dBe:_CertificateValidationCallback_Invoke_m1014111289
RZa:__ZN8Playable19SetOutputConnectionEPS_i
uzh:__ZN23InterfaceActionInvoker2Ii19Vector2_t2156229523E6InvokeEjP11Il2CppClassP12Il2CppObjectiS0_
vrj:__ZN15dense_hashtableINSt3__24pairIK10KeyWrapperIPK11Il2CppClassEPKcEES6_N6il2cpp5utils11PointerHashIS3_EEN14dense_hash_mapIS6_S9_SE_NS6_14EqualsComparerINS0_8equal_toIS5_EEEENS0_9allocatorISA_EEE9SelectKeyESJ_SL_EC2ERKSO_j
gm:_glDeleteShader
HBa:__ZN6prcoreL17RemapGenericFloatI15TexFormatRGHalf16TexFormatRGFloatEEvPKNS_9InnerInfoE
UPi:_Array_Sort_TisUICharInfo_t75501106_m128665067_gshared
s_c:_otv_GSUB_validate
KLf:_RSAPKCS1SignatureDeformatter_SetHashAlgorithm_m1602190713
X1f:_Enum_System_IConvertible_ToByte_m1219166845
vOg:_Dictionary_2_CopyToCheck_m45332585_gshared
EYh:_List_1_System_Collections_ICollection_get_IsSynchronized_m3630704857_gshared
rWe:_InternalEnumerator_1_System_Collections_IEnumerator_Reset_m4239728915_AdjustorThunk
Hic:__Z27scripting_add_internal_callPKcPKv
oyh:__ZN21InterfaceFuncInvoker1Ib20UIVertex_t4057497605E6InvokeEjP11Il2CppClassP12Il2CppObjectS0_
HIj:__ZN13Il2CppHashMapINSt3__24pairIPK9EventInfoP11Il2CppClassEEj17ReflectionMapHashIS7_ENS0_8equal_toIS7_EENS0_9allocatorINS1_IK10KeyWrapperIS7_EjEEEEEC2EjRKS9_RKSB_
uUj:__GLOBAL__sub_I_GarbageCollector_cpp
O5:__Z17GetPlayerSettingsv
Lka:__ZNSt3__26vectorIN9ShaderLab20SerializedSubProgram16SamplerParameterENS_9allocatorIS3_EEE6assignIPS3_EENS_9enable_ifIXaasr21__is_forward_iteratorIT_EE5valuesr16is_constructibleIS3_NS_15iterator_traitsISA_E9referenceEEE5valueEvE4typeESA_SA_
qB:__ZN34BlobWriteTransferSTLStyleArrayImplI22OffsetPtrArrayTransferIiEEclERS1_17TransferMetaFlagsR9BlobWrite
aKi:__ZL156U3CDelayUpdateU3Ec__Iterator0_t299064644_CustomAttributesCacheGenerator_U3CDelayUpdateU3Ec__Iterator0_System_Collections_IEnumerator_get_Current_m2906633870P21CustomAttributesCache
Yre:_MonoField_get_FieldHandle_m3729647377
Unf:_ScrollRect_get_content_m2477524320
K7e:_Enumerator_MoveNext_m1556953412_AdjustorThunk
Gt:__ZN26AnimatorControllerPlayable18SetLayerAutoWeightEv
ofd:__Z44Register_UnityEngine_Canvas_get_pixelPerfectv
gkh:__Z70RuntimeInvoker_Single_t1397266774_Int32_t2950945753_Single_t1397266774PFvvEPK10MethodInfoPvPS4_
rKc:__ZN15b2FrictionJoint4DumpEv
fvi:__ZL101RectTransform_t3704657025_CustomAttributesCacheGenerator_RectTransform_INTERNAL_set_pivot_m1160676233P21CustomAttributesCache
Acd:__ZN2UI14CanvasRenderer12SyncMaterialENS0_8SyncFlagE
tUd:_StreamWriter_Write_m1660535366
Aoh:__Z66RuntimeInvoker_Void_t1185182177_Int32_t2950945753_Link_t3209266973PFvvEPK10MethodInfoPvPS4_
a6j:__ZN6il2cpp2vm9Parameter30GetDefaultParameterValueObjectEPK10MethodInfoPK13ParameterInfoPb
vEg:_UTF8Encoding_GetByteCount_m4152118078
fDf:_ServicePoint_set_UseNagleAlgorithm_m1374731041
Kxf:_KeyPairPersistence__CanSecure_m3516574278
pPg:_Dictionary_2_make_pair_m3116882385_gshared
c9g:__Z95RuntimeInvoker_Void_t1185182177_RuntimeObject_RuntimeObject_Int32_t2950945753_SByte_t1669577662PFvvEPK10MethodInfoPvPS4_
dJd:_MD5CryptoServiceProvider_Dispose_m3502499818
Avh:_Collection_1_System_Collections_IList_get_Item_m2422562729_gshared
ngh:__Z87RuntimeInvoker_Void_t1185182177_RuntimeObject_StringU26_t181565287_StringU26_t181565287PFvvEPK10MethodInfoPvPS4_
D5e:_Comparer_1_get_Default_m1596450988_gshared
O6h:__ZL74RuntimeArray_CustomAttributesCacheGenerator_Array_BinarySearch_m3171087170P21CustomAttributesCache
n6h:__ZL72Enum_t4135868527_CustomAttributesCacheGenerator_Enum_ToObject_m122225012P21CustomAttributesCache
B0c:_UNITY_tt_face_done_kern
ZBe:_SecurityParameters_get_ServerWriteMAC_m3430427271
oAi:__ZL90GUIStyle_t3956901511_CustomAttributesCacheGenerator_GUIStyle_get_stretchHeight_m4172805773P21CustomAttributesCache
GDi:__ZL68g_UnityEngine_StandardEvents_Assembly_CustomAttributesCacheGeneratorP21CustomAttributesCache
RTe:_ArrayReadOnlyList_1_RemoveAt_m2104218585_gshared
sbb:__ZN12BoneWeights48TransferI24GenerateTypeTreeTransferEEvRT_
Yag:_Array_InternalArray__IEnumerable_GetEnumerator_TisParameterModifier_t1461694466_m3675077728_gshared
N9e:_KeyCollection_System_Collections_IEnumerable_GetEnumerator_m4039044666_gshared
zIi:__ZL60RawImage_t3182918964_CustomAttributesCacheGenerator_m_UVRectP21CustomAttributesCache
yIb:__Z19scripting_gc_enablev
l1e:_InternalEnumerator_1_get_Current_m2907722321_gshared
AMb:__ZZ23InitPlayerLoopCallbacksvEN41InitializationPlayerUpdateTimeRegistrator7ForwardEv
ric:__ZN11UTF16StringC2ERKS_10MemLabelId
R0b:__Z29StdTemplateConversionFunctionIihEbPvR14SafeBinaryRead
w2e:_InternalEnumerator_1_get_Current_m3792939945_AdjustorThunk
ped:__Z55Register_UnityEngine_CanvasRenderer_DisableRectClippingv
ovc:_start_pass_huff_decoder
Tab:__ZN14SafeBinaryRead21TransferSTLStyleArrayI13dynamic_arrayI11ColorRGBA32Lj4EEEEvRT_17TransferMetaFlags
Cwb:__ZL26Transfer_SimpleNativeClassI24GenerateTypeTreeTransfer8GradientLb0EEvRK29SerializationCommandArgumentsR31RuntimeSerializationCommandInfo
dIi:__ZL118U3CCaretBlinkU3Ec__Iterator0_t2589889038_CustomAttributesCacheGenerator_U3CCaretBlinkU3Ec__Iterator0_Reset_m1547565867P21CustomAttributesCache
KJa:__ZN9GfxDevice22UploadTextureCubeArrayE9TextureIDPKhjii14GraphicsFormati18TextureUploadFlags
SXe:_InternalEnumerator_1_System_Collections_IEnumerator_get_Current_m888718134_gshared
Y4g:__Z175RuntimeInvoker_Void_t1185182177_SByte_t1669577662_SByte_t1669577662_SByte_t1669577662_SByte_t1669577662_SByte_t1669577662_SByte_t1669577662_SByte_t1669577662_SByte_t1669577662PFvvEPK10MethodInfoPvPS4_
Jrg:_Object_Destroy_m3118546832
RWf:_DateTime_FromTicks_m4059645178_AdjustorThunk
gSi:_Array_InternalArray__get_Item_TisClientCertificateType_t1004704908_m2297379651_gshared
NKe:_ConfigHandler_ParseTime_m1787834288
Fna:__ZN9ShaderLab7Program27CreateFromSerializedProgramERKNS_17SerializedProgramE10ShaderTypeiP16PropertyNamesSetPK6Shader
mie:_Assembly_Load_m3487507613
iYa:__ZNSt3__27__sort4IRNS_6__lessIN4core12basic_stringIcNS2_20StringStorageDefaultIcEEEES6_EEPS6_EEjT0_SA_SA_SA_T_
Kek:dynCall_viiiifii
jHj:__ZN6il2cpp2gc19AppendOnlyGCHashMapINSt3__24pairIPK11Il2CppImageP11Il2CppClassEEP22Il2CppReflectionModule17ReflectionMapHashIS9_ENS2_8equal_toIS9_EEEC2Ev
uZ:__Z20GetPersistentManagerv
R3c:_UNITY_TT_Set_Var_Design
j9:__ZN21SystemInfoStringCache16StaticInitializeEPv
ski:__ZL80Convert_t2465617642_CustomAttributesCacheGenerator_Convert_ToDecimal_m1695757674P21CustomAttributesCache
aBf:_NameObjectCollectionBase_FindFirstMatchedItem_m840305173
QBh:_ReadOnlyCollection_1_System_Collections_Generic_ICollectionU3CTU3E_Remove_m1100818788_gshared
BUj:__ZNK10KeyWrapperIP12Il2CppObjectE14EqualsComparerINSt3__28equal_toIS1_EEEclERKS2_S9_
_ja:__ZNSt3__26vectorIN9ShaderLab20SerializedSubProgram15StructParameterENS_9allocatorIS3_EEE6assignIPS3_EENS_9enable_ifIXaasr21__is_forward_iteratorIT_EE5valuesr16is_constructibleIS3_NS_15iterator_traitsISA_E9referenceEEE5valueEvE4typeESA_SA_
rAh:_Collection_1_IsSynchronized_m2291009199_gshared
NFb:__ZNK13MonoBehaviour7GetNameEv
Nkb:__ZN19ScriptingInvocation28AdjustArgumentsToMatchMethodEv
Vbj:_IndexedSet_1_Contains_m1525966688_gshared
UG:__Z15_CheckFMODError11FMOD_RESULTPKciS1_
JNj:__ZN6il2cpp6icalls8mscorlib6SystemL16ThrowInvalidCastEPK11Il2CppClassS5_
TWa:__Z20RenderMultipleMeshesRK15RenderNodeQueueRK18RenderMultipleData17ShaderChannelMask
qWg:_EqualityComparer_1_get_Default_m79107703_gshared
Qld:__ZN11UnityEngine15PlatformWrapper20GetPlayerPrefsStringERKN4core12basic_stringIcNS1_20StringStorageDefaultIcEEEES5_
Tkf:_MaskableGraphic_get_maskable_m1260382606
YBg:_Latin1Encoding__ctor_m498920120
ZBj:__ZN6il2cpp2vm4Type19GetGenericParameterEPK10Il2CppType
TTd:_StreamReader_Peek_m2272511193
LXf:_DateTimeFormatInfo_FillAllDateTimePatterns_m2683124783
Rdd:__Z51Register_UnityEngine_CanvasGroup_get_blocksRaycastsv
YYd:_NumberFormatter_get_IsFloatingSource_m3714711779
Qwh:_Collection_1_System_Collections_IList_Add_m1403891193_gshared
xXe:_InternalEnumerator_1_System_Collections_IEnumerator_Reset_m169899350_AdjustorThunk
yJg:_Type_GetConstructor_m1195697116
Cd:_glBeginQuery
iai:__ZL104RegionInfo_t1090270226_CustomAttributesCacheGenerator_RegionInfo_t1090270226____DisplayName_PropertyInfoP21CustomAttributesCache
Jwc:_jpeg_alloc_huff_table
YTc:__ZN10Effector2D25CheckEffectorColliderMaskEP10Collider2DS1_
$Nb:__ZN6Camera12RenderStereoENS_10RenderFlagE8CullFlagPNS_24PerformEyeRenderFunctionE
Qnb:__ZN20LocalFileSystemPosix10ToAbsoluteEPKc
IWa:__ZN20TierGraphicsSettings8TransferI19StreamedBinaryWriteILb0EEEEvRT_
pok:b111
Q8:__GLOBAL__sub_I_runtime_input_0_cpp
d$j:__ZN6il2cpp2vm13ComObjectBase16DisconnectObjectEj
TXg:_GenericComparer_1__ctor_m3652072706_gshared
Nm:f0
oq:__ZN6Object17MainThreadCleanupEv
iWa:__Z32TransferEnumWithNameForceIntSizeI14SafeBinaryRead7HDRModeEvRT_RT0_PKc17TransferMetaFlags
Xtc:_UNITY_png_do_expand
aak:_getcwd
hNc:__ZN16b2CapsuleContact6CreateEP9b2FixtureiS1_iP16b2BlockAllocator
CLa:__ZN25ThreadsafeLinearAllocatorD2Ev
bic:__ZL50GetAndClearChangedTransformsForMultilpleSystemsJobP45GetChangedTransformsForMultipleSystemsJobDatajPK23TransformAccessReadOnlyPKyj
$ib:__Z21SendMessageToEveryoneRK17MessageIdentifier11MessageData
Cda:__ZN21BillboardBatchManager16StaticInitializeEPv
IVf:_DateTime_AbsoluteDays_m4235097773
waa:__ZN12_GLOBAL__N_138ArchiveRedirectFileSystemStaticDestroyEPv
E7h:__ZL126U3CGetEnumeratorU3Ec__Iterator0_t1202911786_CustomAttributesCacheGenerator_U3CGetEnumeratorU3Ec__Iterator0_Dispose_m2078994225P21CustomAttributesCache
i0g:__Z74RuntimeInvoker_RuntimeObject_RuntimeObject_RuntimeObject_SByte_t1669577662PFvvEPK10MethodInfoPvPS4_
O7h:__ZL69Type_t_CustomAttributesCacheGenerator_Type_GetConstructor_m1195697116P21CustomAttributesCache
Nyd:_DefaultControls_CreateScrollView_m3842770629
P2a:__ZN12CubemapArray34UpdateFileTextureUploadInstructionEP26FileAssetUploadInstructionj
cbi:__ZL94EnumBuilder_t2400448213_CustomAttributesCacheGenerator_EnumBuilder_GetConstructors_m3294436155P21CustomAttributesCache
Kph:__Z55RuntimeInvoker_TableRange_t3332867892_Int32_t2950945753PFvvEPK10MethodInfoPvPS4_
K_e:_InternalEnumerator_1_MoveNext_m1020308708_gshared
hGa:__Z23CreateSparseTextureGLES9TextureIDii14GraphicsFormati
__c:_otv_Anchor_validate
T6f:_Guid_CompareTo_m243656946_AdjustorThunk
E3f:_CCMath_mod_m3631663509
_Hg:_TimeSpan_Negate_m1889505500_AdjustorThunk
oFh:_ReadOnlyCollection_1_System_Collections_ICollection_CopyTo_m2715087453_gshared
iCi:__ZL84Canvas_t3310196443_CustomAttributesCacheGenerator_Canvas_get_scaleFactor_m3314757802P21CustomAttributesCache
tbf:_Transform_1__ctor_m2810088858_gshared
y7c:__ZNSt3__23mapIN20TextRenderingPrivate7FontRefEP11FT_FaceRec_NS_4lessIS2_EENS_9allocatorINS_4pairIKS2_S4_EEEEEixERS9_
WNa:__ZN17ArchiveFileSystem10AddStorageEP20ArchiveStorageReader
Cgj:__ZL25UnresolvedVirtualCall_104P12Il2CppObjectS0_S0_S0_iPK10MethodInfo
SJc:__ZNK12b2MotorJoint16GetReactionForceEf
Ewj:__ZN6il2cpp2vm13MetadataCache37GetParameterDefaultValueDataFromIndexEi
cKj:_il2cpp_class_get_assemblyname
wvc:_decode_mcu_DC_refine
U9g:__Z50RuntimeInvoker_SByte_t1669577662_SByte_t1669577662PFvvEPK10MethodInfoPvPS4_
zBd:_Graphic_OnFillVBO_m1026749972
Fpj:__ZN6il2cpp2vm5Class15GetEnumBaseTypeEP11Il2CppClass
eEe:_Context_set_WriteSequenceNumber_m942577065
fe:_glVertexAttrib4fv
_Gf:_X509CertificateEnumerator_Reset_m4026698923
w$j:__ZNK6il2cpp5utils13VmStringUtils23CaseInsensitiveComparerclERKNSt3__212basic_stringIcNS3_11char_traitsIcEENS3_9allocatorIcEEEEPKc
Vvd:_CanvasScaler_SetScaleFactor_m3006968999
Wrh:__Z78RuntimeInvoker_Boolean_t97287965_Navigation_t3049316579_Navigation_t3049316579PFvvEPK10MethodInfoPvPS4_
R3a:__ZNK9Texture2D16GetNpotTexelSizeEv
UYd:_NumberFormatter_Init_m3576155222
sNa:__ZL33FileEntryInfoListToFolderContentsRKN4core12basic_stringIcNS_20StringStorageDefaultIcEEEERK19dynamic_block_arrayI13FileEntryInfoLj32EERNSt3__23setIS3_NSB_4lessIS3_EENSB_9allocatorIS3_EEEE
o8d:_ArrayListWrapper_IndexOf_m3692065720
Wpd:_EventSystem_set_sendNavigationEvents_m983981895
Tqa:__ZN9GfxDevice22GetDefaultVertexBufferE26GfxDefaultVertexBufferTypej
V7f:_Array_InternalArray__ICollection_Contains_TisInt64_t3736567304_m2911357929_gshared
WNb:__ZNK6Camera16GetTargetDisplayEv
Ovh:_Collection_1_Remove_m3022471627_gshared
tak:___fseeko_unlocked
hhe:_Object_ToString_m1740002499
kak:_sscanf
trd:_ExecuteEvents_GetEventChain_m2404658789
xJb:__Z17BeginSplashScreenv
cPi:_Array_Resize_TisUILineInfo_t4195266810_m3763058392_gshared
$Fd:_SByte_ToString_m3584531119_AdjustorThunk
wma:__ZN9ShaderLab16SerializedShader8TransferI19StreamedBinaryWriteILb0EEEEvRT_
_Pc:__ZNK4PPtrI7Joint2DEcvPS0_Ev
nD:__ZN7mecanim9animation18CreateAvatarMemoryEPKNS0_14AvatarConstantERNS_6memory9AllocatorE
k6d:_Convert_ToInt32_m1876369743
nxe:_ModulusRing__ctor_m2420310199
zee:_Convert_ToDateTime_m626620011
d8e:_Enumerator_System_Collections_IDictionaryEnumerator_get_Key_m2500634048_AdjustorThunk
$B:__ZN7mecanim8skeleton16SkeletonPoseCopyIN4math4trsXENS2_7affineXEEEvPKNS0_13SkeletonPoseTIT_EEPNS5_IT0_EE
Ryb:__Z18Transfer_BlittableI19StreamedBinaryWriteILb0EELb0EaEvRK29SerializationCommandArgumentsR31RuntimeSerializationCommandInfo
IRh:_List_1_Remove_m3037048099_gshared
mxa:__ZN18GfxFramebufferGLES18GetFramebufferNameERK20GfxRenderTargetSetup
x2j:_GC_print_block_list
mBj:__ZN6il2cpp2vm14TypeNameParser12ParseVersionERKNSt3__212basic_stringIcNS2_11char_traitsIcEENS2_9allocatorIcEEEERtSB_SB_SB_
hdk:_saveSetjmp
uhf:_InputField_MoveDown_m1455948167
Dzc:__Z30Event_Get_Custom_PropCharacterP12Il2CppObject
pfa:__ZN13PlayableGraph27SchedulePlayableDestructionERK9HPlayable
j_c:_cff_get_mm_var
$hk:_glGetFramebufferAttachmentParameteriv__wrapper
zJe:_ChannelServices_GetCurrentChannelInfo_m3041604116
jmd:__Z13RegisterClassI20UnityConnectSettingsEvv
M1e:_InternalEnumerator_1__ctor_m2635640285_AdjustorThunk
Mrb:__Z22scripting_array_length17ScriptingArrayPtr
HUd:_SynchronizedReader_Peek_m148942882
S3g:__Z95RuntimeInvoker_Void_t1185182177_RuntimeObject_Int32_t2950945753_Int32_t2950945753_RuntimeObjectPFvvEPK10MethodInfoPvPS4_
a3a:__ZN14SafeBinaryRead20TransferTypelessDataEjPvi
hhj:__ZL25UnresolvedVirtualCall_137P12Il2CppObject16Rect_t2360479859aPK10MethodInfo
gdb:__ZN14SpriteRenderer18UpdateCachedSpriteEb
h5c:_Horizontal_Sweep_Init
LN:__ZN13dynamic_arrayI12SoundChannelLj4EE9push_backERKS0_
L5:__Z19GetActiveColorSpacev
b0c:_UNITY_tt_face_load_kern
Are:_MonoMethodInfo_GetDeclaringType_m2924452727
KKb:__ZN13sorted_vectorINSt3__24pairIiN17InstancingBatcher12PropertyTypeEEEN10vector_mapIiS3_NS0_4lessIiEE13stl_allocatorIS4_L18MemLabelIdentifier1ELi16EEE13value_compareESA_E21sort_clear_duplicatesEv
wdd:__ZZN2UI14CanvasRenderer15InitializeClassEvEN38FunctorImpl_909kCanvasHierarchyChanged4CallEPviR11MessageData
k0:__Z6StrCmpPKcS0_
nMd:_NumberFormatter_AppendIntegerString_m2257376141
Noa:__Z21CheckGpuProgramUsable20ShaderGpuProgramType
M8b:__ZN13ProduceHelperI14Texture2DArrayLb0EE7ProduceE10MemLabelId18ObjectCreationMode
TXj:__ZN6il2cpp2os9Directory20GetFileSystemEntriesERKNSt3__212basic_stringIcNS2_11char_traitsIcEENS2_9allocatorIcEEEESA_iiPi
a1d:_Array_System_Collections_IList_Add_m1063688101
sIi:__ZL66Navigation_t3049316579_CustomAttributesCacheGenerator_m_SelectOnUpP21CustomAttributesCache
I6c:__ZN20TextRenderingPrivate19NativeTextGenerator5SetupEv
fVb:__ZNK15SharedLightData24GetFinalShadowResolutionEv
v_i:_PatternCompiler_EmitAlternationEnd_m2444359097
Lri:__ZL91GameObject_t1113636619_CustomAttributesCacheGenerator_GameObject_get_activeSelf_m1767405923P21CustomAttributesCache
vgb:__ZN12AspectRatios8TransferI18StreamedBinaryReadILb0EEEEvRT_
Rcc:__ZN10GameObject14CopyPropertiesERS_
rAc:__Z44Register_UnityEngine_GUIStyle_get_fixedWidthv
T8f:_Array_InternalArray__ICollection_Remove_TisLink_t544317964_m1280781374_gshared
DXj:__ZNSt3__214__split_bufferIN6il2cpp2os10ThreadImpl10APCRequestERNS_9allocatorIS4_EEEC2EjjS7_
o3d:_BitConverter_DoubleWordsAreSwapped_m1474345095
Ghh:__Z114RuntimeInvoker_Int32_t2950945753_Vector2_t2156229523_Vector2_t2156229523_ContactFilter2D_t3805203441_RuntimeObjectPFvvEPK10MethodInfoPvPS4_
s7a:__ZNK13ScreenManager12IsFullScreenEv
H8d:_FixedSizeArrayListWrapper_set_Capacity_m4221053039
Oak:_rand
Dik:_emscripten_glFramebufferRenderbuffer__wrapper
mgc:__ZN13MeshScripting10CreateMeshE21ScriptingObjectOfTypeI4MeshE
Scj:_ListPool_1__cctor_m3480273184_gshared
dgh:__Z56RuntimeInvoker_Void_t1185182177_PropertyName_t3749835189PFvvEPK10MethodInfoPvPS4_
$qd:__ZN23InterfaceActionInvoker1IP25BaseEventData_t3903027533E6InvokeEjP11Il2CppClassP12Il2CppObjectS1_
Isb:__ZN14SafeBinaryRead21TransferSTLStyleArrayINSt3__26vectorI17AnimationCurveTplIfE13stl_allocatorIS4_L18MemLabelIdentifier1ELi16EEEEEEvRT_17TransferMetaFlags
k9d:_SynchronizedArrayListWrapper_Contains_m3809499313
e9f:_Array_InternalArray__ICollection_Remove_TisLabelData_t360167391_m3556246844_gshared
oFj:__ZN15dense_hashtableINSt3__24pairIK10KeyWrapperINS1_IPK11Il2CppImageP11Il2CppClassEEEjEES9_17ReflectionMapHashIS8_EN14dense_hash_mapIS9_jSD_NS9_14EqualsComparerINS0_8equal_toIS8_EEEENS0_9allocatorISB_EEE9SelectKeyESI_SK_E12expand_arrayEjN21dense_hash_map_traits17integral_constantIbLb0EEE
DId:_HMACSHA256__ctor_m346174875
mkg:_Color_op_Multiply_m2887457390
BXb:__Z22PrepareOptimizedPlanesPK5PlaneiPKN4math7_float4E
FXe:_InternalEnumerator_1__ctor_m1559487635_gshared
IV:__ZN11UnityEngine15CloudWebService17WebFileDownloaderINS0_20WebRequestRestClientENS0_23WebRequestRestHeaderMapEE10InitializeERKN4core12basic_stringIcNS5_20StringStorageDefaultIcEEEE
Ada:__ZN17UniqueIDGenerator15CreatePureIndexEv
Wr:__ZN11UnityEngine9Animation28GenericAnimationBindingCache15DidReloadDomainEv
lhb:__ZNSt3__26vectorIN15ResourceManager10DependencyE13stl_allocatorIS2_L18MemLabelIdentifier52ELi16EEE6assignINS_11__wrap_iterIPS2_EEEENS_9enable_ifIXaasr21__is_forward_iteratorIT_EE5valuesr16is_constructibleIS2_NS_15iterator_traitsISC_E9referenceEEE5valueEvE4typeESC_SC_
Uoj:__ZN15dense_hashtableINSt3__24pairIK10KeyWrapperIPK22Il2CppGenericParameterEP11Il2CppClassEES6_N6il2cpp5utils11PointerHashIS4_EEN14dense_hash_mapIS6_S9_SE_NS6_14EqualsComparerINS0_8equal_toIS5_EEEENS0_9allocatorISA_EEE9SelectKeyESJ_SL_E14squash_deletedEv
W$a:__ZN9ShaderLabL27GetDesiredRenderTextureDescEPK6Camera
Y0e:_InternalEnumerator_1_get_Current_m1523142935_AdjustorThunk
HLc:__ZNK12b2MouseJoint17GetReactionTorqueEf
Rgg:_Array_InternalArray__Insert_TisMark_t3471605523_m2854535880_gshared
Yza:__ZN6prcoreL29inner_stretch_rgb565_bilinearEPKNS_9InnerInfoE
Nxc:__Z14GUIClipTextureP9Texture2DPhiiii
Qyi:__ZL52HumanBone_t2465339518_CustomAttributesCacheGeneratorP21CustomAttributesCache
VOe:_MethodReturnDictionary__cctor_m278392388
cZ:__ZNK9Transform18TransformDirectionERK8Vector3f
wIe:_SslStreamBase_get_CanWrite_m1622082918
IOa:__ZNK17ArchiveFileSystem12GetAssetGUIDERK13FileEntryData
Foa:__ZNSt3__26vectorIN9ShaderLab20SerializedSubProgram15MatrixParameterENS_9allocatorIS3_EEE21__push_back_slow_pathIKS3_EEvRT_
fKi:__ZL80CanvasScaler_t2767979955_CustomAttributesCacheGenerator_m_ReferencePixelsPerUnitP21CustomAttributesCache
L_c:_otv_MarkLigPos_validate
svf:_PrimalityTests_RabinMillerTest_m1471415870
R_g:_Enumerator_MoveNext_m2114485647_gshared
sne:_GenericTypeParameterBuilder_GetCustomAttributes_m580748276
D3b:__Z49InitializeLineParametersAnimationBindingInterfacev
X7i:_AnalyticsTracker_get_TP_m2800669040
nvj:__ZN15dense_hashtableINSt3__24pairIK10KeyWrapperIPK11Il2CppClassEPKcEES6_N6il2cpp5utils11PointerHashIS3_EEN14dense_hash_mapIS6_S9_SE_NS6_14EqualsComparerINS0_8equal_toIS5_EEEENS0_9allocatorISA_EEE9SelectKeyESJ_SL_E12resize_deltaEjj
yck:__ZNK10__cxxabiv120__si_class_type_info27has_unambiguous_public_baseEPNS_19__dynamic_cast_infoEPvi
sxe:_Kernel_LeftShift_m4140742987
$he:_Assembly_GetManifestResourceInternal_m1224391897
Ixa:__Z30AddDefaultStreamsToMeshBuffersR9GfxDeviceR11MeshBuffersj17ShaderChannelMaskS3_
faa:__ZL16GetInterfaceImpl18UnityInterfaceGUID
Ypj:__ZN6il2cpp2vmL17SetupFieldOffsetsENS0_15FieldLayoutKindEP11Il2CppClassjRKNSt3__26vectorIjNS4_9allocatorIjEEEE
U_j:__ZN6il2cpp6icalls8mscorlib6System15MonoCustomAttrs27GetCustomAttributesInternalEP12Il2CppObjectP20Il2CppReflectionTypeb
cc:invoke_viifi
m4c:_UNITY_TT_Set_MM_Blend
R8:__GLOBAL__sub_I_runtime_math_random_0_cpp
TTi:_InternalAsyncResult_get_FromWrite_m4228047810
g7g:__Z53RuntimeInvoker_MonoEventInfo_t346866618_RuntimeObjectPFvvEPK10MethodInfoPvPS4_
Cyh:_Collection_1_CopyTo_m955200729_gshared
KJb:__ZN14PreloadManager35WaitForAllAsyncOperationsToCompleteEv
cWg:_EqualityComparer_1__ctor_m1138336971_gshared
j$:__ZNK18ScriptingObjectPtr17ToScriptingStringEv
BI:__ZL31InitializeAudioScriptingClassesv
$ri:__ZL89LineRenderer_t3154350270_CustomAttributesCacheGenerator_LineRenderer_SetWidth_m4045074374P21CustomAttributesCache
VOb:__Z14SortGUIByDepthP10GUIElementS0_
B9:__ZN13RuntimeStaticI13dynamic_arrayIPK31TransferFunctionScriptingTraitsLj4EELb0EE16StaticInitializeEPv
Zbh:__Z69RuntimeInvoker_UInt32_t2560061978_Int32_t2950945753_SByte_t1669577662PFvvEPK10MethodInfoPvPS4_
MC:__ZN12_GLOBAL__N_120ProcessRootMotionMixER33AnimationPlayableEvaluationOutputR35AnimationPlayableEvaluationConstantR32AnimationPlayableEvaluationInputS1_f
c3i:_UriParser__cctor_m3655686731
_og:_LineRenderer_SetPosition_Injected_m293725056
Yjf:_LayoutRebuilder_U3Cs_RebuildersU3Em__0_m589488547
srh:__Z53RuntimeInvoker_KeyValuePair_2_t71524366_RuntimeObjectPFvvEPK10MethodInfoPvPS4_
qob:__ZNK20LocalFileSystemPosix21GetAvailableDiskSpaceEPKcRy
p9:__ZNSt3__26__treeIiNS_4lessIiEENS_9allocatorIiEEE7destroyEPNS_11__tree_nodeIiPvEE
mqa:__ZNK9GfxDevice14GetWorldMatrixEv
JGc:__ZN8JSONRead8TransferI8Vector2fEEvRT_PKc17TransferMetaFlagsb
Ryg:_Transform_set_parent_m786917804
OZj:__ZN15dense_hashtableINSt3__24pairIK10KeyWrapperIPK19Il2CppGenericMethodEP10MethodInfoEES6_N6il2cpp8metadata23Il2CppGenericMethodHashEN14dense_hash_mapIS6_S9_SD_NS6_14EqualsComparerINSC_26Il2CppGenericMethodCompareEEENS0_9allocatorISA_EEE9SelectKeyESH_SJ_E13set_empty_keyERKSA_
Fqf:_Slider_get_value_m739683640
Gmb:__Z19scripting_array_new17ScriptingClassPtrjj
zN:__ZN11SoundHandle13CreateChannelEb
tGg:_WaitCallback_BeginInvoke_m3012509827
r5a:__ZN14SafeBinaryRead21TransferSTLStyleArrayI13dynamic_arrayI12LightmapDataLj4EEEEvRT_17TransferMetaFlags
Hka:__ZNSt3__26vectorIN9ShaderLab20SerializedSubProgram16TextureParameterENS_9allocatorIS3_EEE6assignIPS3_EENS_9enable_ifIXaasr21__is_forward_iteratorIT_EE5valuesr16is_constructibleIS3_NS_15iterator_traitsISA_E9referenceEEE5valueEvE4typeESA_SA_
Qtj:__ZN13Il2CppHashMapIN6il2cpp5utils13dynamic_arrayIPK10Il2CppTypeLj4EEEPFvvENS0_8metadata19Il2CppSignatureHashENS9_22Il2CppSignatureCompareENSt3__29allocatorINSC_4pairIK10KeyWrapperIS6_ES8_EEEEEC2EjRKSA_RKSB_
r4g:__Z122RuntimeInvoker_Void_t1185182177_RuntimeObject_RuntimeObject_ContractionU5BU5DU26_t2277527001_Level2MapU5BU5DU26_t359320357PFvvEPK10MethodInfoPvPS4_
RHj:__ZN15dense_hashtableINSt3__24pairIK10KeyWrapperIPK22Il2CppGenericParameterEPK24MonoGenericParameterInfoEES6_N6il2cpp5utils11PointerHashIS4_EEN14dense_hash_mapIS6_SA_SF_NS6_14EqualsComparerINS0_8equal_toIS5_EEEENS0_9allocatorISB_EEE9SelectKeyESK_SM_E15set_deleted_keyERKSB_
ZFd:_SByte_TryParse_m2431806379
Fmi:__ZL64ObjectDisposedException_t21392786_CustomAttributesCacheGeneratorP21CustomAttributesCache
i4b:__ZN6prcoreL11inner_clearILj2EEEvPhjjj
rri:__ZL92Debug_t3317548046_CustomAttributesCacheGenerator_Debug_LogWarningFormat_m1153215311____args2P21CustomAttributesCache
BHd:_DSACryptoServiceProvider_get_KeySize_m786836990
TKc:__ZN12b2WheelJoint24SolvePositionConstraintsERK12b2SolverData
Sg:_emscripten_exit_fullscreen
iOi:_Array_qsort_TisBoolean_t97287965_TisBoolean_t97287965_m214793583_gshared
ZZg:_Enumerator_System_Collections_IEnumerator_Reset_m1564381721_gshared
ghe:_Object_MemberwiseClone_m1474068832
OWj:__ZN6il2cpp6icalls8mscorlib6System6String19InternalAllocateStrEi
QHc:__Z29Transfer_Blittable_ArrayFieldI8JSONRead11QuaternionfEvRT_R9ArrayInfoRK23StaticTransferFieldInfo
Znb:__ZN20LocalFileSystemPosix8SetFlagsER13FileEntryDatajj
jlc:__Z45Register_UnityEngine_Camera_get_targetDisplayv
abc:__ZNK24RendererAnimationBinding15GenerateBindingERKN4core12basic_stringIcNS0_20StringStorageDefaultIcEEEEbRN11UnityEngine9Animation14GenericBindingE
NCf:_IPv6Address__ctor_m3704187391
oPb:__Z15GetFlareManagerv
H6b:__ZN15ApplicationInfo24GetApplicationIdentifierEv
WKa:__ZN9Behaviour8TransferI18StreamedBinaryReadILb0EEEEvRT_
cA:__ZN8Animator13GetAvatarRootEv
zeg:_Array_InternalArray__ICollection_Add_TisResourceCacheItem_t51292791_m3851804827_gshared
N8j:___toread
RHb:__ZNSt3__26vectorI10vector_mapIiiNS_4lessIiEE13stl_allocatorINS_4pairIiiEEL18MemLabelIdentifier38ELi16EEES4_IS9_LS7_38ELi16EEE26__swap_out_circular_bufferERNS_14__split_bufferIS9_RSA_EE
Qwe:_BigInteger_get_Rng_m3283260184
$ck:___cxa_is_pointer_type
lF:__ZN8Animator22ScriptingStringToCRC32ERK11ICallString
oni:__ZL55EventHandler_t1348719766_CustomAttributesCacheGeneratorP21CustomAttributesCache
OC:__ZN7mecanim9animation16EvaluateAvatarDXEPKNS0_14AvatarConstantEPKNS0_11AvatarInputEPNS0_12AvatarMemoryEPNS0_15AvatarWorkspaceEPNS0_12AvatarOutputE
ptd:_RaycastResult_ToString_m2678663776_AdjustorThunk
qSi:_Array_InternalArray__get_Item_TisKeyValuePair_2_t2530217319_m2886833132_gshared
_of:_ScrollRect_OnEndDrag_m3202230060
aqc:__Z34Transform_CUSTOM_SetAsFirstSiblingP12Il2CppObject
FCj:__ZNK15dense_hashtableINSt3__24pairIK10KeyWrapperINS1_IPK14Il2CppAssemblyP11Il2CppClassEEEjEES9_17ReflectionMapHashIS8_EN14dense_hash_mapIS9_jSD_NS9_14EqualsComparerINS0_8equal_toIS8_EEEENS0_9allocatorISB_EEE9SelectKeyESI_SK_E10test_emptyEj
k4g:__Z63RuntimeInvoker_Void_t1185182177_RuntimeObject_SByte_t1669577662PFvvEPK10MethodInfoPvPS4_
Pvi:__ZL57SetupCoroutine_t2062820429_CustomAttributesCacheGeneratorP21CustomAttributesCache
jhf:_InputField_Delete_m3471899192
Hli:__ZL79Convert_t2465617642_CustomAttributesCacheGenerator_Convert_ToUInt64_m1627266664P21CustomAttributesCache
oei:__ZL91UrlAttribute_t221584584_CustomAttributesCacheGenerator_UrlAttribute_IsContextOK_m1228378186P21CustomAttributesCache
MJe:_RemotingConfiguration_get_ProcessId_m2180277012
W3:__ZN17PersistentManager40GlobalToLocalSerializedFileIndexInternalERK26SerializedObjectIdentifier
BS:__ZN11UnityEngine15CloudWebService17SessionEventQueue14ParseEventDataERKN4core12basic_stringIcNS2_20StringStorageDefaultIcEEEE
NQh:_List_1_Remove_m2605758101_gshared
Mva:__ZN13TranslateGLES4InitERK12GraphicsCaps16GfxDeviceLevelGL
NEb:__Z29Transfer_Blittable_ArrayFieldI18StreamedBinaryReadILb0EE10ColorRGBAfEvRT_R9ArrayInfoRK23StaticTransferFieldInfo
Yzj:_NativeTypeAttribute_set_CodegenOptions_m3839252515
aVg:_EqualityComparer_1_get_Default_m180770000_gshared
ZNd:_Int64_System_IConvertible_ToUInt16_m848637338_AdjustorThunk
Wgd:__Z32CustomEventData_CUSTOM_AddUInt32P12Il2CppObjectP12Il2CppStringj
b6j:__ZN6il2cpp5utils9Exception26FormatInvalidCastExceptionEPK11Il2CppClassS4_
Qcg:_Array_InternalArray__IndexOf_TisLink_t544317964_m455584088_gshared
r1h:_Enumerator_get_Current_m2282646120_AdjustorThunk
cFh:_ReadOnlyCollection_1_IndexOf_m2539022912_gshared
Iyf:_KeyGeneratedEventHandler__ctor_m1990062371
gJi:__ZL66Selectable_t3250028441_CustomAttributesCacheGenerator_m_TransitionP21CustomAttributesCache
G6j:__ZN6il2cpp2os6Memory12AlignedAllocEjj
h_g:_Enumerator_get_Current_m2305210644_AdjustorThunk
Lrf:_Text_set_alignByGeometry_m3828822280
q0j:__ZN6il2cpp8metadataL7CompareEPK10Il2CppTypeS3_
Iub:__Z18Transfer_BlittableI17RemapPPtrTransferLb0E11ColorRGBA32EvRK29SerializationCommandArgumentsR31RuntimeSerializationCommandInfo
_zf:_HybridDictionary__ctor_m1681134385
G2:__ZN21ScalableBufferManager11GetInstanceEv
dDb:__Z18Transfer_BlittableI18StreamedBinaryReadILb0EELb1E10ColorRGBAfEvRK29SerializationCommandArgumentsR31RuntimeSerializationCommandInfo
H2a:__ZN12CubemapArray23VirtualRedirectTransferER17RemapPPtrTransfer
iIg:_TimeSpan_op_LessThan_m1594498345
Nic:__ZL27GetComponentsImplementationILb0ELi0EEbR10GameObjectbRK17CompareParametersRK39GetComponentsImplementation_ReturnValue
Vhj:__ZL25UnresolvedVirtualCall_177P12Il2CppObject40CustomAttributeTypedArgument_t2723150157S1_PK10MethodInfo
zGb:__ZN9Scripting36IsSystemCollectionsGenericDictionaryE17ScriptingClassPtr
COh:_UnityEvent_1_FindMethod_Impl_m322741469_gshared
Sei:__ZL92ConstructionCallDictionary_t686578562_CustomAttributesCacheGenerator_U3CU3Ef__switchU24map24P21CustomAttributesCache
CJi:__ZL64Slider_t3903728902_CustomAttributesCacheGenerator_m_WholeNumbersP21CustomAttributesCache
dzg:_Enumerator_get_Current_m2591725252
z1:__ZL16ReadTypeTreeImplILb0EEbR8TypeTreeRK16TypeTreeIteratorRPKhS6_i
dKf:_Interval_Contains_m110351300_AdjustorThunk
rfe:_Convert_ToInt32_m3048308591
nLi:__ZL77LayoutUtility_t2745813735_CustomAttributesCacheGenerator_U3CU3Ef__amU24cache6P21CustomAttributesCache
lmf:_RectMask2D_OnCanvasHierarchyChanged_m3195492255
NYf:_DateTimeOffset_Equals_m3030958070
iZa:__ZNK22BuiltinResourceManager21GetResourceInstanceIDEPKN5Unity4TypeERKN4core12basic_stringIcNS4_20StringStorageDefaultIcEEEE
Psa:__ZN9GfxDevice15BeginFrameStatsEv
Tmc:__Z42Register_UnityEngine_RectOffset_set_bottomv
$7i:_AnalyticsTracker_BuildParameters_m43920649
aAc:__Z28GUIStyleState_CUSTOM_CleanupP12Il2CppObject
xWf:_DateTimeFormatInfo_GetMonthName_m2034512315
_Qb:__ZN28LightProbeProxyVolumeContext8CopyFromERKS_
RBb:__ZN18StreamedBinaryReadILb1EE8TransferI13dynamic_arrayI8BitFieldLj4EEEEvRT_PKc17TransferMetaFlags
MFh:_ReadOnlyCollection_1_System_Collections_Generic_IListU3CTU3E_Insert_m2489506856_gshared
k7:__ZN23TransformChangeDispatch32QueueTransformChangeIfHasChangedER18TransformHierarchy
ktf:_SimpleCollator_ToDashTypeValue_m6184468
EEa:__ZN7ApiGLES18DeleteRenderbufferERj
gDa:__ZL23ProgramUniformMatrix4fvPK7ApiGLESjiihPKv
NEa:__ZN7ApiGLES13CreateTextureEjj14GraphicsFormatiiiii
v2d:_Array_new_gap_m262136975
lka:__ZN9ShaderLab20SerializedSubProgram15MatrixParameter8TransferI14SafeBinaryReadEEvRT_
Pic:__ZL27GetComponentsImplementationILb0ELi1EEbR10GameObjectbRK17CompareParametersRK39GetComponentsImplementation_ReturnValue
gGf:_X509Store__ctor_m275383717
Rtf:_SimpleCollator_LastIndexOfOrdinalIgnoreCase_m2984667899
X2c:_Round_Down_To_Grid
zFa:__ZN13RenderTexture7ReleaseEv
nFc:__Z18Transfer_BlittableI8JSONReadLb1EN4math12int3_storageEEvRK29SerializationCommandArgumentsR31RuntimeSerializationCommandInfo
ncb:__ZN10MeshFilter23VirtualRedirectTransferER14SafeBinaryRead
OKi:__ZL64LayoutGroup_t2436138090_CustomAttributesCacheGenerator_m_PaddingP21CustomAttributesCache
z_d:_X509CertificateEnumerator_MoveNext_m2269241175
xcb:__ZN12MeshRenderer17MainThreadCleanupEv
Jpj:__ZN6il2cpp2vmL10InitLockedEP11Il2CppClassRKNS_2os12FastAutoLockE
sIa:__ZN22CreateGpuProgramOutput12CreateParamsEv
MJ:__ZN10ObjectPoolIN4FMOD7ChannelENS0_8ChannelIEE7GetFreeEi
Lsh:__Z96RuntimeInvoker_RuntimeObject_CustomAttributeNamedArgument_t287865710_RuntimeObject_RuntimeObjectPFvvEPK10MethodInfoPvPS4_
fAd:_FontData_get_font_m2720086288
uYe:_InternalEnumerator_1_System_Collections_IEnumerator_get_Current_m548105685_gshared
Cva:__ZNK14GfxContextGLES13GetDefaultFBOEv
Bph:__Z99RuntimeInvoker_Void_t1185182177_UILineInfoU5BU5DU26_t2468919161_Int32_t2950945753_Int32_t2950945753PFvvEPK10MethodInfoPvPS4_
N4d:_Byte_System_IConvertible_ToType_m2251112646
Qxh:_Collection_1_Contains_m692247505_gshared
pjh:__Z81RuntimeInvoker_Char_t3634460470_RuntimeObject_Int32_t2950945753_Int16_t2552820387PFvvEPK10MethodInfoPvPS4_
WWf:_DateTime_get_Hour_m4153505178_AdjustorThunk
Zdj:_AudioExtensionManager_WriteExtensionProperties_m3028464154
nPf:_Evidence_Equals_m1478353107
PYi:_CostDelegate__ctor_m4027655829
kfc:__Z13GetImagePixelI10ColorRGBAfET_PKhii13TextureFormat15TextureWrapModeS5_ii
RWh:_List_1_System_Collections_IList_set_Item_m1842844683_gshared
adj:_ObjectPool_1__ctor_m2535233435_gshared
Kbj:_EventFunction_1__ctor_m4292798223_gshared
fNj:__ZN6il2cpp2vm6Thread49CheckCurrentThreadForInterruptAndThrowIfNecessaryEv
f5f:_CultureInfo_construct_datetime_format_m1928121315
T5:__ZNSt3__23mapIN9ShaderLab16FastPropertyNameEN18UnityPropertySheet11UnityTexEnvENS_4lessIS2_EENS_9allocatorINS_4pairIKS2_S4_EEEEEixERS9_
HDa:__ZNK13TranslateGLES25GetTextureTargetDimensionEj
Nhe:_RankException__ctor_m3453633632
pJh:_Comparison_1__ctor_m533218197_gshared
Hph:__Z96RuntimeInvoker_Void_t1185182177_Vector3U5BU5DU26_t3038522815_Int32_t2950945753_Int32_t2950945753PFvvEPK10MethodInfoPvPS4_
jDh:_ReadOnlyCollection_1_System_Collections_IList_Remove_m1842121503_gshared
OQd:_File_OpenRead_m2936789020
spc:__Z47Texture2D_CUSTOM_INTERNAL_CALL_GetPixelBilinearP12Il2CppObjectffR10ColorRGBAf
ede:_Enumerator_get_Entry_m3561948123
Hgh:__Z94RuntimeInvoker_Void_t1185182177_RuntimeObject_PlayableGraph_t3515989261_RuntimeObject_IntPtr_tPFvvEPK10MethodInfoPvPS4_
Ui:_emscripten_glVertexAttrib4f
J2e:_InternalEnumerator_1_System_Collections_IEnumerator_Reset_m4072625129_AdjustorThunk
ioa:__ZNSt3__26vectorIN20GpuProgramParameters14ConstantBufferENS_9allocatorIS2_EEE8__appendEj
QGf:_X509CertificateCollection_AddRange_m3683116910
v$e:_InternalEnumerator_1_Dispose_m1837758743_AdjustorThunk
Enj:_CustomEventData_t317522481_marshal_pinvoke_cleanup
VJe:_SinkProviderData__ctor_m1624738837
kSb:__ZN11HaloManager21ReleaseGeometryJobMemEP25DynamicVBOGeometryJobData
CQd:_DirectoryNotFoundException__ctor_m1689636868
Lih:__Z88RuntimeInvoker_RuntimeObject_RuntimeObject_SByte_t1669577662_RuntimeObject_RuntimeObjectPFvvEPK10MethodInfoPvPS4_
DDh:_ReadOnlyCollection_1_System_Collections_Generic_IListU3CTU3E_get_Item_m978644313_gshared
Nyh:_Collection_1_get_Item_m2253972692_gshared
Cpe:_RefEmitPermissionSet_t484390987_marshal_pinvoke_cleanup
Cje:_CustomAttributeTypedArgument_Equals_m2261980307
by:__ZN7mecanim12statemachine24CreateStateMachineMemoryEPKNS0_20StateMachineConstantERNS_6memory9AllocatorE
Usa:__ZN9GfxDevice18SetGlobalDepthBiasEff
Wxj:__ZN6il2cpp6icalls8mscorlib6System8MonoType12get_AssemblyEP20Il2CppReflectionType
sSd:_IsolatedStorageException__ctor_m3386787868
Wpe:_TypeBuilder_MakeGenericType_m2799607032
oJf:_RepeatContext_get_Start_m1076992038
uIh:_ReadOnlyCollection_1_IndexOf_m3669095250_gshared
gj:_emscripten_glGetPointerv
fRi:_Dictionary_2_Do_CopyTo_TisKeyValuePair_2_t3842366416_TisRuntimeObject_m1564656153_gshared
BC:__ZN8Animator22ApplyBuiltinRootMotionEv
yTj:__ZN15dense_hashtableI10KeyWrapperIP18Il2CppGenericClassES3_N6il2cpp8metadata22Il2CppGenericClassHashEN14dense_hash_setIS3_S6_NS3_14EqualsComparerINS5_25Il2CppGenericClassCompareEEENSt3__29allocatorIS3_EEE8IdentityESA_SD_E5clearEv
lJb:__Z26ApplyMaterialPassWithCacheRK18SharedMaterialDataR17ShaderPassContextP6ShaderPN9ShaderLab4PassEibPKNS6_10GrabPassesEPNS6_11SubProgramsEPK22DeviceRenderStateBlock
zah:__Z55RuntimeInvoker_DateTime_t3738529785_TimeSpan_t881159249PFvvEPK10MethodInfoPvPS4_
zYd:_MulticastDelegate_KPM_m22863605
a0e:_InternalEnumerator_1_get_Current_m1897120917_AdjustorThunk
ZXd:_MonoType_ReorderParamArrayArguments_m2458683451
ARe:_FormatterConverter_ToInt16_m4282804414
h8g:__Z81RuntimeInvoker_Void_t1185182177_Int64_t3736567304_RuntimeObject_Int64_t3736567304PFvvEPK10MethodInfoPvPS4_
Vtd:_StandaloneInputModule_ProcessTouchPress_m4019232747
JQd:_FileStream__ctor_m3151488352
u2d:_Array_swap_m547389985
h4:__ZN8Renderer23VirtualRedirectTransferER14SafeBinaryRead
KLg:_UInt32_ToString_m2420423038
STh:_List_1_System_Collections_IList_Add_m634558835_gshared
nIh:_ReadOnlyCollection_1_System_Collections_IList_get_IsFixedSize_m1923250479_gshared
PCi:__ZL105CanvasRenderer_t2598313366_CustomAttributesCacheGenerator_CanvasRenderer_set_popMaterialCount_m1224846275P21CustomAttributesCache
mRd:_FileStream_get_Length_m426703983
hdf:_Enumerator__ctor_m1558933899_AdjustorThunk
Ani:__ZL88BigInteger_t2902905090_CustomAttributesCacheGenerator_BigInteger_op_Implicit_m3414367033P21CustomAttributesCache
Tpj:__ZN6il2cpp2vmL15GetBitmapNoInitEP11Il2CppClassPjRjj
V_h:_List_1_Remove_m2092085040_gshared
s2b:__ZL13MotionHandleriPK27EmscriptenDeviceMotionEventPv
hI:__ZN12AudioManager5ResetEv
q1g:__Z67RuntimeInvoker_Boolean_t97287965_RuntimeObject_SByteU26_t3619038962PFvvEPK10MethodInfoPvPS4_
v2g:__Z143RuntimeInvoker_Boolean_t97287965_RuntimeObject_Int32_t2950945753_RuntimeObject_SByte_t1669577662_DoubleU26_t1739162597_ExceptionU26_t3600731591PFvvEPK10MethodInfoPvPS4_
odc:__ZN15DirectorManager18ScheduleGraphStartERK14HPlayableGraph
vDh:_ReadOnlyCollection_1_get_Count_m1336304542_gshared
vLi:__ZL111LayoutUtility_t2745813735_CustomAttributesCacheGenerator_LayoutUtility_U3CGetPreferredHeightU3Em__6_m3049688934P21CustomAttributesCache
hC:__ZN7mecanim5human14RetargetToTDoFEPKNS0_5HumanEPNS0_9HumanPoseEPNS_8skeleton13SkeletonPoseTIN4math4trsXEEESB_
EHj:__ZNK15dense_hashtableINSt3__24pairIK10KeyWrapperIPK14Il2CppAssemblyEPK22Il2CppMonoAssemblyNameEES6_N6il2cpp5utils11PointerHashIS4_EEN14dense_hash_mapIS6_SA_SF_NS6_14EqualsComparerINS0_8equal_toIS5_EEEENS0_9allocatorISB_EEE9SelectKeyESK_SM_E10test_emptyEj
XYj:__ZN6il2cpp6icalls8mscorlib6System11Environment20GetWindowsFolderPathEi
Wde:_Convert_ToBoolean_m2833752130
Rw:__ZN7mecanim5human18HumanPoseBlendNodeERNS0_9HumanPoseEPS1_f
eZc:_UNITY_FT_RoundFix
mcj:_U3CStartU3Ec__Iterator0_System_Collections_Generic_IEnumeratorU3CobjectU3E_get_Current_m3156493053_gshared
NR:__ZN23CloudWebServicesManager23VirtualRedirectTransferER17RemapPPtrTransfer
E3j:_GC_is_heap_ptr
bwf:_ASN1_DecodeTLV_m1200977460
mng:_UnityEventBase_PrepareInvoke_m1785382128
QFh:_ReadOnlyCollection_1_System_Collections_Generic_IListU3CTU3E_set_Item_m1584697503_gshared
zcb:__ZNK12MeshRenderer22GetTypeVirtualInternalEv
x6d:_Char_System_IConvertible_ToUInt32_m3901815580
dnf:_Scrollbar_set_onValueChanged_m346467699
aUc:__ZN13ProduceHelperI13BoxCollider2DLb0EE7ProduceE10MemLabelId18ObjectCreationMode
Hah:__Z157RuntimeInvoker_Int32_t2950945753_RuntimeObject_Int32_t2950945753_Int32_t2950945753_Int32_t2950945753_SByte_t1669577662_SByte_t1669577662_Int32U26_t1369213839PFvvEPK10MethodInfoPvPS4_
Fcj:_ListPool_1_Release_m957266927_gshared
Efi:__ZL105ConfigHandler_t4192437216_CustomAttributesCacheGenerator_ConfigHandler_ValidatePath_m3895556516____paths1P21CustomAttributesCache
PK:__ZN4FMOD6System17setSoftwareFormatEi17FMOD_SOUND_FORMATii18FMOD_DSP_RESAMPLER
Oia:__ZN14SafeBinaryRead19TransferSTLStyleMapINSt3__23mapIN4core12basic_stringIcNS3_20StringStorageDefaultIcEEEES7_NS1_4lessIS7_EE13stl_allocatorINS1_4pairIKS7_S7_EEL18MemLabelIdentifier1ELi16EEEEEEvRT_17TransferMetaFlags
ccd:__ZN2UI6Canvas27UpdateEventIndexesRecursiveERi
zv:__ZN7mecanim9animation18EvaluateRootMotionERKNS0_18ClipMuscleConstantERKNS0_15ClipMuscleInputEPKfS8_RNS0_12MotionOutputEb
HS:__ZN11UnityEngine15CloudWebService16SessionContainer21PrepareDataErrorEventERN4core12basic_stringIcNS2_20StringStorageDefaultIcEEEE
hrd:_ExecuteEvents_get_pointerUpHandler_m3515704212
s7d:_ArrayList_set_Item_m2003485935
MZj:__ZNSt3__218uninitialized_copyIPNS_4pairIK10KeyWrapperIPK19Il2CppGenericMethodEP10MethodInfoEESB_EET0_T_SD_SC_
rve:_SatelliteContractVersionAttribute__ctor_m3630863995
Eli:__ZL79Convert_t2465617642_CustomAttributesCacheGenerator_Convert_ToUInt64_m3102114524P21CustomAttributesCache
atd:_MouseButtonEventData_PressedThisFrame_m1060658845
Iod:_AxisEventData_get_moveVector_m270528189
lzb:__Z19TransferField_ArrayI19StreamedBinaryWriteILb0EE27Converter_SimpleNativeClassI8GUIStyleEEvRK23StaticTransferFieldInfoR31RuntimeSerializationCommandInfoRT0_
LOb:__Z27SetClippingPlaneShaderPropsR9GfxDevice
CDh:_ReadOnlyCollection_1_System_Collections_Generic_IListU3CTU3E_RemoveAt_m3969985996_gshared
m6i:_SymmetricTransform_CFB_m1755507252
Skk:_emscripten_glCopyTexSubImage2D__wrapper
l7a:__ZNK13ScreenManager12GetIsFocusedEv
bCd:_GraphicRegistry_GetGraphicsForCanvas_m4219276355
mMd:_NumberFormatter_FastToDecHex_m699829267
RZi:_PatternCompiler_MakeFlags_m1977119795
bFc:__Z35Transfer_Blittable_FixedBufferFieldI8JSONReadiEvRK29SerializationCommandArgumentsR31RuntimeSerializationCommandInfo
Uma:__ZN15SerializeTraitsIN9ShaderLab16FastPropertyNameEE8TransferI19StreamedBinaryWriteILb0EEEEvRS1_RT_
lgi:__ZL59StreamingContext_t3711869237_CustomAttributesCacheGeneratorP21CustomAttributesCache
Zwj:__ZNSt3__213__vector_baseIN6il2cpp2os19SocketHandleWrapperENS_9allocatorIS3_EEED2Ev
V7h:__ZL48_Type_t3588564251_CustomAttributesCacheGeneratorP21CustomAttributesCache
ZGi:__ZL81FontUpdateTracker_t1839077620_CustomAttributesCacheGenerator_U3CU3Ef__mgU24cache0P21CustomAttributesCache
lc:invoke_viiffi
kai:__ZL103RegionInfo_t1090270226_CustomAttributesCacheGenerator_RegionInfo_t1090270226____NativeName_PropertyInfoP21CustomAttributesCache
_Nd:_Int64_System_IConvertible_ToUInt32_m109903525
AC:__ZNSt3__227__insertion_sort_incompleteIRPFbPKN8Animator11AnimatorJobES4_EPS4_EEbT0_S9_T_
sS:__ZNSt3__26__treeINS_12__value_typeIN4core12basic_stringIcNS2_20StringStorageDefaultIcEEEEjEENS_19__map_value_compareIS6_S7_NS_4lessIS6_EELb1EEE13stl_allocatorIS7_L18MemLabelIdentifier88ELi16EEE4findIS6_EENS_15__tree_iteratorIS7_PNS_11__tree_nodeIS7_PvEEiEERKT_
TAc:__ZN5Unity9rapidjson13GenericReaderINS0_4UTF8IcEES3_13JSONAllocatorE10ParseFalseILj0ENS0_19GenericStringStreamIS3_EENS0_15GenericDocumentIS3_S4_S4_EEEEvRT0_RT1_
Spg:_Mathf_CeilToInt_m432108984
E2a:__ZNK12CubemapArray20GetRuntimeMemorySizeEv
THg:_TimeSpan_FromHours_m1109641064
jla:__Z14resize_trimmedINSt3__26vectorIN9ShaderLab18SerializedPropertyENS0_9allocatorIS3_EEEEEvRT_j
dub:__Z18Transfer_BlittableI17RemapPPtrTransferLb0EN4math12int3_storageEEvRK29SerializationCommandArgumentsR31RuntimeSerializationCommandInfo
r1e:_InternalEnumerator_1__ctor_m4124630986_gshared
Wuj:__ZN6il2cpp2vm13MetadataCache38GetMethodInfoFromMethodDefinitionIndexEi
Upd:_EventSystem_set_current_m38955169
JSe:_TypeMetadata__ctor_m646635308
SYi:_CostDelegate_EndInvoke_m2797921932
j8a:__ZN10VertexData8TransferI24GenerateTypeTreeTransferEEvRT_
y1f:_Double_IsInfinity_m820013146
I3d:__ZN21InterfaceFuncInvoker1I19Decimal_t2948259380P12Il2CppObjectE6InvokeEjP11Il2CppClassS2_S2_
rZj:__ZN13Il2CppHashMapIPK19Il2CppGenericMethodP10MethodInfoN6il2cpp8metadata23Il2CppGenericMethodHashENS6_26Il2CppGenericMethodCompareENSt3__29allocatorINS9_4pairIK10KeyWrapperIS2_ES4_EEEEEC2EjRKS7_RKS8_
GTh:_List_1_TrimExcess_m440552561_gshared
zwg:_Screen_get_dpi_m495672463
uEg:_UTF8Encoding_InternalGetByteCount_m2120178851
XWb:__ZL10CullLightsRK22SceneCullingParametersR11CullResults
Vge:_Convert_ToUInt64_m3170916409
Yx:__ZN7mecanim12statemachine20GetBlendTreeConstantERKNS0_13StateConstantEi
NNd:_Int64_System_IConvertible_ToInt16_m4062196970_AdjustorThunk
tYd:_MonoType_GetGenericTypeDefinition_m3201894896
d4b:__Z40GetTemporaryCachePathApplicationSpecificv
_qa:__ZN9GfxDevice16EndAsyncJobFrameEv
skh:__Z99RuntimeInvoker_Int32_t2950945753_Ray_t3785851493_RuntimeObject_Single_t1397266774_Int32_t2950945753PFvvEPK10MethodInfoPvPS4_
$Fj:__ZNK15dense_hashtableINSt3__24pairIK10KeyWrapperINS1_IPK12PropertyInfoP11Il2CppClassEEEjEES9_17ReflectionMapHashIS8_EN14dense_hash_mapIS9_jSD_NS9_14EqualsComparerINS0_8equal_toIS8_EEEENS0_9allocatorISB_EEE9SelectKeyESI_SK_E10test_emptyERK30dense_hashtable_const_iteratorISB_S9_SD_SM_SI_SK_E
W$c:_UNITY_tt_face_load_hhea
ole:_DerivedType_get_Assembly_m2979298667
dl:___syscall3
Bhh:__Z135RuntimeInvoker_RaycastHit2D_t2279581989_Vector2_t2156229523_Vector2_t2156229523_Single_t1397266774_Int32_t2950945753_Single_t1397266774PFvvEPK10MethodInfoPvPS4_
gl:___syscall6
vsa:__ZN9GfxDevice15GetNextCPUFenceEv
il:___syscall4
GT:__ZN11UnityEngine15CloudWebService20WebRequestRestClient17GetResponseStatusEv
oPe:_ReturnMessage__ctor_m2352989078
K5g:__Z99RuntimeInvoker_Void_t1185182177_RuntimeObject_Int32_t2950945753_SByte_t1669577662_SByte_t1669577662PFvvEPK10MethodInfoPvPS4_
lpb:__ZNSt3__26__treeINS_12__value_typeIN4core12basic_stringIcNS2_20StringStorageDefaultIcEEEEPN16MemoryFileSystem4NodeEEENS_19__map_value_compareIS6_SA_NS_4lessIS6_EELb1EEE13stl_allocatorISA_L18MemLabelIdentifier55ELi16EEE7destroyEPNS_11__tree_nodeISA_PvEE
s6h:__ZL70RuntimeArray_CustomAttributesCacheGenerator_Array_get_Length_m21610649P21CustomAttributesCache
gVj:__ZN6il2cpp2vm3RCW14QueryInterfaceILb1EEEP14Il2CppIUnknownP15Il2CppComObjectRK10Il2CppGuid
qDe:_TlsServerCertificateRequest__ctor_m1334974076
aPc:__ZNSt3__26__sortIR24RayHitsByDepthComparitorP12RaycastHit2DEEvT0_S5_T_
sIc:__ZN27PerformanceReportingManager23VirtualRedirectTransferER14SafeBinaryRead
tfe:_Convert_ToInt32_m1613163543
hqh:__Z52RuntimeInvoker_TimeSpan_t881159249_Int32_t2950945753PFvvEPK10MethodInfoPvPS4_
Okf:_MatEntry__ctor_m1949610076
cDh:_ReadOnlyCollection_1_System_Collections_ICollection_CopyTo_m3127175806_gshared
yl:_emscripten_glShaderBinary
Dxi:__ZL80Logger_t274032455_CustomAttributesCacheGenerator_U3ClogEnabledU3Ek__BackingFieldP21CustomAttributesCache
UT:__ZN15DownloadHandler19OnFinishReceiveDataEv
RKg:_UInt16_ToString_m760649087
iob:__ZNK20LocalFileSystemPosix6ExistsERK13FileEntryData
ibh:__Z21RuntimeInvoker_Guid_tPFvvEPK10MethodInfoPvPS4_
gch:__Z46RuntimeInvoker_CipherAlgorithmType_t1174400495PFvvEPK10MethodInfoPvPS4_
Pjg:_Camera_GetAllCameras_m668492922
Vwc:_access_virt_sarray
zfd:__Z58Register_UnityEngine_Canvas_GetETC1SupportedCanvasMaterialv
hIg:_TimeSpan_op_Inequality_m2467851530
KBb:__ZN17AnimationCurveTplIfE8TransferI18StreamedBinaryReadILb1EEEEvRT_
ZPi:_Array_Sort_TisUIVertex_t4057497605_m3996333845_gshared
ZDe:_Context_get_ReceivedConnectionEnd_m4011125537
BNf:_ToBase64Transform_get_CanReuseTransform_m702204640
Hjd:__ZN18UnityConnectClientD2Ev
bgh:__Z53RuntimeInvoker_PropertyName_t3749835189_RuntimeObjectPFvvEPK10MethodInfoPvPS4_
O2d:_Swapper_BeginInvoke_m1688449973
Slg:_Display_get_renderingWidth_m1970428952
K7i:_U3CTimedTriggerU3Ec__Iterator0_MoveNext_m825792986
eRa:__ZN16LevelGameManager23VirtualRedirectTransferER19StreamedBinaryWriteILb0EE
kch:__Z81RuntimeInvoker_Void_t1185182177_RuntimeObject_Int32_t2950945753_Int64_t3736567304PFvvEPK10MethodInfoPvPS4_
e8a:__Z32TransferEnumWithNameForceIntSizeI14SafeBinaryRead16GfxPrimitiveTypeEvRT_RT0_PKc17TransferMetaFlags
x1:__ZN13dynamic_arrayIcLj1EE6insertEPcPKcS3_
Gvc:_post_process_1pass
Zvi:__ZL92Mesh_t3648964284_CustomAttributesCacheGenerator_Mesh_SetTriangles_m2205169959____baseVertex3P21CustomAttributesCache
Lnh:__Z52RuntimeInvoker_Int32_t2950945753_HitInfo_t3229609740PFvvEPK10MethodInfoPvPS4_
L8g:__Z86RuntimeInvoker_Boolean_t97287965_Int16_t2552820387_Int16_t2552820387_Int32_t2950945753PFvvEPK10MethodInfoPvPS4_
bki:__ZL80Convert_t2465617642_CustomAttributesCacheGenerator_Convert_ToBoolean_m2807110707P21CustomAttributesCache
a6h:__ZL72Enum_t4135868527_CustomAttributesCacheGenerator_Enum_GetName_m2151614395P21CustomAttributesCache
Zbj:_IndexedSet_1_IndexOf_m241693686_gshared
xAh:_Collection_1_System_Collections_IList_Add_m1802516464_gshared
Mid:__ZN11UnityEngine15PlatformWrapper30GetGraphicsDriverLibraryStringEv
cFd:_RuntimeMethodHandle_Equals_m3301340296_AdjustorThunk
gMg:_UInt64_System_IConvertible_ToSingle_m925613075_AdjustorThunk
sfj:__ZL24UnresolvedVirtualCall_40P12Il2CppObjectS0_PK10MethodInfo
_cj:_ListPool_1__cctor_m704263611_gshared
eDb:__Z18Transfer_BlittableI18StreamedBinaryReadILb0EELb0E4AABBEvRK29SerializationCommandArgumentsR31RuntimeSerializationCommandInfo
qhb:__ZN24GenerateTypeTreeTransfer19TransferSTLStyleMapINSt3__28multimapIN4core12basic_stringIcNS3_20StringStorageDefaultIcEEEE4PPtrI6ObjectENS1_4lessIS7_EE13stl_allocatorINS1_4pairIKS7_SA_EEL18MemLabelIdentifier52ELi16EEEEEEvRT_17TransferMetaFlags
jE:__ZN16MecanimAnimation24DeleteAnimatedPropertiesERP26IAnimatedPropertyEvaluator
blj:_CanvasRenderer_SetMaterial_m824577244
FNb:__Z14DrawGUITextureRK5RectTIfEP7Texture11ColorRGBA32P8Materiali
hsi:__ZL84RectOffset_t1369453676_CustomAttributesCacheGenerator_RectOffset_Cleanup_m2552807639P21CustomAttributesCache
yDh:_ReadOnlyCollection_1_System_Collections_Generic_ICollectionU3CTU3E_Add_m2686599243_gshared
mB:__ZN9BlobWrite8TransferI22OffsetPtrArrayTransferIKN4math7_float4EEEEvRT_PKc17TransferMetaFlags
sOb:__ZN22RenderingCommandBuffer20ExecuteCommandBufferER17ShaderPassContextR15RenderNodeQueuejP13dynamic_arrayINSt3__24pairIN9ShaderLab16FastPropertyNameEP13RenderTextureEELj4EE16ComputeQueueTypeSA_
$yg:_Transform_IsChildOf_m224006092
kOc:__ZNK11b2EdgeShape7RayCastEP15b2RayCastOutputRK14b2RayCastInputRK11b2Transformi
MEc:__ZN9JSONWrite8TransferI4AABBEEvRT_PKc17TransferMetaFlags
tPa:__ZN25MultiBlocksMemoryFileData9SetLengthEy
poh:__Z58RuntimeInvoker_Void_t1185182177_ContactPoint2D_t3390240644PFvvEPK10MethodInfoPvPS4_
wRh:_List_1_Clear_m2154023298_gshared
Dod:_AbstractEventData_get_used_m2991176710
Jkh:__Z94RuntimeInvoker_Void_t1185182177_ObjectU5BU5DU26_t712384779_Int32_t2950945753_Int32_t2950945753PFvvEPK10MethodInfoPvPS4_
boh:__Z71RuntimeInvoker_Void_t1185182177_CustomAttributeNamedArgument_t287865710PFvvEPK10MethodInfoPvPS4_
HQc:__ZN10Collider2D13AwakeFromLoadE17AwakeFromLoadMode
aRi:_Dictionary_2_Do_ICollectionCopyTo_TisRuntimeObject_m1855083806_gshared
H6i:_Aes__ctor_m178909601
H3a:__ZNK9Texture2D20GetRuntimeMemorySizeEv
Mqc:__ZN11Marshalling39CreateNullExceptionForUnityEngineObjectE18ScriptingObjectPtr
SAc:__ZN5Unity9rapidjson13GenericReaderINS0_4UTF8IcEES3_13JSONAllocatorE9ParseTrueILj0ENS0_19GenericStringStreamIS3_EENS0_15GenericDocumentIS3_S4_S4_EEEEvRT0_RT1_
RYh:_List_1_Clear_m2003943277_gshared
Gm:_emscripten_glUniform2iv
sDg:_UnicodeEncoding_CopyChars_m785272451
OYg:_Enumerator_Dispose_m1204547613_AdjustorThunk
BWc:_UNITY_FT_Outline_Transform
uBe:_CipherSuite_get_ExchangeAlgorithmType_m1633709183
kqj:__ZN6il2cpp2vm5Class10GetMethodsEP11Il2CppClassPPv
FXg:_EqualityComparer_1_System_Collections_IEqualityComparer_Equals_m477570191_gshared
pnd:__ZNK25UnityWebRequestJavaScript17GetUploadProgressEv
VSb:__Z30AddDefaultStreamsToMeshBuffersR9GfxDeviceR11MeshBuffersRK16DrawBuffersRange17ShaderChannelMaskS6_
lVh:_List_1_GetEnumerator_m1430071802_gshared
SDa:__ZN7ApiGLES17DeleteFramebufferERN2gl6HandleILNS0_10ObjectTypeE9EEES3_
uHa:__ZN15UniformTFMethod13MapBoneBufferEj
Zad:__ZN2UI14CanvasRendererD2Ev
JSi:_Array_InternalArray__get_Item_TisParameterModifier_t1461694466_m29553316_gshared
dOd:_Int64_CompareTo_m1928360444_AdjustorThunk
jIb:__Z9SetupArgviPPKc
Jfe:_Convert_ToInt64_m2075031821
Xjb:__ZN13dynamic_arrayIP10UnitySceneLj4EE9push_backERKS1_
RZe:_InternalEnumerator_1__ctor_m236665673_gshared
G7i:_AnalyticsEventTracker_OnDisable_m1553012800
Llk:_glTexParameteri__wrapper
S3:__ZN12ImmediatePtrI10GameObjectE8TransferI19StreamedBinaryWriteILb0EEEEvRT_
I2a:__ZN12CubemapArray23VirtualRedirectTransferER24GenerateTypeTreeTransfer
afj:__ZL24UnresolvedVirtualCall_22P12Il2CppObjectS0_iS0_S0_S0_PK10MethodInfo
d2:__ZN12FileAccessor4OpenER15FileSystemEntry14FilePermission16FileAutoBehavior
qWa:__ZNSt3__26vectorI4PPtrI6ShaderE13stl_allocatorIS3_L18MemLabelIdentifier53ELi16EEE8__appendEj
SXj:__ZN6il2cpp2os9Directory6CreateERKNSt3__212basic_stringIcNS2_11char_traitsIcEENS2_9allocatorIcEEEEPi
$la:__ZN4PPtrI6ShaderE8TransferI18StreamedBinaryReadILb0EEEEvRT_
j7:__ZN23TransformChangeDispatch32QueueTransformChangeIfHasChangedERK15TransformAccess
Q1a:__ZNSt3__26vectorINS_4pairIN9ShaderLab16FastPropertyNameEN18UnityPropertySheet11UnityTexEnvEEENS_9allocatorIS6_EEE21__push_back_slow_pathIKS6_EEvRT_
cPa:__ZN15ArchiveReadFile5WriteEyPKvPy
Xhe:_Assembly_get_FullName_m293988418
PUc:__ZN22WorldContactListener2D8PreSolveEP9b2ContactPK10b2Manifold
B:tempValue
E1b:__Z29StdTemplateConversionFunctionIaiEbPvR14SafeBinaryRead
q7j:__ZN6il2cpp8metadata24Il2CppGenericContextHash4HashEPK20Il2CppGenericContext
i_e:_InternalEnumerator_1_get_Current_m356936020_AdjustorThunk
Syh:_Collection_1_CheckWritable_m1583234367_gshared
sNd:_Int32_ToString_m141394615_AdjustorThunk
w8d:_ArrayListWrapper_CopyTo_m498486826
fQd:_Directory_GetCurrentDirectory_m219218555
g$d:_SmallXmlParser_UnexpectedEndError_m1914362401
vy:__ZN26AnimatorControllerPlayable18DeallocateBindingsEv
Sfi:__ZL61FormatterTypeStyle_t3400733584_CustomAttributesCacheGeneratorP21CustomAttributesCache
Jwa:__ZN14DelayedDeletorI15dense_hashtableINSt3__24pairIK9TextureIDiEES3_14GfxGenericHashIS3_EN14GfxDoubleCacheIS3_iS7_NS1_8equal_toIS3_EEN31GfxDoubleCacheConcurrencyPolicy11LocklessGetE42GfxDoubleCacheDefaultEmptyDeletedGeneratorIS3_EE9SelectKeyESA_13stl_allocatorIS5_L18MemLabelIdentifier24ELi16EEEEclEv
QN:__ZN11AudioSource19CreateOpenALRolloffEfff
qse:_MonoMethod__ctor_m2104049215
gHg:_TimeSpan__ctor_m1896986612_AdjustorThunk
NVg:_EqualityComparer_1_System_Collections_IEqualityComparer_Equals_m1907027006_gshared
EZd:_ArgumentException__ctor_m1216717135
Gtg:_Ray_ToString_m1732834890_AdjustorThunk
wd:_glReadBuffer
HWh:_List_1_System_Collections_IList_Contains_m3860993176_gshared
XWf:_DateTime_get_Minute_m87527789_AdjustorThunk
EO:__ZN11AudioModule22CreateAudioClipFromWWWEP10IWWWStreamPKcbbi
nac:__ZN9Texture2DC2E10MemLabelId18ObjectCreationMode
bj:_emscripten_glRotatef
VKg:_UInt32_System_IConvertible_ToBoolean_m1763673183_AdjustorThunk
Bqi:__ZL85Camera_t4157153871_CustomAttributesCacheGenerator_Camera_set_orthographic_m2855749523P21CustomAttributesCache
gng:_UnityEvent_AddListener_m2276267359
ddd:__Z13RegisterClassIN2UI11CanvasGroupEEvv
Geh:__Z35RuntimeInvoker_RangeInt_t2094684618PFvvEPK10MethodInfoPvPS4_
k4b:__ZN6prcoreL11inner_clearILj4EEEvPhjjj
yf:_emscripten_glClear
pOe:_MethodCall_get_Args_m148309537
SOe:_DictionaryEnumerator_get_Value_m2166220004
vdj:_PCMReaderCallback_BeginInvoke_m3391809637
mmi:__ZL72LoaderOptimization_t1484956347_CustomAttributesCacheGenerator_DomainMaskP21CustomAttributesCache
i3g:__Z74RuntimeInvoker_Void_t1185182177_RuntimeObject_StreamingContext_t3711869237PFvvEPK10MethodInfoPvPS4_
Y2j:_GC_initialize_offsets
ofa:__ZNK8Playable6HandleEv
Jff:_SetPropertyUtility_SetColor_m2229203028
Yck:___cxa_guard_abort
j7e:_Enumerator_MoveNext_m481679286_gshared
j0:__ZN14MessageHandler28MessageIDToMessageIdentifierEi
F8a:__ZNK11SpriteAtlas20GetRuntimeRenderDataEPK6Sprite
XPd:_FileSystemInfo__ctor_m3035148496
dig:_AssetBundleCreateRequest_t3119663542_marshal_pinvoke_cleanup
KMd:_Int32_System_IConvertible_ToDecimal_m2190376994_AdjustorThunk
qZg:_KeyValuePair_2_set_Key_m2121548577_AdjustorThunk
Iqh:__Z46RuntimeInvoker_RefEmitPermissionSet_t484390987PFvvEPK10MethodInfoPvPS4_
fgh:__Z57RuntimeInvoker_PropertyName_t3749835189_Int32_t2950945753PFvvEPK10MethodInfoPvPS4_
r7c:__ZN20TextRenderingPrivate15DynamicFontData36GetFaceForCharacterIfAvailableInFontERKNS_7FontRefERK13dynamic_arrayI4PPtrIN13TextRendering4FontEELj4EEj
tw:__ZN7mecanim14ValueArrayCopyILb0EEEvPKNS_10ValueArrayEPS1_
zF:__Z51Register_UnityEngine_Animator_get_hasBoundPlayablesv
huh:_Collection_1_CopyTo_m3142835220_gshared
Od:emscriptenWebGLGetUniform
No:FUNCTION_TABLE_iiiiiiiiiii
U3i:_GUI_CallWindowDelegate_m3309453386
gef:_ValueCollection_System_Collections_IEnumerable_GetEnumerator_m2535969909_gshared
h_c:_cff_set_mm_blend
KLb:__ZN19GfxThreadableDevice15OnDeviceCreatedEb
EYb:__ZL10CleanUpJobP20CullingGroupsJobData
USb:__Z20IsRunningNativeTestsv
SPd:_DirectoryInfo_get_Exists_m3142069876
Reb:__ZN11TimeManager23VirtualRedirectTransferER17RemapPPtrTransfer
wNb:__ZN13RenderManager15BatchModeUpdateEv
gLh:_Predicate_1__ctor_m327447107_gshared
rwc:_jpeg_resync_to_restart
dGf:_X509Chain_get_CertificateAuthorities_m804805415
P7a:__ZN14SafeBinaryRead21TransferSTLStyleArrayI13dynamic_arrayI8Vector2fLj4EEEEvRT_17TransferMetaFlags
gbi:__ZL123GenericTypeParameterBuilder_t1988827940_CustomAttributesCacheGenerator_GenericTypeParameterBuilder_IsSubclassOf_m2266644074P21CustomAttributesCache
V3:__ZN17PersistentManager51InstanceIDToLocalSerializedObjectIdentifierInternalEiR31LocalSerializedObjectIdentifier
Ivg:_Vector2_get_one_m738793577
CSc:__ZN10ClipperLib7Clipper15SetWindingCountERNS_5TEdgeE
mfc:__ZNK4Mesh14GetIndexFormatEv
AYg:_GenericEqualityComparer_1__ctor_m4072188982_gshared
g3i:_UriParser_set_DefaultPort_m4007715058
K8i:_FieldWithTarget__ctor_m583221563
rd:_glVertexAttribIPointer
log:_Input_GetAxisRaw_m2316819917
jDa:__ZN13dynamic_arrayI21ComputeShaderResourceLj4EE9push_backERKS0_
Dfc:__ZNK6Sprite10GetPaddingE20SpriteRenderDataMode
t9f:_Array_InternalArray__ICollection_Remove_TisUInt32_t2560061978_m733727733_gshared
sGd:_CryptographicException__ctor_m503735289
yNe:_ConstructionCall_get_CallSiteActivationAttributes_m3498917408
HRd:_Stream_EndRead_m1896469262
B0g:__Z93RuntimeInvoker_Boolean_t97287965_Int32_t2950945753_SByte_t1669577662_ExceptionU26_t3600731591PFvvEPK10MethodInfoPvPS4_
PQb:__ZN14qsort_internal5QSortIP15RODataDepthPassi17ROSorterDepthPassEEvT_S4_T0_T1_
A0c:_UNITY_ft_glyphslot_alloc_bitmap
qBh:_ReadOnlyCollection_1_System_Collections_IList_Add_m3642938800_gshared
OGe:_RSASslSignatureDeformatter_SetHashAlgorithm_m895570787
jYi:_X509CrlEntry__ctor_m4013514048
Ssj:__ZN15dense_hashtableI10KeyWrapperIPK17Il2CppGenericInstES4_N6il2cpp8metadata21Il2CppGenericInstHashEN14dense_hash_setIS4_S7_NS4_14EqualsComparerINS6_24Il2CppGenericInstCompareEEENSt3__29allocatorIS4_EEE8IdentityESB_SE_E16reset_thresholdsEv
Mfh:__Z87RuntimeInvoker_Color_t2555686324_Color_t2555686324_Color_t2555686324_Single_t1397266774PFvvEPK10MethodInfoPvPS4_
t5c:_ft_raster1_render
Hrc:__Z47Register_UnityEngine_Mesh_RecalculateBoundsImplv
lra:__ZN9GfxDevice27UpdateComputeSkinPoseBufferEP9GfxBufferP12SkinMeshInfo
mPh:_Enumerator_get_Current_m3382684163_AdjustorThunk
FVe:_InternalEnumerator_1_System_Collections_IEnumerator_Reset_m3677481164_AdjustorThunk
Ibk:__ZNKSt3__221__basic_string_commonILb1EE20__throw_length_errorEv
IVg:_EqualityComparer_1_System_Collections_IEqualityComparer_Equals_m245992594_gshared
sah:__Z52RuntimeInvoker_UInt64_t4134040092_Single_t1397266774PFvvEPK10MethodInfoPvPS4_
LRc:__ZN10ClipperLib11ClipperBase5ResetEv
gdg:_Array_InternalArray__IndexOf_TisParameterModifier_t1461694466_m1227120810_gshared
TEa:__ZN18GfxFramebufferGLES13ReadbackImageER14ImageReferenceiiiiii
uBc:__ZN5Unity9rapidjson6WriterI16TempBufferWriterNS0_4UTF8IcEES4_13JSONAllocatorE11WriteStringEPKcj
hEd:_SerializationInfo_SetType_m3923964808
wAa:__ZN6prcoreL12RemapGenericI17TexFormatARGB888815TexFormatRGB565EEvPKNS_9InnerInfoE
uJ:__ZN4FMOD7Channel19setReverbPropertiesEPK29FMOD_REVERB_CHANNELPROPERTIES
D8i:_StandardEventPayload_GetParameters_m2672427676
PTd:_StreamReader_Dispose_m156389394
U_:__ZN13MonoBehaviour22GetScriptFullClassNameEv
JKj:_il2cpp_object_get_class
uNf:_SymmetricAlgorithm_get_Padding_m1011382560
a8b:__ZN13ProduceHelperI11MonoManagerLb0EE7ProduceE10MemLabelId18ObjectCreationMode
IKf:_RIPEMD160Managed_JJ_m112143231
lQb:__ZN13BatchRendererC2ER15RenderLoopStatsRK15RenderNodeQueuebb
o5e:_Comparer_1__ctor_m191896560_gshared
luf:_PreviousInfo_t2148130204_marshal_pinvoke_back
cpb:__ZNK16MemoryFileSystem9EnumerateEPKcP19dynamic_block_arrayI13FileEntryInfoLj32EEbPPv19FileEnumerationFlag
hGb:__ZN13MonoBehaviour9CallAwakeEv
CZa:__ZN20SphericalHarmonicsL211AddWeightedERKS_f
D3g:__Z82RuntimeInvoker_RuntimeObject_Int64_t3736567304_Int64_t3736567304_Int64_t3736567304PFvvEPK10MethodInfoPvPS4_
qvb:__Z19TransferField_ArrayI17RemapPPtrTransfer27Converter_SimpleNativeClassI8GUIStyleEEvRK23StaticTransferFieldInfoR31RuntimeSerializationCommandInfoRT0_
Sha:__ZL22StaticInitializeShaderPv
Nvc:_h2v1_fancy_upsample
eCc:__ZN9JSONWrite8TransferI10ColorRGBAfEEvRT_PKc17TransferMetaFlags
Isa:__ZN13GfxDeviceGLES17CaptureScreenshotEiiiiPh
W1e:_InternalEnumerator_1__ctor_m3913006324_AdjustorThunk
d0:__Z25scripting_method_get_name18ScriptingMethodPtr
ZGe:_SslCipherSuite_ComputeKeys_m661027754
x2e:_InternalEnumerator_1__ctor_m3322594868_gshared
Nrg:_Object_set_name_m291480324
_de:_Convert_ToBoolean_m481380807
__f:_Decimal_Equals_m2486655999
_2j:_GC_exit_check
Jie:_AssemblyName_SetPublicKeyToken_m582470133
_fh:__Z52RuntimeInvoker_Boolean_t97287965_HitInfo_t3229609740PFvvEPK10MethodInfoPvPS4_
yM:__ZNK4PPtrI9AudioClipEcvPS0_Ev
DZ:__Z20UnlockObjectCreationv
kse:_MonoField_ToString_m2518484388
Zwf:_DSAManaged_get_Random_m923751780
Sbf:_Transform_1_Invoke_m2385719192_gshared
_zg:_Vector3_set_Item_m1772472431_AdjustorThunk
YIf:_Interpreter_PopulateGroup_m4042796257
ksb:__ZN15SerializeTraitsI13dynamic_arrayIyLj8EEE19ResizeSTLStyleArrayERS1_i
oJg:_Type_GetProperty_m3414567179
qPj:__ZN6il2cpp2vm13LivenessState25FieldCanContainReferencesEP9FieldInfo
u0b:__ZNSt3__26vectorINS_4pairIN4core12basic_stringIcNS2_20StringStorageDefaultIcEEEES6_EE13stl_allocatorIS7_L18MemLabelIdentifier38ELi16EEE6insertENS_11__wrap_iterIPKS7_EERSD_
Hng:_RenderPipelineManager_DoRenderLoop_Internal_m3799666479
Fti:__ZL78Sprite_t280657092_CustomAttributesCacheGenerator_Sprite_get_packed_m1179604684P21CustomAttributesCache
dB:__ZN9BlobWrite8TransferI22OffsetPtrArrayTransferI9OffsetPtrIN7mecanim12statemachine18StateMachineMemoryEEEEEvRT_PKc17TransferMetaFlags
QZ:__ZN4core8hash_mapIiP6ObjectNS_4hashIiEENSt3__28equal_toIiEEE4growEi
PZ:__ZN4core8hash_mapIiP6ObjectNS_4hashIiEENSt3__28equal_toIiEEE4growEv
fwh:_Collection_1_System_Collections_IList_IndexOf_m3894953546_gshared
vWi:_PKCS12_get_Certificates_m26161562
MAf:_NameObjectCollectionBase_Init_m2525481323
jQi:_Array_swap_TisBoolean_t97287965_m2293774148_gshared
LQh:_List_1_Insert_m1582252370_gshared
k_j:__ZN6il2cpp2vm6String8NewUtf16EPKDsi
oFd:_SByte_System_IConvertible_ToByte_m2268214252_AdjustorThunk
BXj:__ZN6il2cpp2os10ThreadImpl12QueueUserAPCEPFvPvES2_
kG:__Z32TransferEnumWithNameForceIntSizeI14SafeBinaryReadN10SampleClip17CompressionFormatEEvRT_RT0_PKc17TransferMetaFlags
x1i:_RegularExpression__ctor_m119502265
xjd:__ZN22BaseUnityConnectClient10QueueEventERN11UnityEngine15CloudWebService17CloudServiceEventEPKcjb
zDh:_ReadOnlyCollection_1_System_Collections_Generic_ICollectionU3CTU3E_Clear_m522482168_gshared
jhj:__ZL25UnresolvedVirtualCall_139P12Il2CppObject17Color_t2555686324faaPK10MethodInfo
dle:_DerivedType_IsByRefImpl_m2585680005
J0a:__ZN13dynamic_arrayI11ShaderTagIDLj4EE9push_backERKS0_
ANe:_ConstructionCall_InitMethodProperty_m2021094586
cuc:_UNITY_png_read_filter_row_up
q3c:_UNITY_FT_Hypot
XVe:_InternalEnumerator_1__ctor_m2636293838_gshared
X7:__ZN15SerializeTraitsIN4math14float3_storageEE8TransferI14SafeBinaryReadEEvRS1_RT_
Byi:__ZL95TextGenerator_t3211863866_CustomAttributesCacheGenerator_TextGenerator_get_lineCount_m916872812P21CustomAttributesCache
mKi:__ZL74CanvasScaler_t2767979955_CustomAttributesCacheGenerator_m_DefaultSpriteDPIP21CustomAttributesCache
WJj:_il2cpp_class_is_abstract
If:_emscripten_glGetError
uHj:__ZN15dense_hashtableINSt3__24pairIK10KeyWrapperIPK14Il2CppAssemblyEPK22Il2CppMonoAssemblyNameEES6_N6il2cpp5utils11PointerHashIS4_EEN14dense_hash_mapIS6_SA_SF_NS6_14EqualsComparerINS0_8equal_toIS5_EEEENS0_9allocatorISB_EEE9SelectKeyESK_SM_E14squash_deletedEv
fK:__Z14FMOD_FILE_SeekPvjS_
hlf:_MaskableGraphic_OnDisable_m1757789159
l_a:__ZN7TextureC2E10MemLabelId18ObjectCreationMode
Yif:_LayoutGroup__ctor_m2162961217
ahd:__Z56Register_UnityEngine_Analytics_CustomEventData_AddStringv
_Mg:_ValueType_t3640485471_marshal_pinvoke_cleanup
FZb:__ZNK13RenderTexture32CalculateNeedsInvertedProjectionEv
H2b:__ZN10systeminfo18GetOperatingSystemEv
Qf:emscriptenWebGLGet
Iba:__Z19CanReplaceComponentRN5Unity9ComponentEPKNS_4TypeEPN4core12basic_stringIcNS5_20StringStorageDefaultIcEEEE
SVd:_UnmanagedMemoryStream_Flush_m1540584491
Xuh:_Collection_1_GetEnumerator_m3986802482_gshared
iKd:_GuidParser_ParseGuid2_m1914838819
gac:__ZN12CubemapArray11InitTextureEiii13TextureFormatb
Hhc:__Z17GetSceneBuildInfoRKN4core12basic_stringIcNS_20StringStorageDefaultIcEEEEiR14SceneBuildInfo
aUh:_List_1_System_Collections_IList_get_Item_m1112579679_gshared
ige:_Convert_ToSingle_m3983149863
KUe:_InternalEnumerator_1_System_Collections_IEnumerator_get_Current_m55999184_gshared
Qdf:_ValueCollection_System_Collections_Generic_ICollectionU3CTValueU3E_Contains_m1842955046_gshared
iEj:__ZN24dense_hashtable_iteratorINSt3__24pairIK10KeyWrapperIPK10Il2CppTypeEjEES6_N6il2cpp8metadata14Il2CppTypeHashEN14dense_hash_mapIS6_jSB_NS6_14EqualsComparerINSA_26Il2CppTypeEqualityComparerEEENS0_9allocatorIS8_EEE9SelectKeyESF_SH_E30advance_past_empty_and_deletedEv
dBd:_Graphic_get_depth_m815589653
w3i:_Event_set_displayIndex_m1342258734
jxd:_ContentSizeFitter_get_horizontalFit_m2773126143
kcj:_U3CStartU3Ec__Iterator0__ctor_m2366347741_gshared
MB:__ZN7mecanim5human13HumanFixTwistEPKNS0_5HumanEPNS_8skeleton13SkeletonPoseTIN4math4trsXEEES9_iiRKf
DTb:__ZL24AssignProjectorQueuesJobP30AssignProjectorQueuesJobHeader
PQg:_KeyValuePair_2_get_Key_m1218836954_gshared
Wgj:__ZL25UnresolvedVirtualCall_124P12Il2CppObjectPK10MethodInfo
Xte:_ParameterModifier_t1461694466_marshal_pinvoke
kuj:__ZN15dense_hashtableINSt3__24pairIK10KeyWrapperIN6il2cpp5utils13dynamic_arrayIPK10Il2CppTypeLj4EEEEPFvvEEESA_NS3_8metadata19Il2CppSignatureHashEN14dense_hash_mapISA_SD_SG_NSA_14EqualsComparerINSF_22Il2CppSignatureCompareEEENS0_9allocatorISE_EEE9SelectKeyESK_SM_E4swapERSP_
NKd:_Int16_System_IConvertible_ToUInt32_m3410279543
qoa:__ZN9ShaderLab20SerializedSubProgram14SetConstBufferEPKci
tAj:__ZN6il2cpp2os4File5CloseEPNS0_10FileHandleEPi
Ltj:__ZNSt3__27__sort5IRN6il2cpp5utils11collections13ArrayValueMapIPK10Il2CppType17Il2CppInteropData26InteropDataToTypeConverterNS1_8metadata14Il2CppTypeLessENSA_26Il2CppTypeEqualityComparerEE12SortComparerEPS8_EEjT0_SH_SH_SH_SH_T_
Yxg:_Touch_get_fingerId_m859576425_AdjustorThunk
bmh:__Z48RuntimeInvoker_Boolean_t97287965_Link_t544317964PFvvEPK10MethodInfoPvPS4_
Blf:_Navigation_get_selectOnDown_m1912812616_AdjustorThunk
IVh:_List_1_System_Collections_ICollection_CopyTo_m2688165607_gshared
Mlh:__Z53RuntimeInvoker_UIVertex_t4057497605_Int32_t2950945753PFvvEPK10MethodInfoPvPS4_
zKg:_UInt16_CompareTo_m2664746316_AdjustorThunk
Zdf:_ValueCollection_GetEnumerator_m616748621_gshared
uX:__Z40DebugStringToFilePostprocessedStacktraceRK21DebugStringToFileData
SGc:__Z29Transfer_Blittable_ArrayFieldI8JSONReadjEvRT_R9ArrayInfoRK23StaticTransferFieldInfo
qHh:_ReadOnlyCollection_1_get_Item_m679165083_gshared
e3j:_GC_check_finalizer_nested
wg:__setLetterbox
b2a:__ZNSt3__26__treeINS_12__value_typeIN9ShaderLab16FastPropertyNameEfEENS_19__map_value_compareIS3_S4_NS_4lessIS3_EELb1EEENS_9allocatorIS4_EEE12__find_equalIS3_EERPNS_16__tree_node_baseIPvEENS_21__tree_const_iteratorIS4_PNS_11__tree_nodeIS4_SE_EEiEESH_RKT_
Vof:_ScrollRect_OnScroll_m3861066534
wvf:_BigInteger_op_LessThanOrEqual_m2553515144
ayi:__ZL72FormerlySerializedAsAttribute_t2859083114_CustomAttributesCacheGeneratorP21CustomAttributesCache
cff:_OnValidateInput_Invoke_m1009124904
l_i:_PatternCompiler_EmitFastRepeat_m3012952683
jbb:__ZNSt3__26vectorI17BlendShapeChannelNS_9allocatorIS1_EEE6assignINS_11__wrap_iterIPS1_EEEENS_9enable_ifIXaasr21__is_forward_iteratorIT_EE5valuesr16is_constructibleIS1_NS_15iterator_traitsISA_E9referenceEEE5valueEvE4typeESA_SA_
A2b:__ZN11TimeManager11GetRealtimeEv
qsi:__ZL91RectOffset_t1369453676_CustomAttributesCacheGenerator_RectOffset_get_horizontal_m2663785949P21CustomAttributesCache
Prg:_Object_GetHashCode_m1944636947
LPd:_BinaryReader_ReadUInt32_m2210658763
zK:__ZN29AudioEffectInternalDefinitionC2EP26UnityAudioEffectDefinitionb
jIh:_ReadOnlyCollection_1_System_Collections_IList_Remove_m2434650390_gshared
SKg:_UInt16_ToString_m3056878594_AdjustorThunk
RD:__ZN4PPtrI6AvatarE8TransferI18StreamedBinaryReadILb0EEEEvRT_
KRg:_Dictionary_2_System_Collections_Generic_ICollectionU3CSystem_Collections_Generic_KeyValuePairU3CTKeyU2CTValueU3EU3E_Contains_m2803718146_gshared
s6j:__ZN6il2cpp2os9FastMutexD2Ev
m8i:_EventTrigger_set_repeatTime_m1188543944
VJf:_Interval_get_IsSingleton_m3386290029
$2b:__ZN12LineRenderer15InitializeClassEv
pCj:__ZNSt3__2plIcNS_11char_traitsIcEENS_9allocatorIcEEEENS_12basic_stringIT_T0_T1_EERKS9_PKS6_
Uxg:_Time_get_unscaledDeltaTime_m4270080131
rPg:_Dictionary_2_pick_key_m3282382413_gshared
yMf:_SHA384Managed__ctor_m3220477113
vza:_stbir_resize
tcg:_Array_IndexOf_TisCustomAttributeTypedArgument_t2723150157_m3158556463_gshared
iVg:_EqualityComparer_1_System_Collections_IEqualityComparer_GetHashCode_m360549782_gshared
Q2f:_Environment_GetOSVersionString_m407782784
EUf:_DecoderExceptionFallback_Equals_m1082173956
fXg:_EqualityComparer_1_System_Collections_IEqualityComparer_GetHashCode_m345188086_gshared
Obi:__ZL69Assembly_t_CustomAttributesCacheGenerator_Assembly_GetName_m981771927P21CustomAttributesCache
scb:__ZN4PPtrI4MeshE8TransferI14SafeBinaryReadEEvRT_
pNc:__ZN24b2ChainAndCapsuleContact6CreateEP9b2FixtureiS1_iP16b2BlockAllocator
zPa:__Z37ReadDirectoryInfo_UnityWebAndUnityRawR12FileAccessorRKN20ArchiveStorageHeader6HeaderERNS1_13DirectoryInfoE
Taa:__ZNSt3__26__treeINS_12__value_typeIPKciEENS_19__map_value_compareIS3_S4_15compare_tstringIS3_ELb1EEENS_9allocatorIS4_EEE7destroyEPNS_11__tree_nodeIS4_PvEE
Bgg:_Array_InternalArray__Insert_TisIntPtr_t_m189626842_gshared
DNd:_Int64_System_IConvertible_ToByte_m375085029_AdjustorThunk
ksf:_Locale_GetText_m3374010885
Kzh:_Collection_1_System_Collections_IEnumerable_GetEnumerator_m1598238343_gshared
NJd:_RijndaelManaged_CreateEncryptor_m263736311
PGg:_WaitCallback__ctor_m1893321019
bkd:__ZN13dynamic_arrayIN4core12basic_stringIcNS0_20StringStorageDefaultIcEEEELj4EE6assignEPKS4_S7_
NQb:__ZN20DynamicPropertySheet14SetValueQueuedEN9ShaderLab16FastPropertyNameEN19ShaderPropertySheet12PropertyTypeEjNS2_8SetFlagsE
Nbd:__ZN2UI6Canvas26MarkAllNestedCanvasesDirtyEv
Nmg:_InvokableCallList_ClearPersistent_m1904264973
JHb:__ZN25PathNamePersistentManagerD2Ev
wZ:__ZN17PersistentManager48IntegrateObjectAndUnlockIntegrationMutexInternalEi
Hha:__ZZ29InitializeSortingGroupManagerPvEN44PostLateUpdateSortingGroupsUpdateRegistrator7ForwardEv
PDi:__ZL55EventTrigger_t1076084509_CustomAttributesCacheGeneratorP21CustomAttributesCache
eQf:_SecurityElement_SearchForChildByTag_m900466299
Ip:__ZN6Object12SetHideFlagsENS_9HideFlagsE
AMc:__ZN9b2Fixture11SynchronizeEP12b2BroadPhaseRK11b2TransformS4_
bge:_Convert_ToSingle_m3227075028
Eik:_emscripten_glGetFramebufferAttachmentParameteriv__wrapper
YNb:__ZN13RendererScene15InitializeUmbraEv
tYa:__Z28CalculateGlobalMatrixInverse23TransformAccessReadOnly
crg:_MonoBehaviour__ctor_m1579109191
tBi:__ZL59GUITargetAttribute_t25796337_CustomAttributesCacheGeneratorP21CustomAttributesCache
nYg:_GenericEqualityComparer_1_Equals_m3457564127_gshared
ixe:_BigInteger_ModInverse_m2426215562
Haj:_Gridscript_Start_m2141529974
BWe:_InternalEnumerator_1_System_Collections_IEnumerator_Reset_m2386791007_AdjustorThunk
AUf:_DecoderExceptionFallback__ctor_m4044614564
tYe:_InternalEnumerator_1_System_Collections_IEnumerator_Reset_m3011999097_AdjustorThunk
rNj:__ZN6il2cpp2vm6Thread17FullMemoryBarrierEv
XVd:_LocalDataStoreSlot__cctor_m644942532
o7j:__ZN6il2cpp6icalls8mscorlib6System6Object7GetTypeEP12Il2CppObject
$se:_MonoProperty_CachePropertyInfo_m2968057423
ond:__ZNK25UnityWebRequestJavaScript18GetDownloadedBytesEv
Etg:_Ray_GetPoint_m1852405345_AdjustorThunk
fai:__ZL53RegionInfo_t1090270226_CustomAttributesCacheGeneratorP21CustomAttributesCache
qCi:__ZL85Canvas_t3310196443_CustomAttributesCacheGenerator_Canvas_get_sortingOrder_m1860900812P21CustomAttributesCache
iBh:_ReadOnlyCollection_1_System_Collections_Generic_IListU3CTU3E_Insert_m3798411681_gshared
s7f:_Array_get_swapper_TisColor32_t2600501292_m2310851009_gshared
gnd:__ZN12HeaderHelper14SetUnvalidatedERKN4core12basic_stringIcNS0_20StringStorageDefaultIcEEEES6_b
xG:__ZN4FMOD6SoundI7releaseEv
Wcb:__ZN14SpriteRenderer13AwakeFromLoadE17AwakeFromLoadMode
VYc:_cff_parse_num
bQa:__ZN10MemoryFile9SetLengthEy
vxb:__ZN5RectTIiE8TransferI24GenerateTypeTreeTransferEEvRT_
nLc:__ZNK15b2RevoluteJoint10GetAnchorBEv
x5a:__ZN14SafeBinaryRead21TransferSTLStyleArrayI13dynamic_arrayI7Hash128Lj8EEEEvRT_17TransferMetaFlags
LGb:__Z28scripting_class_is_interface17ScriptingClassPtr
Oh:_glTexStorage2D
oce:_SyncHashtable_get_Item_m2686606216
Nna:__ZNK9ShaderLab10SubProgram14EnsureCompiledEv
soe:_MethodBuilder_GetGenericArguments_m1765425737
oXf:_DateTime_CompareTo_m3687348273
V1j:_GC_push_marked
wYf:_DateTime_ToUniversalTime_m1945318289_AdjustorThunk
g3e:_InternalEnumerator_1_MoveNext_m1262669372_gshared
Q1f:_Enum_t4135868527_marshal_pinvoke
V$:__Z18BuildScriptClassId17ScriptingClassPtr
Ijj:_TextGenerator_Init_m1168488231
vyf:_RSAManaged_Finalize_m3915335854
Mq:__ZNK16LevelGameManager7GetNameEv
CNa:__ZL31DeleteLastPathNameComponentImplRKN4core12basic_stringIcNS_20StringStorageDefaultIcEEEEPKc
Z6b:__Z13RegisterClassI18DelayedCallManagerEvv
XUd:_TextReader_Close_m3130290355
Ljd:__ZN18UnityConnectClient15GetCloudServiceEv
Evb:__Z18Transfer_BlittableI24GenerateTypeTreeTransferLb0EiEvRK29SerializationCommandArgumentsR31RuntimeSerializationCommandInfo
hZe:_InternalEnumerator_1_get_Current_m2698009637_gshared
Twj:__ZN6il2cpp2os19SocketHandleWrapperD2Ev
$cf:_Enumerator_System_Collections_IEnumerator_Reset_m278261807_gshared
VMc:__ZN15b2CircleContact6CreateEP9b2FixtureiS1_iP16b2BlockAllocator
EGb:__ZL28SerializationCommandGroupForRK31TransferFunctionScriptingTraits17ScriptingClassPtr17ScriptingFieldPtrRK20CoreScriptingClasses
ISa:__ZN10TagManager32RegisterDefaultTagsAndLayerMasksEv
aHg:_WaitHandle_Dispose_m738127030
swc:__ZL11term_sourceP22jpeg_decompress_struct
H9g:__Z50RuntimeInvoker_Double_t594665363_Int32_t2950945753PFvvEPK10MethodInfoPvPS4_
jLh:_Predicate_1_EndInvoke_m1490920825_gshared
nmi:__ZL78LoaderOptimization_t1484956347_CustomAttributesCacheGenerator_DisallowBindingsP21CustomAttributesCache
LRg:_Dictionary_2_System_Collections_Generic_ICollectionU3CSystem_Collections_Generic_KeyValuePairU3CTKeyU2CTValueU3EU3E_CopyTo_m3122240003_gshared
Qih:__Z104RuntimeInvoker_Void_t1185182177_Color_t2555686324_Single_t1397266774_SByte_t1669577662_SByte_t1669577662PFvvEPK10MethodInfoPvPS4_
bZh:_List_1_Remove_m3853969205_gshared
CPh:_Enumerator_System_Collections_IEnumerator_get_Current_m1540440674_gshared
$Qf:_Single_System_IConvertible_ToInt16_m809233024_AdjustorThunk
ihd:__Z56Register_UnityEngine_Analytics_CustomEventData_AddUInt32v
T9j:_fmodf
fff:_InputField_UpdateLabel_m1837760870
Lva:__ZN4gles8InitCapsEP7ApiGLESP12GraphicsCapsR16GfxDeviceLevelGL
Pza:__ZN6prcore14BlitImageFloatERK14ImageReferenceRS0_NS0_8BlitModeE
YVa:__Z24CalculateVertexLightDataRK15SharedLightDataR14GfxVertexLight
wi:_glEnable
HFj:__ZN15dense_hashtableINSt3__24pairIK10KeyWrapperINS1_IPK12PropertyInfoP11Il2CppClassEEEjEES9_17ReflectionMapHashIS8_EN14dense_hash_mapIS9_jSD_NS9_14EqualsComparerINS0_8equal_toIS8_EEEENS0_9allocatorISB_EEE9SelectKeyESI_SK_E15insert_noresizeERKSB_
Q$e:_InternalEnumerator_1_MoveNext_m973048327_gshared
Kna:__ZNK9ShaderLab7Program28BeginReadUnsupportedVariantsEv
X6:__ZN12CachedWriter11Align4WriteEv
Zhb:__ZNSt3__26vectorIN30RuntimeInitializeOnLoadManager9ClassInfoE13stl_allocatorIS2_L18MemLabelIdentifier13ELi16EEE7reserveEj
rCc:__Z35Transfer_Blittable_FixedBufferFieldI9JSONWriteiEvRK29SerializationCommandArgumentsR31RuntimeSerializationCommandInfo
ymj:_HumanBone_t2465339518_marshal_pinvoke_cleanup
DYg:_Enumerator__ctor_m1590062855_AdjustorThunk
sIj:__ZN14dense_hash_mapI10KeyWrapperINSt3__24pairIPK10MethodInfoP11Il2CppClassEEEj17ReflectionMapHashIS8_ENS9_14EqualsComparerINS1_8equal_toIS8_EEEENS1_9allocatorINS2_IKS9_jEEEEEC2EjRKSB_RKSF_
ny:__ZN26AnimatorControllerPlayable17ProcessRootMotionEP35AnimationPlayableEvaluationConstantP32AnimationPlayableEvaluationInputP33AnimationPlayableEvaluationOutput
Jfi:__ZL54SoapServices_t133988723_CustomAttributesCacheGeneratorP21CustomAttributesCache
wVd:_UnexceptionalStreamReader_Peek_m1842169584
mid:__ZN11UnityEngine7Connect15DeviceInfoEvent16CollectExtraInfoEv
J1h:_Queue_1_System_Collections_IEnumerable_GetEnumerator_m3464578225_gshared
UAg:_TypeInferenceRuleAttribute__ctor_m2736695831
Kig:_Bounds_GetHashCode_m1844059663_AdjustorThunk
JGd:_CryptographicException__ctor_m1422015889
xAg:_Vector4_Equals_m1779210055_AdjustorThunk
Wge:_Convert_ChangeType_m739676612
ebk:_atoi
PMd:_Int32_System_IConvertible_ToInt32_m265310525_AdjustorThunk
fbk:_atol
W$j:__ZThn8_N6il2cpp2vm13CachedCCWBaseINS0_13ManagedObjectEE6AddRefEv
ZAe:_Alert_GetAlertMessage_m1942367141
IBh:_ReadOnlyCollection_1_GetEnumerator_m3690861713_gshared
nJi:__ZL88Selectable_t3250028441_CustomAttributesCacheGenerator_U3CisPointerDownU3Ek__BackingFieldP21CustomAttributesCache
sLe:_RemotingServices_GetRealProxy_m2081098851
Fwf:_BlockProcessor_Core_m189015002
ksj:__ZN15dense_hashtableINSt3__24pairIK10KeyWrapperIPKcEP11Il2CppClassEES5_N6il2cpp5utils11StringUtils12StringHasherIS4_EEN14dense_hash_mapIS5_S8_SE_NS5_14EqualsComparerINSB_13VmStringUtils21CaseSensitiveComparerEEENS0_9allocatorIS9_EEE9SelectKeyESJ_SL_EC2EjRKSE_RKSJ_RKSN_
Mik:_emscripten_glScissor__wrapper
So:FUNCTION_TABLE_viifi
To:FUNCTION_TABLE_viiff
a3b:__ZN12LineRenderer12CleanupClassEv
LZd:_X501__cctor_m1166912714
KEi:__ZL102PointerEventData_t3807901092_CustomAttributesCacheGenerator_PointerEventData_set_lastPress_m2928324031P21CustomAttributesCache
qlf:_MaskUtilities_GetRectMasksForClip_m532898711
H3c:_UNITY_tt_face_free_hdmx
yPc:__ZNSt3__26__sortIRN18Overlap2DQueryBase29ColliderHitsByDepthComparitorEPP10Collider2DEEvT0_S7_T_
kjg:_Bounds_ToString_m4208690781
qLj:__ZN15dense_hashtableINSt3__24pairIK10KeyWrapperINS1_IP11Il2CppClassjEEES4_EES6_N6il2cpp8metadata14ArrayClassHashEN14dense_hash_mapIS6_S4_SB_NS6_14EqualsComparerINSA_17ArrayClassCompareEEENS0_9allocatorIS8_EEE9SelectKeyESF_SH_E5clearEv
Jrj:__ZNSt3__218uninitialized_copyIPNS_4pairIK10KeyWrapperIPK11Il2CppClassEPKcEESB_EET0_T_SD_SC_
_ij:__ZL25UnresolvedVirtualCall_236P12Il2CppObjecti19Vector2_t2156229523PK10MethodInfo
oWd:_Math_Sqrt_m1297338011
gUd:_StreamWriter_Initialize_m3490883444
BJg:_Type_GetGenericArguments_m3500465462
hmd:__ZN23UnityPurchasingSettingsC2Ev
Gck:__ZNSt9bad_allocD0Ev
hre:_Module_IsDefined_m2423524910
Ske:_DerivedType_create_unmanaged_type_m747846525
MAi:__ZL60EventType_t3528516131_CustomAttributesCacheGenerator_repaintP21CustomAttributesCache
NUa:__ZN17GPUFenceInternals7ReleaseEv
fJi:__ZL66Selectable_t3250028441_CustomAttributesCacheGenerator_m_NavigationP21CustomAttributesCache
pue:_ResolveEventHandler__ctor_m1911137231
Cxh:_Collection_1_System_Collections_IList_Contains_m2393482847_gshared
GZb:__ZL10RenderFaceR9GfxDeviceR18MaterialStateCacheP13RenderTextureiif
scg:_Array_IndexOf_TisCustomAttributeNamedArgument_t287865710_m2817957199_gshared
wka:__ZN15SerializeTraitsI13dynamic_arrayIN9ShaderLab21SerializedBindChannelELj4EEE19ResizeSTLStyleArrayERS3_i
gSj:__ZNK24NamespaceAndNamePairHashclERKNSt3__24pairIPKcS3_EE
KVi:_ExtendedKeyUsageExtension_ToString_m2116504780
Skb:__ZNK5Unity9Component38MarkGameObjectAndComponentDependenciesER27GarbageCollectorThreadState
vPd:_BinaryReader_Read_m3708759962
Dnd:__ZN20UnityWebRequestProtoI24UnityWebRequestTransport16AtomicRefCounter14RedirectHelper14ResponseHelper15DownloadHandler13UploadHandler12HeaderHelper14AsyncOperationED0Ev
$Jc:__Z5b2LogPKcz
fO:__ZNK7Texture21GetShadowSamplingModeEv
z7a:__ZN13ScreenManager21OnWindowRegainedFocusEv
VDb:__Z18Transfer_BlittableI18StreamedBinaryReadILb0EELb1EdEvRK29SerializationCommandArgumentsR31RuntimeSerializationCommandInfo
qva:__ZN9GfxDevice26CreateDefaultVertexBuffersEv
fkk:_emscripten_glVertexAttrib2fv__wrapper
fod:__ZN13RuntimeStaticINSt3__26vectorIPN5physx15PxVehicleWheelsENS0_9allocatorIS4_EEEELb0EE13StaticDestroyEPv
JUd:_SynchronizedReader_ReadToEnd_m2160105378
l1f:_Double_System_IConvertible_ToUInt16_m4132603953_AdjustorThunk
Jya:__ZN4crnd12symbol_codec32decode_receive_static_data_modelERNS_25static_huffman_data_modelE
Y2b:__ZN18ScriptingArguments8AddFloatEf
fyg:_TouchScreenKeyboard_Open_m3325559252
iDd:_Image_set_fillOrigin_m469806249
cid:__ZN11UnityEngine15PlatformWrapper16GetVRRenderScaleEv
rDc:__Z18Transfer_BlittableI9JSONWriteLb0EaEvRK29SerializationCommandArgumentsR31RuntimeSerializationCommandInfo
bS:__ZN11UnityEngine15CloudWebService14DataDispatcher34OnSessionContainerArchivedAndReadyERNS0_16SessionContainerE
qrg:_ConnectionChangeEvent__ctor_m764126802
LJc:__ZN7b2World11CreateJointEPK10b2JointDef
wxe:_Kernel_Multiply_m193213393
kXd:_IntComparer__ctor_m2901422390
que:_ResolveEventHandler_Invoke_m1337322179
Ogi:__ZL50HMACMD5_t2742219965_CustomAttributesCacheGeneratorP21CustomAttributesCache
G4e:_Comparer_1__ctor_m1078828713_gshared
_xb:__Z18Transfer_BlittableI19StreamedBinaryWriteILb0EELb0E8Vector3fEvRK29SerializationCommandArgumentsR31RuntimeSerializationCommandInfo
t$g:_Enumerator_VerifyState_m2621680056_gshared
s2i:_UriParser_InternalRegister_m3643767086
xyi:__ZL106TextGenerator_t3211863866_CustomAttributesCacheGenerator_TextGenerator_INTERNAL_get_rectExtents_m183810018P21CustomAttributesCache
Uia:__ZN14SafeBinaryRead19TransferSTLStyleMapINSt3__23mapIN4core12basic_stringIcNS3_20StringStorageDefaultIcEEEEiNS1_4lessIS7_EENS1_9allocatorINS1_4pairIKS7_iEEEEEEEEvRT_17TransferMetaFlags
iYf:_DateTimeFormatInfo_get_RawAbbreviatedDayNames_m1257850285
sLf:_RSACryptoServiceProvider_EncryptValue_m944137256
kFj:__ZN15dense_hashtableINSt3__24pairIK10KeyWrapperINS1_IPK11Il2CppImageP11Il2CppClassEEEjEES9_17ReflectionMapHashIS8_EN14dense_hash_mapIS9_jSD_NS9_14EqualsComparerINS0_8equal_toIS8_EEEENS0_9allocatorISB_EEE9SelectKeyESI_SK_ED2Ev
T1c:_gray_move_to
rpg:_Material_Internal_CreateWithShader_m2478666450
tZf:_DBNull_System_IConvertible_ToSingle_m13713620
WKi:__ZL127U3CDelayedSetDirtyU3Ec__Iterator0_t3170500204_CustomAttributesCacheGenerator_U3CDelayedSetDirtyU3Ec__Iterator0_Reset_m160466733P21CustomAttributesCache
Yjg:_CameraCallback__ctor_m899467377
CCh:_ReadOnlyCollection_1_System_Collections_IList_Contains_m1327645028_gshared
vDd:_Image_GetDrawingDimensions_m3060965396
pyi:__ZL69FontTextureRebuildCallback_t2467502454_CustomAttributesCacheGeneratorP21CustomAttributesCache
UJg:_TypeLoadException__ctor_m1154572625
Bjc:__Z30RegisterValidateMethodCallbackiPF18ScriptingMethodPtrS_17ScriptingClassPtrP6ObjectEPKc
Fnb:__ZN20LocalFileSystemPosixD0Ev
z5h:__ZL75Decimal_t2948259380_CustomAttributesCacheGenerator_Decimal__ctor_m593929528P21CustomAttributesCache
dEe:_Context_get_WriteSequenceNumber_m1115956887
Z$d:_Activator_CreateInstanceInternal_m1337209899
qRi:_Dictionary_2_Do_ICollectionCopyTo_TisKeyValuePair_2_t2401056908_m1169495264_gshared
cpe:_OpCodes__cctor_m3821715395
ixd:_ContentSizeFitter__ctor_m2349275633
ooi:__ZL56TypeConverter_t2249118273_CustomAttributesCacheGeneratorP21CustomAttributesCache
mxh:_Collection_1_RemoveAt_m3506636491_gshared
e1c:_tt_cmap_init
JHc:__ZN8JSONRead8TransferI9BoundsIntEEvRT_PKc17TransferMetaFlagsb
La:invoke_viidi
IPi:_Array_Sort_TisOrderBlock_t1585977831_m2922111197_gshared
WAd:_Graphic_OnRectTransformDimensionsChange_m3695755375
qFd:_SByte_System_IConvertible_ToChar_m1489191771_AdjustorThunk
_I:__ZN9AudioClip7CleanupEv
eph:__Z76RuntimeInvoker_Void_t1185182177_Int32_t2950945753_PlayableBinding_t354260709PFvvEPK10MethodInfoPvPS4_
PJf:_Interval_t1802865632_marshal_pinvoke_cleanup
CMj:__ZNK15dense_hashtableINSt3__24pairIK10KeyWrapperIP11Il2CppClassES4_EES5_N6il2cpp8metadata16SZArrayClassHashEN14dense_hash_mapIS5_S4_SA_NS5_14EqualsComparerINS9_19SZArrayClassCompareEEENS0_9allocatorIS7_EEE9SelectKeyESE_SG_E12test_deletedEj
w3b:__ZN12LineRenderer18PrepareRenderNodesILb1EEEvR35RenderNodeQueuePrepareThreadContext
qBd:_Graphic_GraphicUpdateComplete_m1502194795
kGc:__Z18Transfer_BlittableI8JSONReadLb0EdEvRK29SerializationCommandArgumentsR31RuntimeSerializationCommandInfo
HMe:_SynchronizationAttribute_EnterContext_m1660729920
qkj:_Canvas_get_referencePixelsPerUnit_m3420541976
ICh:_ReadOnlyCollection_1_System_Collections_ICollection_get_SyncRoot_m2522539235_gshared
A3i:_Event_get_current_m2393892120
K9i:_VertexHelper_Clear_m627349662
STg:_DefaultComparer_Equals_m3688244916_gshared
nqa:__ZNK9GfxDevice13GetViewMatrixEv
TVd:_UnmanagedMemoryStream_Dispose_m2681886347
Sjb:__ZN17RemapPPtrTransferC2E24TransferInstructionFlagsb
Qee:_Convert_ToDecimal_m889385228
r1:__ZN8TypeTree8BlobReadERPKhS1_ib
wri:__ZL87Display_t1387065949_CustomAttributesCacheGenerator_Display_GetSystemExtImpl_m2808197389P21CustomAttributesCache
m2d:_Array_Reverse_m3714848183
qzd:_Dropdown_ClearOptions_m4085591601
vwd:_CanvasUpdateRegistry_InternalRegisterCanvasElementForGraphicRebuild_m3522560454
dRg:_KeyValuePair_2__ctor_m880186442_gshared
uib:__ZN18LoadSceneOperation23GetAllowSceneActivationEv
Jtc:_UNITY_png_set_bKGD
gTa:__ZN6CameraD0Ev
t2h:_Collection_1_System_Collections_IList_get_IsReadOnly_m2319019412_gshared
tga:__ZN31CanvasBatchIntermediateRenderer16StaticInitializeEPv
Ozh:_Collection_1_System_Collections_IList_IndexOf_m837396833_gshared
Fx:__ZN7mecanim12AndValueMaskILb0EEEvPKNS_14ValueArrayMaskEPS1_
Nhb:__ZN14SafeBinaryRead21TransferSTLStyleArrayINSt3__26vectorIi13stl_allocatorIiL18MemLabelIdentifier13ELi16EEEEEEvRT_17TransferMetaFlags
XAg:_EncoderFallback__cctor_m3806755293
gWe:_InternalEnumerator_1__ctor_m962177456_AdjustorThunk
Q7c:_raccess_guess_apple_double
OCa:__ZL18ProgramUniform1uivPK7ApiGLESjiihPKv
qac:__ZN14Texture2DArray13RebuildMipMapEv
jrj:__ZN13Il2CppHashSetIPK17Il2CppGenericInstN6il2cpp8metadata21Il2CppGenericInstHashENS4_24Il2CppGenericInstCompareENSt3__29allocatorI10KeyWrapperIS2_EEEEC2EjRKS5_RKS6_
$qb:__Z18Transfer_BlittableI14SafeBinaryReadLb1EaEvRK29SerializationCommandArgumentsR31RuntimeSerializationCommandInfo
IYj:__ZN6il2cpp2gc16GarbageCollector14RemoveWeakLinkEPPv
roa:__ZN9ShaderLab20SerializedSubProgram14AddVectorParamEPKcii15ShaderParamTypei
hWh:_List_1_GetEnumerator_m563931292_gshared
_nj:_Collision2D_t2842956331_marshal_pinvoke
xdd:__ZN2UI14CanvasRenderer12CleanupClassEv
wde:_Enumerator__ctor_m3362421874
Tgh:__Z117RuntimeInvoker_CSSSize_t3377836552_IntPtr_t_Single_t1397266774_Int32_t2950945753_Single_t1397266774_Int32_t2950945753PFvvEPK10MethodInfoPvPS4_
kok:_emscripten_glIsFramebuffer__wrapper
IVj:__ZN6il2cpp2vm6Object3BoxEP11Il2CppClassPv
qNj:__ZN6il2cpp2vm6Thread7SetNameEP12Il2CppThreadP12Il2CppString
RIb:__ZN13ScreenManager18SetAllowCursorLockEb
vT:__ZN11UnityEngine15CloudWebService10RestClientINS0_23WebRequestRestHeaderMapEE16SetRequestHeaderERKN4core12basic_stringIcNS4_20StringStorageDefaultIcEEEESA_
Shb:__ZN30RuntimeInitializeOnLoadManager15ClassMethodInfo8TransferI14SafeBinaryReadEEvRT_
sNe:_ConstructionCall_InitDictionary_m2824447813
iue:_TargetException__ctor_m3701535709
Qmh:__Z86RuntimeInvoker_Int32_t2950945753_Vector3_t3722313464_Vector3_t3722313464_RuntimeObjectPFvvEPK10MethodInfoPvPS4_
WP:__ZL22InitializeModule_Audiov
Rob:__ZN16MemoryFileSystem8IsLockedERK13FileEntryData
ZOj:__ZN6il2cpp6icalls8mscorlib6System2IO6MonoIO5WriteEiP11Il2CppArrayiiPi
aqg:_Mathf_InverseLerp_m4155825980
U6g:__Z92RuntimeInvoker_RuntimeObject_RuntimeObject_RuntimeObject_SByte_t1669577662_SByte_t1669577662PFvvEPK10MethodInfoPvPS4_
jl:_emscripten_glBindRenderbuffer
VTh:_List_1_System_Collections_IList_Insert_m1011775503_gshared
V2j:_GC_dirty_init
$Sj:__ZN6il2cpp2vm5Image33GetCachedMemoryMappedResourceFileEP24Il2CppReflectionAssembly
uVj:__ZN6il2cpp2vm5Field14GetValueObjectEP9FieldInfoP12Il2CppObject
Vcd:__ZNK2UI6Canvas16GetTargetDisplayEv
Slh:__Z69RuntimeInvoker_Void_t1185182177_Int32_t2950945753_Vector2_t2156229523PFvvEPK10MethodInfoPvPS4_
KHg:_TimeSpan_CompareTo_m3633415627_AdjustorThunk
iea:__ZN6Object17FindObjectsOfTypeEPKN5Unity4TypeER13dynamic_arrayIPS_Lj4EEb
kec:__ZNSt3__26vectorINS_4pairIiiEE13stl_allocatorIS2_L18MemLabelIdentifier1ELi16EEE21__push_back_slow_pathIKS2_EEvRT_
ZDc:__ZN9JSONWrite8TransferI4PPtrI9Texture2DEEEvRT_PKc17TransferMetaFlags
ouh:_Collection_1_Remove_m3611142372_gshared
bGb:__ZN13MonoBehaviour17RemoveFromManagerEv
Yzg:_Vector3_get_Item_m668685504_AdjustorThunk
NTa:__ZN12ImageFilters14AddImageFilterERK11ImageFilter
Jre:_MonoEventInfo_GetEventInfo_m873645389
ELe:_Context_NotifyDynamicSinks_m1841702879
a4i:_GUIUtility_get_pixelsPerPoint_m2369948084
SPf:_WindowsIdentity_System_Runtime_Serialization_IDeserializationCallback_OnDeserialization_m3428853631
KW:__ZN13MemoryManagerC2Ev
HGa:__ZN12SkinMeshInfo10DeallocateEPS_
Zrj:__ZNK15dense_hashtableINSt3__24pairIK10KeyWrapperIPKcEP11Il2CppClassEES5_N6il2cpp5utils11StringUtils12StringHasherIS4_EEN14dense_hash_mapIS5_S8_SE_NS5_14EqualsComparerINSB_13VmStringUtils21CaseSensitiveComparerEEENS0_9allocatorIS9_EEE9SelectKeyESJ_SL_E8min_sizeEjj
wof:_ScrollRect_SetDirty_m214267968
qQa:__ZN20ArchiveStorageReader28AcquireAndPrefillUnusedBlockEjPNS_11CacheResultE
S3d:_Boolean_System_IConvertible_ToDateTime_m603510836
kac:__Z12NHxRoughnessIA4_tEvP9Texture2DPT_iiii
gwf:_ASN1_get_Value_m1857007406
Dgj:__ZL25UnresolvedVirtualCall_105P12Il2CppObjecthPK10MethodInfo
Cea:__ZN18AsyncUploadManagerD2Ev
tmb:__ZN9Transform5ResetEv
z$f:_Decimal_op_Explicit_m1842265407
Lxb:__Z22TransferField_NonArrayI24GenerateTypeTreeTransfer16Converter_StringEvRK23StaticTransferFieldInfoR31RuntimeSerializationCommandInfoRT0_
Hji:__ZL52Activator_t1841325713_CustomAttributesCacheGeneratorP21CustomAttributesCache
zZc:_UNITY_FT_CMap_New
WVe:_InternalEnumerator_1_get_Current_m4241643334_AdjustorThunk
ZUe:_InternalEnumerator_1_MoveNext_m154749640_AdjustorThunk
KIb:__Z17MainLoopKeepalivePv
yJi:__ZL62Slider_t3903728902_CustomAttributesCacheGenerator_m_HandleRectP21CustomAttributesCache
Wsj:__ZN15dense_hashtableI10KeyWrapperIPK17Il2CppGenericInstES4_N6il2cpp8metadata21Il2CppGenericInstHashEN14dense_hash_setIS4_S7_NS4_14EqualsComparerINS6_24Il2CppGenericInstCompareEEENSt3__29allocatorIS4_EEE8IdentityESB_SE_E12expand_arrayEjN21dense_hash_map_traits17integral_constantIbLb0EEE
k0e:_InternalEnumerator_1_get_Current_m1588647567_AdjustorThunk
Y8j:_printf_core
udi:__ZL51GCHandle_t3351438187_CustomAttributesCacheGeneratorP21CustomAttributesCache
QXb:__Z14CalcHullBoundsPK8Vector3fPKhhRK5PlaneRK10Matrix4x4fR10MinMaxAABB
yff:_InputField_get_caretBlinkRate_m3620074524
lkb:__ZN11PreloadData39ShouldIgnoreInGarbageDependencyTrackingEv
IQb:__Z19SetupLODFadeKeywordR17ShaderPassContexti
OLf:_RSAPKCS1SignatureFormatter_CreateSignature_m3191980616
i0a:__ZN10builtintex16GetDefaultTexEnvE16TextureDimensionb
jGa:__ZL25CheckCopyTextureArgumentsRK7ApiGLESP11GLESTextureS3_
m0e:_InternalEnumerator_1__ctor_m362401472_AdjustorThunk
iUh:_List_1_AsReadOnly_m2400800347_gshared
Zmk:_glDeleteShader__wrapper
ixb:__Z29Transfer_Blittable_ArrayFieldI24GenerateTypeTreeTransferyEvRT_R9ArrayInfoRK23StaticTransferFieldInfo
cNg:_ValueType_Equals_m1524437845
zvi:__ZL71RuntimePlatform_t4159857903_CustomAttributesCacheGenerator_OSXWebPlayerP21CustomAttributesCache
LJ:__ZN4FMOD7SystemI9playSoundE17FMOD_CHANNELINDEXPNS_5SoundEbPPNS_7ChannelE
tkh:__Z123RuntimeInvoker_RuntimeObject_Ray_t3785851493_RuntimeObject_Single_t1397266774_Int32_t2950945753_RuntimeObject_RuntimeObjectPFvvEPK10MethodInfoPvPS4_
gOd:_Int64_GetHashCode_m703091690
g5f:_CultureInfo_set_DateTimeFormat_m1843682751
wYi:_X509CrlEntry_get_RevocationDate_m606796547
t3i:_Event_get_commandName_m4275147343
Ex:__ZN27AnimationLayerMixerPlayable17LayerMixerProcessEP35AnimationPlayableEvaluationConstantP32AnimationPlayableEvaluationInputP33AnimationPlayableEvaluationOutputM17AnimationPlayableFvS1_S3_S5_EMS_FvS1_S3_S5_ESA_MS_FvS5_S1_S3_S5_ifE
G$f:_Decimal_op_Implicit_m4256234411
kI:__ZN12AudioManager23VirtualRedirectTransferER18StreamedBinaryReadILb0EE
v3g:__Z60RuntimeInvoker_RuntimeObject_RuntimeObject_Int16_t2552820387PFvvEPK10MethodInfoPvPS4_
Uab:__ZN10VertexData13SwapEndianessEv
KTd:_StreamReader__ctor_m3941437302
iqc:__Z57Register_UnityEngine_Transform_INTERNAL_get_localRotationv
BCf:_IPv6Address_get_Address_m1389170741
Fhb:__ZN30RuntimeInitializeOnLoadManager23VirtualRedirectTransferER17RemapPPtrTransfer
ufk:dynCall_viif
Aie:_AssemblyName_get_Flags_m1616840602
Is:__ZN7mecanim4hand8HandPoseC2Ev
wti:__ZL86Material_t340375123_CustomAttributesCacheGenerator_Material_DisableKeyword_m1245091008P21CustomAttributesCache
DUd:_StringReader_ReadLine_m2337102945
Qub:__ZL26Transfer_SimpleNativeClassI17RemapPPtrTransfer8GradientLb0EEvRK29SerializationCommandArgumentsR31RuntimeSerializationCommandInfo
rce:_SyncHashtable_Add_m3016107307
pz:__ZN17AnimationPlayable26DisconnectNoTopologyChangeEPS_i
z4d:_Boolean_Equals_m2410333903_AdjustorThunk
r_h:_List_1_System_Collections_IList_Contains_m2131605266_gshared
$fi:__ZL61ISurrogateSelector_t3040401154_CustomAttributesCacheGeneratorP21CustomAttributesCache
X$h:_List_1_ToArray_m1990123684_gshared
qU:__ZN13UploadHandlerD2Ev
Ldk:dynCall_viiiiiffi
Jc:_emscripten_glBlendFuncSeparate
pwh:_Collection_1_Add_m809543251_gshared
l$:__Z20scripting_string_newPKc
zoc:__Z43Material_CUSTOM_Internal_CreateWithMaterialP12Il2CppObjectS0_
C1i:_Parser_IsSingleline_m326238187
vae:_CollectionBase_get_Count_m1708965601
eId:_HMAC__ctor_m97939284
vEh:_ReadOnlyCollection_1_System_Collections_IList_get_Item_m1005238747_gshared
Rli:__ZL49DBNull_t3725197148_CustomAttributesCacheGeneratorP21CustomAttributesCache
bNg:_ValueType_DefaultEquals_m2927252100
PBc:__ZN9JSONWrite12AppendToNodeEPN5Unity9rapidjson12GenericValueINS1_4UTF8IcEE13JSONAllocatorEEPKcRS6_
nwf:_ASN1_ToString_m1340204511
HFf:_X509ChainElementEnumerator_get_Current_m1301774989
mMc:__ZN16PhysicsManager2D20GetRigidBodyVelocityERK11Rigidbody2D
jGf:_X509Store_get_Certificates_m2149701265
zSg:_DefaultComparer_GetHashCode_m2865442331_gshared
hJg:_Type_GetField_m2961003358
EFi:__ZL144StandaloneInputModule_t2760469101_CustomAttributesCacheGenerator_StandaloneInputModule_t2760469101____allowActivationOnMobileDevice_PropertyInfoP21CustomAttributesCache
RCg:_StringBuilder_set_Chars_m3548656617
lAj:__ZN6il2cpp2os4File17GetFileAttributesERKNSt3__212basic_stringIcNS2_11char_traitsIcEENS2_9allocatorIcEEEEPi
Anh:__Z59RuntimeInvoker_Int32_t2950945753_X509ChainStatus_t133602714PFvvEPK10MethodInfoPvPS4_
uC:__ZNSt3__26__sortIRPFbPKN8Animator11AnimatorJobES4_EPS4_EEvT0_S9_T_
pH:__ZN17AudioCustomFilterD2Ev
szc:__ZN11IMGUIModule26SetDeveloperConsoleVisibleEb
goh:__Z56RuntimeInvoker_Void_t1185182177_MonoResource_t4103430009PFvvEPK10MethodInfoPvPS4_
Amb:__ZN9Transform16ResetReplacementEv
O0j:_GC_unpromote_black_lists
M9h:__ZL64DebuggerBrowsableState_t747501856_CustomAttributesCacheGeneratorP21CustomAttributesCache
AEa:__ZN18GfxFramebufferGLES18ReleaseFramebufferEP17RenderSurfaceBaseP14GfxContextGLES
aFc:__Z18Transfer_BlittableI8JSONReadLb1EiEvRK29SerializationCommandArgumentsR31RuntimeSerializationCommandInfo
YUd:_TextReader_Dispose_m4253712522
JV:__ZN19CloudServiceHandler34HandleSaveFileWebRequestPlayerLoopEv
vni:__ZL82BigInteger_t2902905090_CustomAttributesCacheGenerator_BigInteger__ctor_m2474659844P21CustomAttributesCache
bz:__ZN7mecanim21ValueArrayReverseCopyEPKNS_18ValueArrayConstantEPKNS_10ValueArrayES2_PS3_PKi
ZG:__Z31GetParentSampleClipFromInstancePN11SoundHandle8InstanceE
XTi:_InternalAsyncResult_get_BytesRead_m3975435112
w8b:__ZNK28RectTransformPropertyBinding13GetFloatValueERKN11UnityEngine9Animation10BoundCurveE
b_b:__ZN6Camera22StandaloneCustomRenderENS_10RenderFlagEP6ShaderRKN4core12basic_stringIcNS3_20StringStorageDefaultIcEEEEPNS_21PerformRenderFunctionE
Ocg:_Array_InternalArray__IndexOf_TisKeyValuePair_2_t2401056908_m4118889689_gshared
ihb:__ZNSt3__26vectorI4PPtrI6ObjectE13stl_allocatorIS3_L18MemLabelIdentifier52ELi16EEE6assignINS_11__wrap_iterIPS3_EEEENS_9enable_ifIXaasr21__is_forward_iteratorIT_EE5valuesr16is_constructibleIS3_NS_15iterator_traitsISD_E9referenceEEE5valueEvE4typeESD_SD_
DAh:_Collection_1_System_Collections_ICollection_get_IsSynchronized_m500240145_gshared
Moi:__ZL68X509CertificateCollection_t3399372417_CustomAttributesCacheGeneratorP21CustomAttributesCache
L7j:__ZN6il2cpp2os16ThreadLocalValue8GetValueEPPv
mFf:_X509Certificate2_get_PublicKey_m370665820
MWc:_cff_slot_init
Cvj:__ZN6il2cpp2vm13MetadataCache14GetGenericInstEPKPK10Il2CppTypej
ZP:__ZN13AudioListener17ReadExtensionNameEi
Tb:invoke_iiidii
Qth:_Collection_1_System_Collections_Generic_ICollectionU3CTU3E_get_IsReadOnly_m1419845799_gshared
O7i:_U3CTimedTriggerU3Ec__Iterator0_System_Collections_Generic_IEnumeratorU3CobjectU3E_get_Current_m3822291412
EP:__ZN9AudioClip15InitializeClassEv
yp:setThrew
MPe:_SoapMethodAttribute_get_XmlNamespace_m4029617514
bac:__ZL21BuildEmptyCubeTexturePKci11ColorRGBA3217TextureColorSpace
dqi:__ZL106AsyncOperation_t1445031843_CustomAttributesCacheGenerator_AsyncOperation_InvokeCompletionEvent_m1410305036P21CustomAttributesCache
Fwg:_SelectionBaseAttribute__ctor_m2749097321
Xia:__ZN14SafeBinaryRead21TransferSTLStyleArrayINSt3__26vectorIN9ShaderLab20SerializedSubProgramENS1_9allocatorIS4_EEEEEEvRT_17TransferMetaFlags
ldg:_Array_InternalArray__IndexOf_TisX509ChainStatus_t133602714_m48896230_gshared
VOa:__ZN19dynamic_block_arrayI13FileEntryInfoLj32EE4growEj
jFc:__Z15Transfer_StringI8JSONReadLb1EEvRK29SerializationCommandArgumentsR31RuntimeSerializationCommandInfo
jBa:__ZN6prcoreL17RemapGenericFloatI17TexFormatRGBFloat15TexFormatRGHalfEEvPKNS_9InnerInfoE
Fei:__ZL63IContributeEnvoySink_t2817847987_CustomAttributesCacheGeneratorP21CustomAttributesCache
T$c:_sfnt_load_face
n7c:_UNITY_FT_Render_Glyph_Internal
RPj:__ZNSt3__212basic_stringIDsNS_11char_traitsIDsEENS_9allocatorIDsEEE21__grow_by_and_replaceEjjjjjjPKDs
TZc:_UNITY_ft_service_list_lookup
Jub:__Z18Transfer_BlittableI17RemapPPtrTransferLb1E11ColorRGBA32EvRK29SerializationCommandArgumentsR31RuntimeSerializationCommandInfo
Ryc:__ZN5IMGUI21SelectReceivingWindowER8GUIStateb
uId:_HMAC_Initialize_m3157696427
_Ya:__ZN4PPtrI5LightE8TransferI14SafeBinaryReadEEvRT_
_9j:___strchrnul
wYh:_List_1_System_Collections_ICollection_CopyTo_m3643417403_gshared
jW:__ZN13BaseAllocator13TryDeallocateEPv
Ozb:__Z29Transfer_Blittable_ArrayFieldI19StreamedBinaryWriteILb0EEfEvRT_R9ArrayInfoRK23StaticTransferFieldInfo
Zcj:_ListPool_1_Release_m1363449253_gshared
fEf:_X509SubjectKeyIdentifierExtension__ctor_m2055934916
J$g:_Enumerator_Dispose_m2531396701_AdjustorThunk
zob:__ZN16MemoryFileSystem5WriteER13FileEntryDatayPvPy
XUa:__ZNSt3__26vectorIN12FlareManager10FlareEntryENS_9allocatorIS2_EEE21__push_back_slow_pathIKS2_EEvRT_
U8j:_sprintf
exi:__ZL67NativeContainerAttribute_t2600515814_CustomAttributesCacheGeneratorP21CustomAttributesCache
gjc:__ZN9Scripting25CreateNullExceptionObjectE18ScriptingObjectPtr
qyf:_PrivateKeyInfo_DecodeRSA_m2889346634
TH:__ZN13AudioListener17RemoveFromManagerEv
Dd:_glAttachShader
txd:_ContentSizeFitter_SetLayoutHorizontal_m2833273874
xBh:_ReadOnlyCollection_1_System_Collections_IList_RemoveAt_m134366701_gshared
RY:__ZNK6Camera19GetProjectionMatrixEv
QHi:__ZL70InputField_t3762917431_CustomAttributesCacheGenerator_m_SelectionColorP21CustomAttributesCache
_ff:_InputField_SetToCustomIfContentTypeIsNot_m2813459946
m0g:__Z49RuntimeInvoker_DateTime_t3738529785_RuntimeObjectPFvvEPK10MethodInfoPvPS4_
Fvi:__ZL70RuntimePlatform_t4159857903_CustomAttributesCacheGenerator_FlashPlayerP21CustomAttributesCache
_6f:_Guid_GetHashCode_m3042133858_AdjustorThunk
M_:__Z38PreallocateObjectFromPersistentManagerib
j3i:_Event_t2956885303_marshal_pinvoke_cleanup
lQf:_SecurityException_get_FirstPermissionThatFailed_m3934559164
eJf:_Interpreter_Backtrack_m2828876822
O3a:__ZNK9Texture2D20GetUnscaledTextureIDEv
Ebi:__ZL103TypeBuilder_t1073948154_CustomAttributesCacheGenerator_TypeBuilder_DefineDefaultConstructor_m2168449784P21CustomAttributesCache
GFd:_SByte_System_IConvertible_ToType_m4075253447
rzf:_StrongName_get_PublicKey_m1841537984
nlk:_glFenceSync__wrapper
_oj:__ZNK15dense_hashtableINSt3__24pairIK10KeyWrapperIPK22Il2CppGenericParameterEP11Il2CppClassEES6_N6il2cpp5utils11PointerHashIS4_EEN14dense_hash_mapIS6_S9_SE_NS6_14EqualsComparerINS0_8equal_toIS5_EEEENS0_9allocatorISA_EEE9SelectKeyESJ_SL_E8min_sizeEjj
Wyg:_Transform_INTERNAL_get_worldToLocalMatrix_m2730237241
ohf:_InputField_IsValidChar_m1928072643
uoh:__Z51RuntimeInvoker_Void_t1185182177_HitInfo_t3229609740PFvvEPK10MethodInfoPvPS4_
T3a:__ZNK9Texture2D26CanReuploadDataToGfxDeviceEv
MEb:__ZN18StreamedBinaryReadILb0EE21TransferSTLStyleArrayI13dynamic_arrayI4AABBLj4EEEEvRT_17TransferMetaFlags
Xhi:__ZL63CodeAccessPermission_t2681295399_CustomAttributesCacheGeneratorP21CustomAttributesCache
ejb:__Z29ClearRepeatingLogMessageStatev
x_e:_InternalEnumerator_1_get_Current_m3191242573_gshared
C5d:_Byte_Equals_m1161982810_AdjustorThunk
Mnh:__Z53RuntimeInvoker_Int32_t2950945753_UICharInfo_t75501106PFvvEPK10MethodInfoPvPS4_
hxc:__ZL35LoadMemoryBufferIntoTextureInternalR9Texture2DPKhj20LoadImageCompressionb
H8b:__ZN15QualitySettings12CleanupClassEv
XGe:_SslCipherSuite_ComputeMasterSecret_m3963626850
R0e:_InternalEnumerator_1_System_Collections_IEnumerator_Reset_m500203932_AdjustorThunk
z$h:_List_1_GrowIfNeeded_m278824317_gshared
DKa:__ZN7ApiGLESD2Ev
thj:__ZL25UnresolvedVirtualCall_149P12Il2CppObject22Navigation_t3049316579S1_PK10MethodInfo
cSa:__ZN9Transform47ClearTransformHierarchyAndApplyToSerializedDataEv
yoc:__Z41Material_CUSTOM_Internal_CreateWithShaderP12Il2CppObjectS0_
$Od:_IntPtr_op_Explicit_m536245531
mTa:__ZN6Camera23VirtualRedirectTransferER19StreamedBinaryWriteILb0EE
Lfk:dynCall_fidi
fDj:__ZN15dense_hashtableINSt3__24pairIK10KeyWrapperINS1_IPK9FieldInfoP11Il2CppClassEEEjEES9_17ReflectionMapHashIS8_EN14dense_hash_mapIS9_jSD_NS9_14EqualsComparerINS0_8equal_toIS8_EEEENS0_9allocatorISB_EEE9SelectKeyESI_SK_E12resize_deltaEjj
CUh:_List_1_TrimExcess_m3433550210_gshared
L5h:__ZL63IntPtr_t_CustomAttributesCacheGenerator_IntPtr__ctor_m987082960P21CustomAttributesCache
xsj:__ZNK15dense_hashtableINSt3__24pairIK10KeyWrapperIPK19Il2CppGenericMethodEPK26Il2CppGenericMethodIndicesEES6_N6il2cpp8metadata23Il2CppGenericMethodHashEN14dense_hash_mapIS6_SA_SE_NS6_14EqualsComparerINSD_26Il2CppGenericMethodCompareEEENS0_9allocatorISB_EEE9SelectKeyESI_SK_E8min_sizeEjj
Cei:__ZL58IContextProperty_t840037424_CustomAttributesCacheGeneratorP21CustomAttributesCache
l4i:_GUILayoutEntry__ctor_m2229197035
PU:__ZN11UnityEngine15CloudWebService14RestDownloaderD2Ev
zle:_EnumBuilder_get_Assembly_m1175292766
_0b:__Z29StdTemplateConversionFunctionIjhEbPvR14SafeBinaryRead
X4:__ZN15dense_hashtableINSt3__24pairIKN9ShaderLab7Program23ShaderKeywordSetAndHashEPKNS2_10SubProgramEEES4_NS3_24ShaderKeywordHashFunctorEN14dense_hash_mapIS4_S8_SA_NS0_8equal_toIS4_EE13stl_allocatorIS9_L18MemLabelIdentifier67ELi16EEE9SelectKeyESD_SG_E15insert_noresizeERKS9_
oQi:_Array_swap_TisCustomAttributeNamedArgument_t287865710_TisCustomAttributeNamedArgument_t287865710_m881919420_gshared
$vg:_Renderer_set_material_m1157964140
j_a:__ZN13RenderTexture12SetDimensionE16TextureDimension
nHe:_SslClientStream_set_ClientCertSelectionDelegate_m1261530976
te:_SDL_FreeRW
hEi:__ZL109ExecuteEvents_t3484638744_CustomAttributesCacheGenerator_ExecuteEvents_U3Cs_HandlerListPoolU3Em__0_m391641698P21CustomAttributesCache
Uoh:__Z79RuntimeInvoker_Void_t1185182177_Int32_t2950945753_ParameterModifier_t1461694466PFvvEPK10MethodInfoPvPS4_
ied:__Z34CanvasRenderer_Get_Custom_PropCullP12Il2CppObject
FN:__ZN20SoundChannelInstance8getDelayE14FMOD_DELAYTYPEPjS1_
l5j:__ZNSt3__26__treeINS_12__value_typeIPvxEENS_19__map_value_compareIS2_S3_NS_4lessIS2_EELb1EEENS_9allocatorIS3_EEE12__find_equalIS2_EERPNS_16__tree_node_baseIS2_EESF_RKT_
m5:__ZNSt3__26vectorIN20GpuProgramParameters15StructParameterENS_9allocatorIS2_EEEC2ERKS5_
$Te:_ArrayReadOnlyList_1_Contains_m232667507_gshared
k9g:__Z77RuntimeInvoker_Boolean_t97287965_IntPtr_t_Int32_t2950945753_SByte_t1669577662PFvvEPK10MethodInfoPvPS4_
Fsg:_PlayableHandle_GetPlayableType_m432385838_AdjustorThunk
c6c:__ZNSt3__26vectorIN20TextRenderingPrivate8FontImpl13CharacterInfoE13stl_allocatorIS3_L18MemLabelIdentifier1ELi16EEE8__appendEj
v:tempBigInt
$gg:_Array_InternalArray__Insert_TisKeyframe_t4206410242_m1558638568_gshared
gki:__ZL77Convert_t2465617642_CustomAttributesCacheGenerator_Convert_ToByte_m3567528984P21CustomAttributesCache
Be:_emscripten_glVertexAttrib1fv
Eja:__ZNSt3__26vectorIN9ShaderLab20SerializedSubProgram12UAVParameterENS_9allocatorIS3_EEE7reserveEj
Dck:__ZSt11__terminatePFvvE
jK:__ZN12AudioManager14systemCallbackEP11FMOD_SYSTEM24FMOD_SYSTEM_CALLBACKTYPEPvS3_
vxi:__ZL57PlayableOutput_t3179894105_CustomAttributesCacheGeneratorP21CustomAttributesCache
nGh:_ReadOnlyCollection_1_System_Collections_Generic_ICollectionU3CTU3E_Clear_m3451551308_gshared
evd:_BaseMeshEffect_OnEnable_m3291426649
$jg:_ClassLibraryInitializer_Init_m988673678
SF:__ZN10SampleClip23VirtualRedirectTransferER24GenerateTypeTreeTransfer
vZa:__ZN16ReflectionProbes16UpdateSampleDataEv
Uxi:__ZL90PlayerEditorConnectionEvents_t3411787513_CustomAttributesCacheGenerator_disconnectionEventP21CustomAttributesCache
o5f:_CultureInfo_GetCultureInfo_m56098747
d9a:__ZN14Texture2DArray5ResetEv
eXb:__Z20AddActiveLocalLightsR11CullResultsR27LocalLightCullingParametersPPK15SharedLightDataPK8Vector4fRK9IndexListPfRSA_R12ActiveLightsSG_P5RectTIfEP13TargetEyeMask
n9h:__ZL80Hashtable_t1853889766_CustomAttributesCacheGenerator_Hashtable__ctor_m1763145853P21CustomAttributesCache
Lee:_Convert_ToDecimal_m1284148187
iyh:_Collection_1__ctor_m3489157029_gshared
Oik:_emscripten_glRenderbufferStorage__wrapper
rBj:__ZNK6il2cpp2vm14TypeNameParser10NextWillBeEcb
nXc:_cf2_getNormalizedVector
Ye:_JS_Sound_Play
eaf:_KeyCollection_GetEnumerator_m1862005650_gshared
ijd:__Z26GetUnityConnectSettingsPtrv
kHh:_ReadOnlyCollection_1_System_Collections_IList_set_Item_m1538987737_gshared
jia:__ZN9ShaderLab16SerializedShader8TransferI14SafeBinaryReadEEvRT_
yMa:__ZN5Mutex7TryLockEv
tCd:_GridLayoutGroup_set_constraint_m3308895167
xzi:__ZL103AudioSource_t3935305588_CustomAttributesCacheGenerator_AudioSource_ReadExtensionPropertyValue_m72717540P21CustomAttributesCache
LNe:_ConstructionCallDictionary_SetMethodProperty_m3145285304
_Md:_Int32_System_IConvertible_ToUInt32_m3557270157
fch:__Z243RuntimeInvoker_Void_t1185182177_Int16_t2552820387_RuntimeObject_Int32_t2950945753_Int32_t2950945753_Int32_t2950945753_SByte_t1669577662_SByte_t1669577662_SByte_t1669577662_SByte_t1669577662_Int16_t2552820387_SByte_t1669577662_SByte_t1669577662PFvvEPK10MethodInfoPvPS4_
UUe:_InternalEnumerator_1_System_Collections_IEnumerator_get_Current_m1503522504_gshared
OB:__ZN7mecanim8skeleton13SkeletonAlignEPKNS0_8SkeletonERKN4math7_float4ES7_i
Vac:__ZN19ShaderPropertySheet16SetVectorIndexedEN9ShaderLab16FastPropertyNameEifRK8Vector4fNS_8SetFlagsE
CIg:_Type_get_IsAbstract_m1120089130
cAg:_Vector3_get_normalized_m2454957984_AdjustorThunk
Fq:__ZN14SafeBinaryRead21TransferSTLStyleArrayIN4core12basic_stringIcNS1_20StringStorageDefaultIcEEEEEEvRT_17TransferMetaFlags
$2i:_UriFormatException__ctor_m1115096473
xYe:_InternalEnumerator_1_Dispose_m2818366163_AdjustorThunk
Iag:_Array_InternalArray__IEnumerable_GetEnumerator_TisSlot_t384495010_m460993382_gshared
hti:__ZL114MonoBehaviour_t3962482529_CustomAttributesCacheGenerator_MonoBehaviour_StopCoroutineViaEnumerator_Auto_m3883784228P21CustomAttributesCache
pLj:__ZN15dense_hashtableINSt3__24pairIK10KeyWrapperINS1_IP11Il2CppClassjEEES4_EES6_N6il2cpp8metadata14ArrayClassHashEN14dense_hash_mapIS6_S4_SB_NS6_14EqualsComparerINSA_17ArrayClassCompareEEENS0_9allocatorIS8_EEE9SelectKeyESF_SH_E9copy_fromERKSK_j
C1b:__Z29StdTemplateConversionFunctionIayEbPvR14SafeBinaryRead
dFg:_WaitHandle__ctor_m1707080176
wfe:_Convert_ToInt32_m1085744762
Ksh:__Z55RuntimeInvoker_Boolean_t97287965_Nullable_1_t2603721331PFvvEPK10MethodInfoPvPS4_
W5i:_GUIUtility_IsExitGUIException_m3644066650
qV:__ZN11UnityEngine15CloudWebService14DataDispatcher4StopEv
gxd:_ColorBlock_GetHashCode_m4264192507
PKd:_Int16_System_IConvertible_ToUInt64_m134975563
Gja:__ZNSt3__26vectorIN9ShaderLab20SerializedSubProgram12UAVParameterENS_9allocatorIS3_EEE8__appendEj
Sci:__ZL68TargetInvocationException_t4266643902_CustomAttributesCacheGeneratorP21CustomAttributesCache
MGj:__ZNK15dense_hashtableINSt3__24pairIK10KeyWrapperINS1_IPK9EventInfoP11Il2CppClassEEEjEES9_17ReflectionMapHashIS8_EN14dense_hash_mapIS9_jSD_NS9_14EqualsComparerINS0_8equal_toIS8_EEEENS0_9allocatorISB_EEE9SelectKeyESI_SK_E12test_deletedERK24dense_hashtable_iteratorISB_S9_SD_SM_SI_SK_E
Jyc:__ZN5IMGUI9GUIWindow5OnGUIER8GUIState
Bej:_AudioConfigurationChangeHandler_EndInvoke_m4175380841
XQf:_Single_System_IConvertible_ToDecimal_m325860800_AdjustorThunk
Kfg:_Array_InternalArray__ICollection_CopyTo_TisSingle_t1397266774_m455540885_gshared
RNa:__ZN17ScriptingGCHandle7AcquireE18ScriptingObjectPtr25ScriptingGCHandleWeakness
baf:_KeyCollection_System_Collections_ICollection_get_IsSynchronized_m829086683_gshared
ybh:__Z74RuntimeInvoker_RuntimeObject_RuntimeObject_Int64_t3736567304_RuntimeObjectPFvvEPK10MethodInfoPvPS4_
dcd:__ZN2UI14CanvasRenderer14AttachToCanvasER8JobFencePNS_6CanvasENS0_15InstructionTypeE
rdf:_Enumerator__ctor_m1734342590_gshared
Cek:dynCall_iifiii
Gdh:__Z85RuntimeInvoker_Int32_t2950945753_RuntimeObject_Int32U26_t1369213839_Int32_t2950945753PFvvEPK10MethodInfoPvPS4_
jza:__Z21HasAlphaTextureFormat13TextureFormat
oP:__ZN12AudioManager6UpdateEv
cza:__ZN14ImageReference9BlitImageERKS_NS_8BlitModeE
qt:__ZN8Animator12AddToManagerEv
xWd:_MissingFieldException__ctor_m3742452630
aHf:_X509Chain__ctor_m2674663382
oGh:_ReadOnlyCollection_1_System_Collections_Generic_IListU3CTU3E_Insert_m1121807192_gshared
XGb:__ZN23CachedSerializationDataD2Ev
bZb:__ZNK25CameraStackRenderingState31CalculateStereoCameraTargetTypeEv
XYa:__ZN14RenderSettings23VirtualRedirectTransferER14SafeBinaryRead
F1e:_InternalEnumerator_1_get_Current_m114240259_gshared
OOc:__ZNK13b2CircleShape5CloneEP16b2BlockAllocator
JXj:__ZN6il2cpp2os10ThreadImpl15CurrentThreadIdEv
jhg:_Array_InternalArray__Insert_TisVector2_t2156229523_m2148694950_gshared
yWa:__ZN17GlobalGameManager8TransferI17RemapPPtrTransferEEvRT_
KMi:__ZL73FieldWithTarget_t3058750293_CustomAttributesCacheGenerator_m_StaticStringP21CustomAttributesCache
nNf:_SymmetricAlgorithm_get_Key_m3241860519
sif:_U3CMouseDragOutsideRectU3Ec__Iterator1_Reset_m2233410497
Kff:_InputField_set_customCaretColor_m720445789
DYa:__ZN16LevelGameManager8TransferI18StreamedBinaryReadILb0EEEEvRT_
N3c:_UNITY_tt_face_load_fpgm
YRa:__Z17IsObjectAvailablei
neb:__ZN12InputManagerD0Ev
L1h:_Queue_1_Peek_m1713833142_gshared
Mgi:__ZL64DSASignatureFormatter_t2007981259_CustomAttributesCacheGeneratorP21CustomAttributesCache
nFg:_ExecutionContext_Capture_m681135907
CRg:_Dictionary_2_System_Collections_IDictionary_Add_m4011968134_gshared
pDb:__Z18Transfer_BlittableI18StreamedBinaryReadILb0EELb1EtEvRK29SerializationCommandArgumentsR31RuntimeSerializationCommandInfo
kWe:_InternalEnumerator_1_System_Collections_IEnumerator_get_Current_m2889979481_AdjustorThunk
xbk:_posix_memalign
Lvc:_jsimd_can_h2v1_fancy_upsample
Rtg:_Rect_get_position_m2115952571
uui:__ZL90SceneManager_t2787271929_CustomAttributesCacheGenerator_SceneManager_LoadScene_m1758133949P21CustomAttributesCache
CEh:_ReadOnlyCollection_1_get_Item_m4005849861_gshared
wqf:_Slider_get_direction_m3871593184
kwf:_ASN1_GetBytes_m3305539297
R$h:_List_1_Remove_m2092116835_gshared
Lxi:__ZL86Logger_t274032455_CustomAttributesCacheGenerator_Logger_LogFormat_m3030796110____args2P21CustomAttributesCache
Lki:__ZL77Convert_t2465617642_CustomAttributesCacheGenerator_Convert_ToSByte_m717245755P21CustomAttributesCache
X3e:_DefaultComparer__ctor_m2039558311_gshared
Q_:__ZNK15MonoScriptCache7ReleaseEv
Wpj:__ZN6il2cpp2vm5Class13HasReferencesEP11Il2CppClass
l7d:_CLSCompliantAttribute__ctor_m581760440
lg:_glBindTexture
L9j:_snprintf
ePd:_InvalidCastException__ctor_m2551002860
Kih:__Z50RuntimeInvoker_RuntimeObject_Resources_t1597885468PFvvEPK10MethodInfoPvPS4_
ekk:_emscripten_glVertexAttrib1fv__wrapper
Eoh:__Z76RuntimeInvoker_Void_t1185182177_Int32_t2950945753_KeyValuePair_2_t2401056908PFvvEPK10MethodInfoPvPS4_
Ekb:__Z36scripting_liveness_calculation_begin17ScriptingClassPtriPFvPP12Il2CppObjectiPvES3_PFvvES7_
mej:_AudioExtensionManager_RemoveExtensionFromManager_m442924172
Cik:_emscripten_glGetProgramInfoLog__wrapper
nE:__ZN25AnimatedPropertyEvaluator29BindCurveToScriptingObjectPtrERKN13AnimationClip10FloatCurveEj18ScriptingObjectPtrb
Whi:__ZL80AllowPartiallyTrustedCallersAttribute_t1828959166_CustomAttributesCacheGeneratorP21CustomAttributesCache
M2h:_Collection_1_SetItem_m1090516645_gshared
FFi:__ZL52InputMode_t3382566315_CustomAttributesCacheGeneratorP21CustomAttributesCache
N0:__ZN17PersistentManager23DestroyFromFileInternalEi
Qlg:_Display__ctor_m501911701
YCh:_ReadOnlyCollection_1_System_Collections_Generic_IListU3CTU3E_Insert_m1020890112_gshared
dzd:_Dropdown_get_onValueChanged_m2462066659
ryd:_DefaultControls_SetDefaultTextValues_m1943359795
mSb:__Z19SetupMotionMatricesR6CameraR18RPDataMotionVector
Smj:__ZL7log2_64y
iD:__ZN26AnimatorControllerPlayable18PrepareForPlaybackERN7mecanim6memory9AllocatorE
GD:__ZN8Animator11AnimatorJob11AddPlayableEP17AnimationPlayablef
oCd:_GridLayoutGroup_get_cellSize_m2967185053
AVf:_CurrentSystemTimeZone_GetUtcOffset_m340358963
kWi:_PKCS12_Decrypt_m1280162536
nnj:_CustomEventData_AddChar_m2745147926
tWe:_InternalEnumerator_1_get_Current_m3081223448_gshared
D3i:_Event_get_isMouse_m1058251071
FXa:__ZN10VertexDataC2ERKS_17ShaderChannelMask10MemLabelId
bae:_CaseInsensitiveHashCodeProvider_AreEqual_m1790260777
l3h:_Collection_1_IndexOf_m3762683187_gshared
u_c:_otv_JSTF_validate
p5:__ZN22CreateGpuProgramOutputC2Ev
Txe:_BigInteger_op_LessThanOrEqual_m3925173639
$mg:_PersistentCallGroup_Initialize_m4253175514
R3d:_Boolean_System_IConvertible_ToChar_m4279513009_AdjustorThunk
pAf:_DictionaryNodeEnumerator__ctor_m1005316675
WNe:_LogicalCallContext__ctor_m1263247987
cMd:_NumberFormatter_ScaleOrder_m3813786990
CRh:_List_1_GetEnumerator_m239622569_gshared
DGi:__ZL60OptionData_t3270282352_CustomAttributesCacheGenerator_m_TextP21CustomAttributesCache
Pih:__Z43RuntimeInvoker_VerticalWrapMode_t2936607737PFvvEPK10MethodInfoPvPS4_
Wsc:_UNITY_png_set_text_2
ryf:_PrivateKeyInfo_DecodeDSA_m771724585
oki:__ZL81Convert_t2465617642_CustomAttributesCacheGenerator_Convert_ToDateTime_m1031474510P21CustomAttributesCache
yEj:__ZNK15dense_hashtableINSt3__24pairIK10KeyWrapperINS1_IPK10MethodInfoP11Il2CppClassEEEjEES9_17ReflectionMapHashIS8_EN14dense_hash_mapIS9_jSD_NS9_14EqualsComparerINS0_8equal_toIS8_EEEENS0_9allocatorISB_EEE9SelectKeyESI_SK_E23find_position_with_hashERSA_j
Ngd:__Z38CustomEventData_CUSTOM_InternalDestroyP12Il2CppObject
IDi:__ZL53EventHandle_t600343995_CustomAttributesCacheGeneratorP21CustomAttributesCache
Pbc:__ZN8GUILayer12CleanupClassEv
h9d:_SynchronizedArrayListWrapper_get_SyncRoot_m3862302789
RTh:_List_1_System_Collections_IEnumerable_GetEnumerator_m839737540_gshared
kLg:_UInt32_System_IConvertible_ToSByte_m1061556466
LKe:_WellKnownClientTypeEntry__ctor_m2471908952
Vpj:__ZN6il2cpp2vm5Class4InitEP11Il2CppClass
ha:invoke_vidi
x0a:__ZN8Material17MainThreadCleanupEv
PIe:_RemotingServices_CreateClientProxyForContextBound_m783705199
Qjh:__Z30RuntimeInvoker_Axis_t809944411PFvvEPK10MethodInfoPvPS4_
ugc:__ZNK15GUIEventManager15GetEventAtIndexEi
STi:_InternalAsyncResult_get_ProceedAfterHandshake_m2508379800
ucd:__ZN2UI14CanvasRenderer17SyncDirtyElementsER8JobFence
lDb:__Z18Transfer_BlittableI18StreamedBinaryReadILb0EELb0ExEvRK29SerializationCommandArgumentsR31RuntimeSerializationCommandInfo
v6d:_Convert_ToUInt16_m2952781888
W6e:_Enumerator_System_Collections_IEnumerator_get_Current_m3816090481_gshared
N_j:__ZN6il2cpp5utils11StringUtils15StringDuplicateEPKc
oUg:_DefaultComparer_Equals_m2480133610_gshared
G4:__ZNK9ShaderLab21ShaderRasterStateDesc16ToGfxRasterStateEPK19ShaderPropertySheetS3_R14GfxRasterState
dQi:_Array_Sort_TisVector3_t3722313464_m1915176437_gshared
S7j:__ZN6il2cpp2os9EventImplC2Ebb
Grh:__Z36RuntimeInvoker_Enumerator_t572278398PFvvEPK10MethodInfoPvPS4_
wr:__ZN4PPtrI13MonoBehaviourE8TransferI19StreamedBinaryWriteILb0EEEEvRT_
uXh:_List_1_get_Item_m2113769949_gshared
ilf:_MaskableGraphic_OnTransformParentChanged_m329502413
lBf:_NameValueCollection__ctor_m4090053322
Awg:_ScriptableObject_t2528358522_marshal_pinvoke
F5:__Z20IsMatrixBuiltinParamPKcPi
kHj:__ZN6il2cpp2gc19AppendOnlyGCHashMapINSt3__24pairIPK10MethodInfoP11Il2CppClassEEP11Il2CppArray17ReflectionMapHashIS9_ENS2_8equal_toIS9_EEEC2Ev
GOf:_String_memcpy4_m979367827
tQf:_SecurityFrame_t1422462475_marshal_pinvoke
FEj:__ZN15dense_hashtableINSt3__24pairIK10KeyWrapperINS1_IPK10MethodInfoP11Il2CppClassEEEjEES9_17ReflectionMapHashIS8_EN14dense_hash_mapIS9_jSD_NS9_14EqualsComparerINS0_8equal_toIS8_EEEENS0_9allocatorISB_EEE9SelectKeyESI_SK_E16reset_thresholdsEv
rDg:_UnicodeEncoding_GetBytesInternal_m1902824297
Cac:__ZN8Renderer19PostInitializeClassEv
icg:_Array_FindIndex_TisRuntimeObject_m2504082708_gshared
bYi:_X509Chain_FindCertificateRoot_m1937726457
_Xe:_InternalEnumerator_1__ctor_m217498388_AdjustorThunk
f4j:__ZN6il2cpp6icalls8mscorlib6System8Delegate23CreateDelegate_internalEP20Il2CppReflectionTypeP12Il2CppObjectP22Il2CppReflectionMethodb
X7e:_Enumerator_System_Collections_IEnumerator_get_Current_m921113401_AdjustorThunk
gYb:__ZNK13RendererScene22GetStaticBoundingBoxesEv
pGb:__ZN18DelayedCallManager18CancelCallDelayed2E4PPtrI6ObjectEPF15CallObjectStatePS1_PvES7_
dqg:_Matrix4x4_GetHashCode_m4034747639
FLa:__ZN25ThreadsafeLinearAllocator10ReallocateEPvji
qqb:__Z18Transfer_BlittableI14SafeBinaryReadLb1E11QuaternionfEvRK29SerializationCommandArgumentsR31RuntimeSerializationCommandInfo
Dha:__ZN18SpriteAtlasManagerD0Ev
oYg:_GenericEqualityComparer_1__ctor_m1058369027_gshared
Zlh:__Z57RuntimeInvoker_Boolean_t97287965_KeyValuePair_2_t71524366PFvvEPK10MethodInfoPvPS4_
bbb:__ZN10Matrix4x4f8TransferI14SafeBinaryReadEEvRT_
LFj:__ZNK10KeyWrapperINSt3__24pairIPK12PropertyInfoP11Il2CppClassEEE14EqualsComparerINS0_8equal_toIS7_EEEclERKS8_SE_
GGd:_CryptographicUnexpectedOperationException__ctor_m2381988196
PHj:__ZN14dense_hash_mapI10KeyWrapperIPK22Il2CppGenericParameterEPK24MonoGenericParameterInfoN6il2cpp5utils11PointerHashIS2_EENS4_14EqualsComparerINSt3__28equal_toIS3_EEEENSD_9allocatorINSD_4pairIKS4_S7_EEEEE15set_deleted_keyERSJ_
cD:__ZN14AvatarPlayback8StopTimeEv
YYe:_InternalEnumerator_1_System_Collections_IEnumerator_get_Current_m4213507601_gshared
gca:__Z6AppendRKN4core12basic_stringIcNS_20StringStorageDefaultIcEEEEPKc
xrh:__Z74RuntimeInvoker_DictionaryEntry_t3123975638_RuntimeObject_SByte_t1669577662PFvvEPK10MethodInfoPvPS4_
Dkb:__ZL14OnWorldStoppedv
Rag:_Array_InternalArray__IEnumerable_GetEnumerator_TisCustomAttributeNamedArgument_t287865710_m523021714_gshared
IAh:__ZN21InterfaceFuncInvoker1I19Vector4_t3319028937iE6InvokeEjP11Il2CppClassP12Il2CppObjecti
aAb:__Z18Transfer_BlittableI18StreamedBinaryReadILb1EELb0E8Vector3fEvRK29SerializationCommandArgumentsR31RuntimeSerializationCommandInfo
Wbe:_HashKeys_get_SyncRoot_m3757723936
P5i:_GUIUtility_RemoveCapture_m1294193818
dva:__ZN7ApiGLES18ClearBufferSubDataEjN2gl12BufferTargetEll
Skc:__Z37Camera_Get_Custom_PropAllCamerasCountv
y9a:__ZN14Texture2DArray8TransferI18StreamedBinaryReadILb0EEEEvRT_
L_h:_List_1_CopyTo_m2746988508_gshared
nWb:__Z18ApplyOcclusionMaskR19ProbeOcclusionCacheRK17LightProbeContextRK10RenderNodeb
Msa:__ZN13GfxDeviceGLES13AfterDrawCallEv
o5c:_Split_Cubic
gb:invoke_fiiii
Rhf:_InputField_OnSubmit_m3583210804
Wni:__ZL64CipherSuiteCollection_t1129639304_CustomAttributesCacheGeneratorP21CustomAttributesCache
iBi:__ZL72GUISkin_t1244372282_CustomAttributesCacheGenerator_m_horizontalScrollbarP21CustomAttributesCache
m2i:_Uri_CheckHostName_m2213216182
bkk:_emscripten_glBindRenderbuffer__wrapper
URi:_Mesh_SetUvsImpl_TisVector2_t2156229523_m3009194955_gshared
aNg:_ValueType_InternalEquals_m1384040357
fQi:_Array_Sort_TisVector4_t3319028937_TisVector4_t3319028937_m4254533673_gshared
t1e:_InternalEnumerator_1_System_Collections_IEnumerator_Reset_m729791527_AdjustorThunk
m8d:_ArrayListWrapper_Contains_m2641184447
a5c:_ft_black_render
H8g:__Z177RuntimeInvoker_Int32_t2950945753_RuntimeObject_Int32_t2950945753_Int32_t2950945753_RuntimeObject_Int32_t2950945753_EncoderFallbackBufferU26_t2343550713_CharU5BU5DU26_t3299466565PFvvEPK10MethodInfoPvPS4_
Tfk:dynCall_viiifi
NDa:__ZN18GfxFramebufferGLES20ActiveContextChangedEPP17RenderSurfaceBaseS2_
w7d:_ArrayList_get_IsFixedSize_m24366329
EDa:__Z19PluginsRenderMarkeri
u3e:_InternalEnumerator_1__ctor_m2307827786_AdjustorThunk
WE:__ZN10HumanTrait18InitializeBoneNameEv
Nja:__ZNSt3__26vectorIN9ShaderLab20SerializedSubProgram15StructParameterENS_9allocatorIS3_EEE6assignINS_11__wrap_iterIPS3_EEEENS_9enable_ifIXaasr21__is_forward_iteratorIT_EE5valuesr16is_constructibleIS3_NS_15iterator_traitsISC_E9referenceEEE5valueEvE4typeESC_SC_
c9a:__ZN14Texture2DArray21AwakeFromLoadThreadedEv
lEb:__Z29Transfer_Blittable_ArrayFieldI18StreamedBinaryReadILb0EEyEvRT_R9ArrayInfoRK23StaticTransferFieldInfo
_xg:_Touch_get_position_m3109777936_AdjustorThunk
eTj:__ZNSt3__214__split_bufferIN6il2cpp2vm5Image20EmbeddedResourceDataERNS_9allocatorIS4_EEEC2EjjS7_
Ivd:_CanvasScaler_set_screenMatchMode_m2975492035
xH:__ZN12AudioManager17RemoveAudioSourceEP11AudioSource
kGf:_X509Certificate2Collection_Add_m3151757943
y7h:__ZL83RuntimeArray_CustomAttributesCacheGenerator_RuntimeArray____LongLength_PropertyInfoP21CustomAttributesCache
x5e:_Comparer_1__cctor_m951016718_gshared
fae:_CaseInsensitiveHashCodeProvider_get_DefaultInvariant_m4264275163
imi:__ZL67IndexOutOfRangeException_t1578797820_CustomAttributesCacheGeneratorP21CustomAttributesCache
Z8g:__Z195RuntimeInvoker_Int32_t2950945753_RuntimeObject_Int32_t2950945753_Int32_t2950945753_Int32_t2950945753_RuntimeObject_DecoderFallbackBufferU26_t3866396827_ByteU5BU5DU26_t4057885439_SByte_t1669577662PFvvEPK10MethodInfoPvPS4_
$Q:__ZN5physx14PxLightCpuTask12addReferenceEv
EOc:__Z10b2DistanceP16b2DistanceOutputP14b2SimplexCachePK15b2DistanceInput
Kmh:__Z86RuntimeInvoker_Int32_t2950945753_Color32_t2600501292_Color32_t2600501292_RuntimeObjectPFvvEPK10MethodInfoPvPS4_
a6a:__ZN21EnlightenSceneMapping8TransferI19StreamedBinaryWriteILb0EEEEvRT_
VUj:__ZN6il2cpp2gc16GarbageCollector19InitializeFinalizerEv
dz:__ZN7mecanim8skeleton18CreateSkeletonMaskEjPKNS0_19SkeletonMaskElementERNS_6memory9AllocatorE
bIh:_ReadOnlyCollection_1_System_Collections_Generic_ICollectionU3CTU3E_get_IsReadOnly_m2508509261_gshared
oyc:__ZN10GUIManager10DoGUIEventER10InputEventb
iwb:__Z35Transfer_Blittable_FixedBufferFieldI24GenerateTypeTreeTransferxEvRK29SerializationCommandArgumentsR31RuntimeSerializationCommandInfo
i$c:_otv_LangSys_validate
Uug:_RectOffset_get_right_m2294081512
yhg:_Array_InternalArray__set_Item_TisLink_t544317964_m1234244240_gshared
T3c:_UNITY_TT_Init_Glyph_Loading
nRb:__Z20CalculateSqrDistanceRK8Vector3fRK4AABB
jzd:_OptionData_get_text_m2997376818
X8e:_Enumerator__ctor_m324536319_gshared
T9e:_KeyCollection_get_Count_m1441964482_gshared
lEd:_SerializationInfo_GetBoolean_m1756153320
WL:__Z32AudioMixerDuckingProcessCallbackP21UnityAudioEffectStatePfS1_jii
Pnf:_U3CClickRepeatU3Ec__Iterator0_System_Collections_IEnumerator_get_Current_m543328413
Iqg:_Mesh_get_uv2_m3615020997
OCh:_ReadOnlyCollection_1_Contains_m2979956790_gshared
G9b:__ZN26CustomRenderTextureManagerD2Ev
oVg:_EqualityComparer_1_System_Collections_IEqualityComparer_Equals_m4172006498_gshared
pI:__ZN12AudioManager8TransferI24GenerateTypeTreeTransferEEvRT_
tOi:_Array_qsort_TisOrderBlock_t1585977831_m3322202512_gshared
Rpg:_Mathf_Round_m4098141538
hya:__Z25GetBytesFromTextureFormat13TextureFormat
U9a:__ZN9Texture3D19UnloadFromGfxDeviceEb
uOj:__ZN6il2cpp6icalls8mscorlib6System9Threading6Thread20Thread_free_internalEP12Il2CppThreadi
Ndk:dynCall_iiffi
rub:__Z18Transfer_BlittableI17RemapPPtrTransferLb0EsEvRK29SerializationCommandArgumentsR31RuntimeSerializationCommandInfo
b4h:_Collection_1_get_Item_m4103760396_gshared
dBf:__KeysEnumerator_get_Current_m2996478063
Phe:_AmbiguousMatchException__ctor_m2012725345
gE:__ZN16MecanimAnimation25RegisterIAnimationBindingEPKN5Unity4TypeEiP17IAnimationBinding
D0:__Z32scripting_class_get_assemblyname17ScriptingClassPtr
eid:__ZN11UnityEngine15PlatformWrapper15GetVRDeviceNameEv
sLi:__ZL109LayoutUtility_t2745813735_CustomAttributesCacheGenerator_LayoutUtility_U3CGetFlexibleWidthU3Em__3_m1091238571P21CustomAttributesCache
xih:__Z99RuntimeInvoker_Boolean_t97287965_Int32_t2950945753_PointerEventDataU26_t867828220_SByte_t1669577662PFvvEPK10MethodInfoPvPS4_
EXe:_InternalEnumerator_1_get_Current_m2128158355_AdjustorThunk
HJa:__ZN9GfxDevice21RegisterNativeTextureE9TextureIDi16TextureDimension
$Ad:_GraphicRegistry__ctor_m1851575309
qoh:__Z52RuntimeInvoker_Void_t1185182177_Keyframe_t4206410242PFvvEPK10MethodInfoPvPS4_
gni:__ZL53TypeFilter_t2356120900_CustomAttributesCacheGeneratorP21CustomAttributesCache
v5j:__ZN6il2cpp6icalls8mscorlib6System10Reflection4Emit11TypeBuilder20create_generic_classEP27Il2CppReflectionTypeBuilder
aMf:_SHA1Internal_FillBuff_m3615718415
U9f:_PlayableHandle_IsPlayableOfType_TisAnimationLayerMixerPlayable_t3631223897_m201603007_gshared
hji:__ZL50Monitor_t2197244473_CustomAttributesCacheGeneratorP21CustomAttributesCache
Oyj:__ZNSt3__26vectorIPK10MethodInfoNS_9allocatorIS3_EEE26__swap_out_circular_bufferERNS_14__split_bufferIS3_RS5_EE
eye:_PrimalityTest_EndInvoke_m1035389364
GQ:__Z60Register_UnityEngine_AudioListener_GetNumExtensionPropertiesv
fj:_emscripten_glUniformMatrix4fv
ELj:__ZN15dense_hashtableINSt3__24pairIK10KeyWrapperINS1_IP11Il2CppClassjEEES4_EES6_N6il2cpp8metadata14ArrayClassHashEN14dense_hash_mapIS6_S4_SB_NS6_14EqualsComparerINSA_17ArrayClassCompareEEENS0_9allocatorIS8_EEE9SelectKeyESF_SH_E13set_empty_keyERKS8_
jlb:__ZN12ScriptMapperD2Ev
xdf:_Enumerator_Dispose_m3040896940_AdjustorThunk
Kmk:b100
Lqg:_Mesh_get_colors32_m1253190811
w1j:_GC_stopped_mark
Jhg:_AnimationCurve_Finalize_m2397002729
Vrf:_Text_OnEnable_m616205807
$sh:__Z50RuntimeInvoker_RuntimeObject_ColorTween_t809614380PFvvEPK10MethodInfoPvPS4_
a3e:_InternalEnumerator_1__ctor_m945079686_AdjustorThunk
cTe:_SerializationCallbacks__cctor_m1674315180
B1g:__Z194RuntimeInvoker_Void_t1185182177_ByteU2AU26_t57153304_ByteU2AU26_t57153304_DoubleU2AU26_t3650786047_UInt16U2AU26_t531067350_UInt16U2AU26_t531067350_UInt16U2AU26_t531067350_UInt16U2AU26_t531067350PFvvEPK10MethodInfoPvPS4_
Rka:__Z32TransferEnumWithNameForceIntSizeI14SafeBinaryRead7FogModeEvRT_RT0_PKc17TransferMetaFlags
Cpc:__Z52Register_UnityEngine_RenderTexture_Internal_GetWidthv
q2j:_GC_check_leaked
Nma:__ZN9ShaderLab20SerializedSubProgram16TextureParameter8TransferI19StreamedBinaryWriteILb0EEEEvRT_
iLa:__ZNK7Hash12812PackToUInt32Ev
n9d:_SynchronizedArrayListWrapper_IndexOf_m3642674350
q2:__ZNSt3__227__insertion_sort_incompleteIRNS_6__lessI14ObjectLoadDataS2_EEPS2_EEbT0_S6_T_
yV:__ZN11UnityEngine15CloudWebService16SessionContainer8AddEventEPNS0_14CloudEventInfoE
wIa:__Z4TrimRKN4core12basic_stringIcNS_20StringStorageDefaultIcEEEES5_
EFh:_ReadOnlyCollection_1_CopyTo_m209634623_gshared
xRc:__ZN13dynamic_arrayIN19CompositeCollider2D11SubColliderELj4EE12emplace_backEv
iRi:_Dictionary_2_Do_ICollectionCopyTo_TisKeyValuePair_2_t3842366416_m1399105608_gshared
UDi:__ZL77ExecuteEvents_t3484638744_CustomAttributesCacheGenerator_U3CU3Ef__mgU24cache2P21CustomAttributesCache
wFf:_X509Certificate2_Import_m4026562329
j9e:_Enumerator_System_Collections_IEnumerator_get_Current_m2763095718_AdjustorThunk
llk:_glGetStringi__wrapper
Y7a:__ZN10VertexData8TransferI14SafeBinaryReadEEvRT_
FJ:__ZN4FMOD8ChannelI8setDelayE14FMOD_DELAYTYPEjj
k3j:_GC_malloc_atomic
Hwe:_ActivatedClientTypeEntry_ToString_m2494181680
nZg:_HashSet_1_GetEnumerator_m3346268098_gshared
U5j:__ZN6il2cpp5utils6Memory13AlignedMallocEjj
_sg:_PropertyName_GetHashCode_m3570549176_AdjustorThunk
hwi:__ZL55PropertyName_t3749835189_CustomAttributesCacheGeneratorP21CustomAttributesCache
Xhf:_Selectable_get_animator_m2899312855
GZ:__ZL20SortItemByInstanceIDRKN18AwakeFromLoadQueue4ItemES2_
Kzg:_Vector2_op_Multiply_m2347887432
pAd:_FontData_get_maxSize_m195374730
vBf:_TypeConverterAttribute__ctor_m1774069684
Zwc:_jpeg_free_small
oz:__ZNK34AnimationStateMachineMixerPlayable26GetInterruptedPosePlayableEv
Xkd:__ZN20UnityConnectSettings8TransferI24GenerateTypeTreeTransferEEvRT_
pB:__ZN34BlobWriteTransferSTLStyleArrayImplI22OffsetPtrArrayTransferIbEEclERS1_17TransferMetaFlagsR9BlobWrite
F_d:_Byte_ToString_m4063101981
GXd:_MonoType_GetConstructors_m2574682189
rwg:_SceneManager_LoadSceneAsyncNameIndexInternal_m4031498323
KZj:__ZNK15dense_hashtableINSt3__24pairIK10KeyWrapperIPK19Il2CppGenericMethodEP10MethodInfoEES6_N6il2cpp8metadata23Il2CppGenericMethodHashEN14dense_hash_mapIS6_S9_SD_NS6_14EqualsComparerINSC_26Il2CppGenericMethodCompareEEENS0_9allocatorISA_EEE9SelectKeyESH_SJ_E10test_emptyERK30dense_hashtable_const_iteratorISA_S6_SD_SL_SH_SJ_E
yei:__ZL59SinkProviderData_t4151372974_CustomAttributesCacheGeneratorP21CustomAttributesCache
fCf:_ServicePointManager_FindServicePoint_m4119451290
d4e:__ZN21InterfaceFuncInvoker1Ii22OrderBlock_t1585977831E6InvokeEjP11Il2CppClassP12Il2CppObjectS0_
Mda:__ZL31InitializeRendererUpdateManagerPv
qke:_ParameterInfo__ctor_m2779026345
Rff:_InputField_set_onValueChange_m1251390545
zAd:_FontData_get_verticalOverflow_m4132840071
fdd:__ZN2UI13CanvasManager14GetRenderOrderEPKNS_6CanvasE
_Yd:_NumberFormatter_get_IsZeroInteger_m2263284741
OP:__ZN13AudioListener12CleanupClassEv
fea:__Z13GetIEnlightenv
Owg:_HitInfo_t3229609740_marshal_pinvoke
xUi:_X509Certificate_PEM_m2020851166
Lvf:_BigInteger_op_GreaterThanOrEqual_m700865613
vgg:_Array_InternalArray__Insert_TisDateTime_t3738529785_m2308632330_gshared
Xeb:__ZN11TimeManager8TransferI19StreamedBinaryWriteILb0EEEEvRT_
tFe:_TlsServerCertificateRequest_ProcessAsTls1_m3214041063
E$c:_compare_uni_maps
sgh:__Z72RuntimeInvoker_Boolean_t97287965_Vector2_t2156229523_Vector2_t2156229523PFvvEPK10MethodInfoPvPS4_
Rid:__ZN11UnityEngine15PlatformWrapper27GetGraphicsCapsSupportFlagsEv
zad:__ZNSt3__218__insertion_sort_3IRPFbPN2UI6CanvasES3_EPS3_EEvT0_S8_T_
jRi:_Dictionary_2_Do_ICollectionCopyTo_TisRuntimeObject_m3695543300_gshared
Lzb:__ZN12NativeBufferI16Converter_StringE15SetupForWritingER9ArrayInfo
Wga:__ZN13RuntimeStaticI18AssetBundleManagerLb1EE16StaticInitializeEPv
Dhk:___cxa_end_catch__wrapper
Hdh:__Z121RuntimeInvoker_Int32_t2950945753_RuntimeObject_Int32U26_t1369213839_Int32_t2950945753_Int32_t2950945753_Int32_t2950945753PFvvEPK10MethodInfoPvPS4_
b7d:_Char_ToString_m278452217
oBe:_CipherSuite_get_DecryptionCipher_m2839827488
P0g:__Z32RuntimeInvoker_Boolean_t97287965PFvvEPK10MethodInfoPvPS4_
_Sb:__ZNK4PPtrI5LightEcvPS0_Ev
Oxe:_BigInteger_op_RightShift_m460065452
_Gb:__ZN13MonoBehaviour22DoScriptRebuildWarningEv
Ukc:__Z38Camera_CUSTOM_INTERNAL_CALL_RaycastTryP12Il2CppObjectRK3Rayfi
Hcj:_ListPool_1_U3Cs_ListPoolU3Em__0_m2790550420_gshared
B9c:__Z38TextGenerator_Get_Custom_PropLineCountP12Il2CppObject
dUi:_InternalAsyncResult_SetComplete_m963842420
MBg:_Encoding_GetEncoding_m2801244948
qzc:__ZN11IMGUIModule25GetGUIStyleScriptingClassEv
g2c:_tt_get_interface
jIe:_SslStreamBase_EndRead_m495357226
fOj:__ZN6il2cpp5utils9PathUtils7CombineIcEENSt3__212basic_stringIT_NS3_11char_traitsIS5_EENS3_9allocatorIS5_EEEERKSA_SC_
_Ec:__ZN9JSONWrite8TransferI13dynamic_arrayIiLj4EEEEvRT_PKc17TransferMetaFlags
Ywh:_Collection_1_System_Collections_IList_get_IsFixedSize_m214626114_gshared
qbh:__Z64RuntimeInvoker_RuntimeObject_SByte_t1669577662_SByte_t1669577662PFvvEPK10MethodInfoPvPS4_
tH:__ZL16FMOD_ErrorString11FMOD_RESULT_363
Rdc:__ZN13PlayableGraph21InvalidateMultithreadEv
k$g:_Enumerator_System_Collections_IEnumerator_get_Current_m713684915_AdjustorThunk
OXg:_GenericComparer_1_Compare_m459680062_gshared
Vle:_EnumBuilder_GetConstructorImpl_m3068576149
o$:__Z18ConvertUTF16toUTF8PPKtS0_PPhS2_15ConversionFlags
dZj:__ZN6il2cpp2os20PathErrnoToErrorCodeERKNSt3__212basic_stringIcNS1_11char_traitsIcEENS1_9allocatorIcEEEEi
GHi:__ZL68InputField_t3762917431_CustomAttributesCacheGenerator_m_KeyboardTypeP21CustomAttributesCache
eNf:_SymmetricAlgorithm_System_IDisposable_Dispose_m3402297829
mhc:__Z24GetActualTargetFrameRatev
Fmj:__ZL16my_g_bit_nth_msfj
Ami:__ZL65NonSerializedAttribute_t2945079482_CustomAttributesCacheGeneratorP21CustomAttributesCache
TLj:__ZN15dense_hashtableINSt3__24pairIK10KeyWrapperIP11Il2CppClassES4_EES5_N6il2cpp8metadata16SZArrayClassHashEN14dense_hash_mapIS5_S4_SA_NS5_14EqualsComparerINS9_19SZArrayClassCompareEEENS0_9allocatorIS7_EEE9SelectKeyESE_SG_E12expand_arrayEjN21dense_hash_map_traits17integral_constantIbLb0EEE
tTg:_DefaultComparer_GetHashCode_m3369508712_gshared
g1h:_Enumerator_MoveNext_m3662315381_AdjustorThunk
bFe:_TlsClientFinished_ProcessAsTls1_m2429863130
Ewe:_ActivatedClientTypeEntry_get_ApplicationUrl_m2894992111
zPb:__Z23SetupStereoFlareElementP11FlareVertexRK8Vector2fS3_S3_RK11ColorRGBA32RK10Matrix4x4fRK8Vector3fb
hqj:__ZN6il2cpp2vm5Class15GetInstanceSizeEPK11Il2CppClass
$Mg:_ValueType__ctor_m2036258423
ua:invoke_iiiifiiii
iFb:__ZNSt3__224__buffered_inplace_mergeIRN10vector_mapI17ScriptingClassPtrPKN5Unity4TypeENS_4lessIS2_EENS_9allocatorINS_4pairIS2_S6_EEEEE13value_compareENS_11__wrap_iterIPSB_EEEEvT0_SJ_SJ_T_NS_15iterator_traitsISJ_E15difference_typeESN_PNSM_10value_typeE
kxh:__ZN23InterfaceActionInvoker2Ii20UICharInfo_t75501106E6InvokeEjP11Il2CppClassP12Il2CppObjectiS0_
ALj:__ZNK15dense_hashtableINSt3__24pairIK10KeyWrapperINS1_IP11Il2CppClassjEEES4_EES6_N6il2cpp8metadata14ArrayClassHashEN14dense_hash_mapIS6_S4_SB_NS6_14EqualsComparerINSA_17ArrayClassCompareEEENS0_9allocatorIS8_EEE9SelectKeyESF_SH_E12test_deletedERK30dense_hashtable_const_iteratorIS8_S6_SB_SJ_SF_SH_E
ETf:_String_Join_m2050845953
jbf:_ShimEnumerator_MoveNext_m2406150314_gshared
GEa:__ZL19BlitFramebufferImplRN4gles23BlitFramebufferDrawQuadER9GfxDevice9TextureIDRK8Vector4f
Vtb:__Z18Transfer_BlittableI17RemapPPtrTransferLb0EhEvRK29SerializationCommandArgumentsR31RuntimeSerializationCommandInfo
IDj:__ZN15dense_hashtableINSt3__24pairIK10KeyWrapperIPK10Il2CppTypeEjEES6_N6il2cpp8metadata14Il2CppTypeHashEN14dense_hash_mapIS6_jSB_NS6_14EqualsComparerINSA_26Il2CppTypeEqualityComparerEEENS0_9allocatorIS8_EEE9SelectKeyESF_SH_E4findERS7_
zek:dynCall_viiiiiiiiiiiiii
x3c:_UNITY_FT_List_Add
eac:__ZN14Texture2DArray11InitTextureEiii13TextureFormatb
wVi:_X509Extension__ctor_m1474351312
Bii:__ZL104Encoding_t1523322056_CustomAttributesCacheGenerator_Encoding_t1523322056____DecoderFallback_PropertyInfoP21CustomAttributesCache
_Mh:_InvokableCall_1_Invoke_m1524307439_gshared
B2a:__ZN12CubemapArray21AwakeFromLoadThreadedEv
PPd:_Directory_CreateDirectoriesInternal_m3735342319
SFi:__ZL108U3CStartU3Ec__Iterator0_t1249263001_CustomAttributesCacheGenerator_U3CStartU3Ec__Iterator0__ctor_m1316384627P21CustomAttributesCache
JRh:_List_1_RemoveAll_m517055598_gshared
fkf:_LayoutUtility_GetLayoutProperty_m3731360667
EIj:__ZN15dense_hashtableINSt3__24pairIK10KeyWrapperINS1_IPK11Il2CppImageP11Il2CppClassEEEjEES9_17ReflectionMapHashIS8_EN14dense_hash_mapIS9_jSD_NS9_14EqualsComparerINS0_8equal_toIS8_EEEENS0_9allocatorISB_EEE9SelectKeyESI_SK_E14squash_deletedEv
cNf:_SHAConstants__cctor_m1699027474
Tre:_MonoEventInfo_t346866618_marshal_pinvoke_back
IY:__ZNK6Camera26GetStereoSingleCullEnabledEv
PRh:_List_1_TrimExcess_m4121641494_gshared
Aki:__ZL78Convert_t2465617642_CustomAttributesCacheGenerator_Convert_ToInt16_m1733792763P21CustomAttributesCache
bib:__Z14resize_trimmedINSt3__26vectorIN4core12basic_stringIcNS2_20StringStorageDefaultIcEEEE13stl_allocatorIS6_L18MemLabelIdentifier13ELi16EEEEEvRT_j
_qb:__Z18Transfer_BlittableI14SafeBinaryReadLb0EaEvRK29SerializationCommandArgumentsR31RuntimeSerializationCommandInfo
f7d:_CharEnumerator_System_Collections_IEnumerator_get_Current_m1328529384
Ogk:_emscripten_glFrustum__wrapper
Qlj:_AnimationLayerMixerPlayable__ctor_m860721801
Y0g:__Z98RuntimeInvoker_Boolean_t97287965_RuntimeObject_Int32_t2950945753_RuntimeObject_Int64U26_t200113976PFvvEPK10MethodInfoPvPS4_
b4c:_UNITY_FT_List_Iterate
tWa:__ZN17GlobalGameManager8TransferI24GenerateTypeTreeTransferEEvRT_
A6d:_Char_System_IConvertible_ToUInt64_m3536560782
FUg:_EqualityComparer_1__cctor_m3452395357_gshared
EHf:_X509ChainStatus_get_Status_m2572005749_AdjustorThunk
eOb:__Z20SyncFenceCullResultsR11CullResults
iHa:__ZN15TextureTFMethod20IsBoneCountSupportedEi
L1f:_Double_ToString_m3828879243_AdjustorThunk
tvb:__Z22TransferField_NonArrayI17RemapPPtrTransfer27Converter_SimpleNativeClassI8GUIStyleEEvRK23StaticTransferFieldInfoR31RuntimeSerializationCommandInfoRT0_
cVd:_TextReader_Synchronized_m3004980758
s3b:__ZNK17AnimationCurveTplIfE20EvaluateWithoutCacheEfRf
lgh:__Z67RuntimeInvoker_Boolean_t97287965_Rect_t2360479859_SByte_t1669577662PFvvEPK10MethodInfoPvPS4_
nZa:__ZN19ShaderPropertySheet10SetTextureERK23FastTexturePropertyNameP7Texture
oje:_CustomAttributeData__ctor_m2966233049
iwd:_CanvasUpdateRegistry_PerformUpdate_m1793997159
rEe:_Context_set_ClientWriteIV_m3405909624
Vfc:__ZN4Mesh10SetNormalsEPK8Vector3fj
rVc:__Z66Register_UnityEngine_Physics2D_INTERNAL_CALL_GetRayIntersectionAllv
L6i:_AesManaged_CreateDecryptor_m692040246
Cli:__ZL79Convert_t2465617642_CustomAttributesCacheGenerator_Convert_ToUInt64_m2343585091P21CustomAttributesCache
vjj:_TextGenerationSettings_t1351628751_marshal_pinvoke_back
Ks:__ZN17AnimationCurveTplIfE8TransferI14SafeBinaryReadEEvRT_
jPg:_Dictionary_2_get_Count_m2449135560_gshared
uNi:_Array_InternalArray__set_Item_TisInt16_t2552820387_m2544074754_gshared
U0d:_ArithmeticException__ctor_m3551809662
d3b:__Z46CleanupLineParametersAnimationBindingInterfacev
oQd:_MonoIO_ExistsDirectory_m2182482658
y0h:__ZN21InterfaceFuncInvoker0I19Vector4_t3319028937E6InvokeEjP11Il2CppClassP12Il2CppObject
Wph:__Z72RuntimeInvoker_CustomAttributeNamedArgument_t287865710_Int32_t2950945753PFvvEPK10MethodInfoPvPS4_
K0b:__Z29StdTemplateConversionFunctionIybEbPvR14SafeBinaryRead
x6a:__ZNSt3__26vectorIN15QualitySettings14QualitySettingENS_9allocatorIS2_EEE6assignIPS2_EENS_9enable_ifIXaasr21__is_forward_iteratorIT_EE5valuesr16is_constructibleIS2_NS_15iterator_traitsIS9_E9referenceEEE5valueEvE4typeES9_S9_
i3:__ZNK5Unity9Component10GetEnabledEv
gof:_ScrollRect_get_scrollSensitivity_m2832710591
f:HEAPU32
HRh:_List_1_CheckCollection_m1671972112_gshared
bKj:_il2cpp_class_get_image
O8e:_Enumerator_System_Collections_IEnumerator_get_Current_m1747693366_gshared
DDg:_UnicodeEncoding_GetPreamble_m3002287178
V1:__Z16AsyncReadRequestP16AsyncReadCommand
vpj:__ZNK15dense_hashtableINSt3__24pairIK10KeyWrapperIPK22Il2CppGenericParameterEP11Il2CppClassEES6_N6il2cpp5utils11PointerHashIS4_EEN14dense_hash_mapIS6_S9_SE_NS6_14EqualsComparerINS0_8equal_toIS5_EEEENS0_9allocatorISA_EEE9SelectKeyESJ_SL_E12test_deletedEj
Rdj:_AudioSource_get_spatialize_m3609701298
Qfh:__Z52RuntimeInvoker_Color_t2555686324_Color32_t2600501292PFvvEPK10MethodInfoPvPS4_
koa:__ZN20GpuProgramParameters14AddVectorParamEPKcii15ShaderParamTypeiiiP16PropertyNamesSet
Tmd:__ZNK12HeaderHelper3GetERKN4core12basic_stringIcNS0_20StringStorageDefaultIcEEEE
Bgd:__Z24GetUnityAnalyticsManagerv
Deb:__ZN9InputAxis8TransferI14SafeBinaryReadEEvRT_
$Z:__ZNK21ExecutionOrderManager30GetCustomAwakeFromLoadQueueForEPKN5Unity4TypeE
kmd:__Z27RegisterModule_UnityConnectv
JSd:_MemoryStream_Expand_m3554752073
$Gj:__ZN6il2cpp2vm10Reflection27GetCustomAttributesCacheForEP25Il2CppReflectionParameter
Dwg:_ScriptableObject_CreateInstance_m2611081756
nRe:_ObjectRecord_get_IsInstanceReady_m2304516395
E1e:_InternalEnumerator_1_System_Collections_IEnumerator_get_Current_m1635397542_gshared
oTd:_Path__cctor_m3273994011
l7i:_AnalyticsEventTracker__ctor_m3064238498
Jck:__ZNSt11logic_errorD2Ev
sWf:_DateTimeUtils_CountRepeat_m3396693018
xTc:__ZNK17Physics2DSettings22GetTypeVirtualInternalEv
pjk:_glBindRenderbuffer__wrapper
ZK:__ZN10ObjectPoolIN4FMOD12ChannelGroupENS0_13ChannelGroupIEE7SetSizeEi
gLi:__ZL103LayoutRebuilder_t541313304_CustomAttributesCacheGenerator_LayoutRebuilder_U3CRebuildU3Em__5_m1288787547P21CustomAttributesCache
w6i:_SymmetricTransform_FinalDecrypt_m764004682
PXj:__ZN6il2cpp2os10ThreadImpl33UnregisterCurrentThreadForCleanupEv
w$h:_List_1_System_Collections_IList_get_Item_m1315368445_gshared
PEi:__ZL114PointerEventData_t3807901092_CustomAttributesCacheGenerator_PointerEventData_get_pointerCurrentRaycast_m2627585223P21CustomAttributesCache
g$i:_Parser_ParseGroupingConstruct_m263270497
ppd:_UIBehaviour_OnDisable_m1784507360
q6b:__ZN9Polygon2D7SetPathEiRK13dynamic_arrayI8Vector2fLj4EE
aX:__Z22ValidateTlsfAllocationPvjiS_
WXe:_InternalEnumerator_1_MoveNext_m3525157932_gshared
bkg:_Color__ctor_m2943235014_AdjustorThunk
KIj:__ZN14dense_hash_mapI10KeyWrapperINSt3__24pairIPK9EventInfoP11Il2CppClassEEEj17ReflectionMapHashIS8_ENS9_14EqualsComparerINS1_8equal_toIS8_EEEENS1_9allocatorINS2_IKS9_jEEEEE15set_deleted_keyERSH_
ux:__ZN27AnimationLayerMixerPlayable22PrepareAnimationEventsEfR13dynamic_arrayI22AnimationClipEventInfoLj4EE
Ksb:__Z14resize_trimmedINSt3__26vectorI17AnimationCurveTplIfE13stl_allocatorIS3_L18MemLabelIdentifier1ELi16EEEEEvRT_j
$Yb:__ZN25CameraStackRenderingState19SetupLastEyeCamerasERK11CameraStack
HQa:__Z12GUIDToStringRK9UnityGUID
OTd:_StreamReader_Close_m4195491216
PGe:_RSASslSignatureDeformatter_SetKey_m2204705853
WG:__ZN11SoundHandleC2ERKS_
Ft:__ZN17AnimationPlayableC2E18DirectorPlayerType
Zef:_InputField_set_shouldHideMobileInput_m1650743574
hvj:__ZNK6il2cpp5utils11collections13ArrayValueMapIPK10Il2CppType17Il2CppInteropData26InteropDataToTypeConverterNS_8metadata14Il2CppTypeLessENS8_26Il2CppTypeEqualityComparerEE10find_firstERKS5_
Q0h:_List_1_Reverse_m1445355384_gshared
lRd:_FileStream_get_CanSeek_m331583577
c1b:__Z29StdTemplateConversionFunctionItxEbPvR14SafeBinaryRead
PQe:_WellKnownServiceTypeEntry_get_ObjectType_m3211195371
wdj:_PCMReaderCallback_EndInvoke_m3916876196
bqe:_TypeBuilder_get_ContainsGenericParameters_m1769080325
JHd:_DSAParameters_t1885824122_marshal_pinvoke_back
Uz:__ZN8Animator22OnGraphTopologyChangedEP8Playablei
Gvf:_Kernel_MultiplyByDword_m1266935086
B_j:__ZN4utf89unchecked8utf8to16INSt3__220back_insert_iteratorINS2_12basic_stringIDsNS2_11char_traitsIDsEENS2_9allocatorIDsEEEEEEPKcEET_T0_SE_SD_
Ife:_Convert_ToInt64_m3916071102
J_b:__ZN6Camera25StandaloneRenderToCubemapEP7TextureiPFvPK9SceneNodePK4AABBR9IndexListPvESA_j
dNi:__ZL108U3CStartU3Ec__Iterator0_t3660759635_CustomAttributesCacheGenerator_U3CStartU3Ec__Iterator0__ctor_m3806714579P21CustomAttributesCache
BSf:_String_Trim_m3384720403
$Ya:__ZN14RenderSettings18TransferDeprecatedI14SafeBinaryReadEEvRT_
e9g:__Z93RuntimeInvoker_Single_t1397266774_SingleU26_t1922108698_Single_t1397266774_Single_t1397266774PFvvEPK10MethodInfoPvPS4_
m3i:_Event__ctor_m526447123
Mmi:__ZL56RankException_t3812021567_CustomAttributesCacheGeneratorP21CustomAttributesCache
emh:__Z72RuntimeInvoker_Boolean_t97287965_CustomAttributeNamedArgument_t287865710PFvvEPK10MethodInfoPvPS4_
nch:__Z88RuntimeInvoker_RuntimeObject_RuntimeObject_RuntimeObject_RuntimeObject_Int32_t2950945753PFvvEPK10MethodInfoPvPS4_
AJg:_Type_ToString_m3975981286
TZ:__ZN12TLSAllocatorI14StackAllocatorE8AllocateEji
U$:__ZN16ScriptingManager18GetMonoScriptCacheEi
asi:__ZL90LineRenderer_t3154350270_CustomAttributesCacheGenerator_LineRenderer_SetColors_m2426480585P21CustomAttributesCache
u$i:_ExpressionAssertion__ctor_m2554412824
S0i:_CapturingGroup_IsComplex_m4061114763
UOi:_Array_Resize_TisCustomAttributeTypedArgument_t2723150157_m3021884250_gshared
b_g:_Enumerator_System_Collections_IEnumerator_get_Current_m2237476582_gshared
frb:__Z18Transfer_BlittableI14SafeBinaryReadLb1EyEvRK29SerializationCommandArgumentsR31RuntimeSerializationCommandInfo
Dri:__ZL99GameObject_t1113636619_CustomAttributesCacheGenerator_GameObject_GetComponentInChildren_m2670866854P21CustomAttributesCache
LYd:_NullReferenceException__ctor_m3076065613
WBc:__ZN8JSONRead8TransferIfEEvRT_PKc17TransferMetaFlagsb
h6h:__ZL73Enum_t4135868527_CustomAttributesCacheGenerator_Enum_ToObject_m3092348831P21CustomAttributesCache
AJh:_Comparison_1_EndInvoke_m3981968715_gshared
Jna:__ZN9ShaderLab7Program22ComputeSupportsShadowsEv
iEf:_X509SubjectKeyIdentifierExtension_Decode_m1505409124
Vna:__ZL23AddGpuProgramParametersR20GpuProgramParametersRKNSt3__26vectorIN9ShaderLab20SerializedSubProgram15MatrixParameterENS1_9allocatorIS5_EEEERKNS2_INS4_15VectorParameterENS6_ISB_EEEEiiP16PropertyNamesSet
yBa:__ZN6prcoreL17RemapGenericFloatI18TexFormatARGBFloat17TexFormatRGBAHalfEEvPKNS_9InnerInfoE
i7i:_AnalyticsEventParamListContainer__ctor_m1995104893
eSf:_String_System_IConvertible_ToUInt16_m2888090399
GM:__ZN11AudioSource21ApplyCachedParametersE12SoundChannel
fie:_Assembly_InternalGetType_m3065345470
Q8e:_Enumerator_System_Collections_IEnumerator_Reset_m1943008355_gshared
JWe:_InternalEnumerator_1__ctor_m3390957028_gshared
$ue:_ResourceSet__ctor_m3356376607
Xxe:_PrimeGeneratorBase_get_PrimalityTest_m2487240563
Drd:_PhysicsRaycaster_get_maxRayIntersections_m3887348715
fei:__ZL56_ParameterInfo_t489405856_CustomAttributesCacheGeneratorP21CustomAttributesCache
C5a:__ZN15SerializeTraitsI33EnlightenTerrainChunksInformationE8TransferI14SafeBinaryReadEEvRS0_RT_
uMc:__ZN6b2Body12SetTransformERK6b2Vec2f
Sac:__ZNK32RendererMaterialAnimationBinding9BindValueER6ObjectRKN11UnityEngine9Animation14GenericBindingERNS3_10BoundCurveE
qIi:__ZL109MaskableGraphic_t3839221559_CustomAttributesCacheGenerator_MaskableGraphic_ParentMaskStateChanged_m1092090553P21CustomAttributesCache
Ecf:_Transform_1_Invoke_m1731820209_gshared
WZa:__Z13GetIAnimationv
Hza:__ZL18stbir__support_onef
xRf:_Single_CompareTo_m189772128
HDc:__Z26Transfer_UnityEngineObjectI9JSONWriteLb0EEvRK29SerializationCommandArgumentsR31RuntimeSerializationCommandInfo
T3e:_DefaultComparer_Compare_m4042058291_gshared
XCd:_Image_set_overrideSprite_m3213596394
i1a:__ZNSt3__26vectorIN4core12basic_stringIcNS1_20StringStorageDefaultIcEEEE13stl_allocatorIS5_L18MemLabelIdentifier1ELi16EEE6assignINS_11__wrap_iterIPS5_EEEENS_9enable_ifIXaasr21__is_forward_iteratorIT_EE5valuesr16is_constructibleIS5_NS_15iterator_traitsISF_E9referenceEEE5valueEvE4typeESF_SF_
Cbd:__ZNSt3__27__sort5IRNS_6__lessIN2UI14DepthSortEntryES3_EEPS3_EEjT0_S7_S7_S7_S7_T_
YQd:_FileLoadException_ToString_m2989457882
vVi:_AuthorityKeyIdentifierExtension__ctor_m2197389230
hej:_AudioListener_ClearExtensionProperties_m3849891634
WWc:_UNITY_FT_DivFix
vSi:_Array_InternalArray__get_Item_TisDecimal_t2948259380_m3511003792_gshared
uFj:__ZNSt3__218uninitialized_copyIPNS_4pairIK10KeyWrapperINS1_IPK11Il2CppImageP11Il2CppClassEEEjEESC_EET0_T_SE_SD_
SOf:_SecurityElement_IsValidAttributeValue_m948345692
PVc:__ZN19ControllerHitReport15onControllerHitERKN5physx16PxControllersHitE
Da:invoke_vdd
Nn:FUNCTION_TABLE_fiii
Bci:__ZL102MethodInfo_t_CustomAttributesCacheGenerator_MethodInfo_MakeGenericMethod_m1996785325____typeArguments0P21CustomAttributesCache
nVd:_TextWriter_Write_m2252948084
gdc:__Z19RegisterModule_Corev
lNe:_AsyncResult_get_CallMessage_m1679778649
obg:_Array_InternalArray__IEnumerable_GetEnumerator_TisPlayableBinding_t354260709_m1924544205_gshared
j9b:__ZNK30SpriteRendererAnimationBinding12GetPPtrValueERKN11UnityEngine9Animation10BoundCurveE
f9c:__ZZ29InitializeTextRenderingModulevEN27cleanupAfterLoadRegistrator7ForwardEv
lmb:__ZNSt3__26__sortIRPFbRK23TransformAccessReadOnlyS3_EPS1_EEvT0_S8_T_
C3f:_CCFixed_FromDateTime_m3894190577
OYb:__Z29PluginsIssueRenderingExtEvent26UnityRenderingExtEventTypePv
d4g:__Z116RuntimeInvoker_RuntimeObject_RuntimeObject_Int32_t2950945753_RuntimeObject_RuntimeObject_RuntimeObject_RuntimeObjectPFvvEPK10MethodInfoPvPS4_
YEd:_RuntimeMethodHandle__ctor_m2229201676_AdjustorThunk
RRe:_MessageFormatter_ReadMethodCall_m2327590823
T9b:__Z14RandomRotationP9Texture2DPhiiii
Heg:_Array_InternalArray__ICollection_Add_TisUInt16_t2177724958_m3981262878_gshared
z_f:_Decimal_GetBits_m453754410
kZg:_HashSet_1_Contains_m3173358704_gshared
c9i:_ToggleEvent__ctor_m834619998
X2e:_InternalEnumerator_1_Dispose_m436383441_AdjustorThunk
Uze:_PKCS1_Encode_v15_m2077073129
qRg:_Dictionary_2_get_Values_m2682483593_gshared
Azh:_Collection_1_set_Item_m4084225937_gshared
gsh:__Z51RuntimeInvoker_OrderBlock_t1585977831_RuntimeObjectPFvvEPK10MethodInfoPvPS4_
Sug:_RectOffset_get_left_m1232181034
uj:_JS_WebRequest_SetResponseHandler
yhh:__Z59RuntimeInvoker_Boolean_t97287965_Int32_t2950945753_IntPtr_tPFvvEPK10MethodInfoPvPS4_
Ymk:_glDeleteProgram__wrapper
flc:__Z50Register_UnityEngine_Camera_INTERNAL_get_pixelRectv
QAa:__ZN6prcoreL18BlitFloatToIntegerERK14ImageReferenceRS0_
wZf:_DBNull_System_IConvertible_ToUInt32_m3784627971
uDe:_ClientSessionCache_Add_m964342678
s5i:_SkinChangedDelegate__ctor_m1270439727
SGa:__ZN13dynamic_arrayI15ComputeShaderCBLj4EE6assignEPKS0_S3_
tQc:__ZN7b2Timer5ResetEv
TU:__ZN11UnityEngine15CloudWebService14RestDownloader17OnCompleteContentEv
zCj:__ZN15dense_hashtableINSt3__24pairIK10KeyWrapperINS1_IPK14Il2CppAssemblyP11Il2CppClassEEEjEES9_17ReflectionMapHashIS8_EN14dense_hash_mapIS9_jSD_NS9_14EqualsComparerINS0_8equal_toIS8_EEEENS0_9allocatorISB_EEE9SelectKeyESI_SK_E15insert_noresizeERKSB_
Nyg:_Transform_get_localScale_m129152068
T_f:_DivideByZeroException__ctor_m3496959969
WDa:__ZN26SinglePassStereoSupportExt19AfterDrawCallStereoEv
xpf:_ScrollRect_get_layoutPriority_m1584702890
Ta:invoke_viffi
Az:__ZN17AnimationPlayable28UpdateInternalStateRecursiveILi1ELb0EEEvPK35AnimationPlayableEvaluationConstant
hVj:__ZN6il2cpp2gcL10CleanupCCWEPvS1_
Wa:invoke_vifff
Klk:_glGetVertexAttribiv__wrapper
Xe:_emscripten_request_fullscreen
tLh:_Predicate_1_Invoke_m851618236_gshared
rai:__ZL67IsolatedStorageException_t3468072396_CustomAttributesCacheGeneratorP21CustomAttributesCache
UHb:__ZN20LocalFileSystemWebGL6DeleteER13FileEntryDatab
Ze:_emscripten_glDisableVertexAttribArray
p9f:_Array_InternalArray__ICollection_Remove_TisSingle_t1397266774_m3361324455_gshared
gn:FUNCTION_TABLE_iiiifiiii
Eha:__ZN4core8hash_mapINS_12basic_stringIcNS_20StringStorageDefaultIcEEEE13dynamic_arrayI4PPtrI6SpriteELj4EENS_4hashIS4_EENSt3__28equal_toIS4_EEE12delete_nodesEv
L2h:_Collection_1_set_Item_m839097518_gshared
lXe:_InternalEnumerator_1__ctor_m3456047704_gshared
iuc:_UNITY_png_gamma_significant
tc:invoke_fifffi
myh:_Collection_1_System_Collections_IList_Add_m2969482770_gshared
pwf:_BitConverterLE_GetBytes_m4130646282
cxa:__ZN4gles23ClearCurrentFramebufferEP7ApiGLESbbbRK10ColorRGBAffi
Zx:__ZN7mecanim12statemachine20CreateStateWorkspaceEjjjRNS_6memory9AllocatorE
yOh:_UnityEvent_1_Invoke_m3604335408_gshared
Dli:__ZL79Convert_t2465617642_CustomAttributesCacheGenerator_Convert_ToUInt64_m2652538228P21CustomAttributesCache
jf:_emscripten_glDeleteObjectARB
eqd:_EventSystem_RaycastComparer_m3685368675
dg:_IMG_Load
xvc:_decode_mcu_AC_refine
Z7g:__Z131RuntimeInvoker_Void_t1185182177_RuntimeObject_RuntimeObject_Int64_t3736567304_ObjectU26_t2146539884_SerializationInfoU26_t419328957PFvvEPK10MethodInfoPvPS4_
eCa:__ZN6prcoreL27StretchGenericFloatBilinearI18TexFormatARGBFloatEEvPKNS_9InnerInfoE
Dpc:__Z53Register_UnityEngine_RenderTexture_Internal_GetHeightv
HGi:__ZL87U3CDelayedDestroyDropdownListU3Ec__Iterator0_t3853912249_CustomAttributesCacheGeneratorP21CustomAttributesCache
Rzf:_PKCS12_RemoveCertificate_m1421555398
$qf:_Slider_FindSelectableOnLeft_m1667068522
RBa:__ZN6prcoreL17RemapGenericFloatI17TexFormatRGBAHalf18TexFormatARGBFloatEEvPKNS_9InnerInfoE
APc:__ZNSt3__27__sort4IRN18Overlap2DQueryBase29ColliderHitsByDepthComparitorEPP10Collider2DEEjT0_S7_S7_S7_T_
gzc:__Z14GetBuiltinSkini
DOe:_MethodDictionary_get_Item_m1201458851
o1g:__Z60RuntimeInvoker_SByte_t1669577662_RuntimeObject_RuntimeObjectPFvvEPK10MethodInfoPvPS4_
hRf:_Single_System_IConvertible_ToSingle_m1939829239_AdjustorThunk
F8:___cxx_global_var_init_18
ul:_JS_SystemInfo_GetBrowserVersionString
Nlb:__ZN2UI13RectTransform23VirtualRedirectTransferER14SafeBinaryRead
hib:__ZN24GenerateTypeTreeTransfer8TransferINSt3__26vectorIN4core12basic_stringIcNS3_20StringStorageDefaultIcEEEE13stl_allocatorIS7_L18MemLabelIdentifier13ELi16EEEEEEvRT_PKc17TransferMetaFlags
ydf:_Enumerator_MoveNext_m3045873697_gshared
ceh:__Z31RuntimeInvoker_Rect_t2360479859PFvvEPK10MethodInfoPvPS4_
cla:__ZNSt3__26vectorIN9ShaderLab20SerializedSubProgramENS_9allocatorIS2_EEE6assignIPS2_EENS_9enable_ifIXaasr21__is_forward_iteratorIT_EE5valuesr16is_constructibleIS2_NS_15iterator_traitsIS9_E9referenceEEE5valueEvE4typeES9_S9_
TFc:__Z18Transfer_BlittableI8JSONReadLb0E8BitFieldEvRK29SerializationCommandArgumentsR31RuntimeSerializationCommandInfo
a7d:_Char_ToString_m3588025615_AdjustorThunk
eZg:_HashSet_1_CopyTo_m2849056227_gshared
dBb:__ZL17Transfer_GUIStyleI18StreamedBinaryReadILb1EELb0EEvRK29SerializationCommandArgumentsR31RuntimeSerializationCommandInfo
iaj:_U3CStartU3Ec__Iterator0_System_Collections_Generic_IEnumeratorU3CobjectU3E_get_Current_m2764936110
ovf:_ModulusRing_Multiply_m343333088
q5h:__ZL74Single_t1397266774_CustomAttributesCacheGenerator_Single_IsNaN_m4024467661P21CustomAttributesCache
Tia:__ZN9ShaderLab14SerializedPass8TransferI14SafeBinaryReadEEvRT_
_zc:__Z71Register_UnityEngine_GUILayoutUtility_INTERNAL_CALL_Internal_MoveWindowv
sP:__ZN12AudioManager16SetListenerPauseEb
MRc:__ZNSt3__26__sortIRN10ClipperLib12LocMinSorterEPNS1_12LocalMinimumEEEvT0_S6_T_
cag:_SetPropertyUtility_SetStruct_TisSingle_t1397266774_m2805350785_gshared
NCg:_StringBuilder_get_Length_m3238060835
CPj:__ZN6il2cpp2vm9Exception25RaiseOutOfMemoryExceptionERKNS_5utils10StringViewIDsEE
zZg:_KeyValuePair_2_set_Value_m2953914627_AdjustorThunk
ea:invoke_viiiiiiiiiii
x8j:___syscall_ret
nWi:_DeriveBytes_set_Salt_m1400945044
nsd:_PointerEventData_set_worldNormal_m1888481930
Cvd:_CanvasScaler_set_referencePixelsPerUnit_m1768965301
c0i:_AnchorInfo__ctor_m46784903
aCe:_CipherSuiteCollection_get_Item_m4188309062
KHe:_SslHandshakeHash_HashFinal_m2573455475
zMe:_SynchronizationAttribute_ReleaseLock_m1030353464
v6b:__ZN14qsort_internal30FindAndMovePivotToLastPositionIP8Vector2fi26PointDistanceSortPredicateEEvT_S4_T0_T1_
lhd:__Z56Register_UnityEngine_Analytics_CustomEventData_AddDoublev
A8a:__ZN11ChannelInfo8TransferI19StreamedBinaryWriteILb0EEEEvRT_
uhj:__ZL25UnresolvedVirtualCall_150P12Il2CppObject23SpriteState_t1362986479S1_PK10MethodInfo
PJi:__ZL53ToggleGroup_t123837990_CustomAttributesCacheGeneratorP21CustomAttributesCache
eMf:_SHA1Internal_AddLength_m2737455899
nQb:__ZN14qsort_internal13Partition3WayIP17RODataReplacementi19ROSorterReplacementEENSt3__24pairIT_S6_EES6_S6_T0_T1_
Ihf:_InputField_CreateCursorVerts_m3585916868
QQg:_KeyValuePair_2_get_Value_m755756747_gshared
rmc:__Z34Register_UnityEngine_Gradient_Initv
sjf:_LayoutGroup_OnDidApplyAnimationProperties_m1333813659
fne:_GenericTypeParameterBuilder_IsArrayImpl_m67259334
NLe:_Context_ToString_m1073616138
Uje:_DefaultMemberAttribute_get_MemberName_m3384235354
y7a:__ZN13ScreenManager23SetIsOrientationEnabledE18EnabledOrientationb
Jfj:__ZL24UnresolvedVirtualCall_57P12Il2CppObjectiPK10MethodInfo
Tef:_InputField_EnforceTextHOverflow_m3400115777
JVh:_List_1_System_Collections_IEnumerable_GetEnumerator_m1225415523_gshared
ufh:__Z41RuntimeInvoker_TextureWrapMode_t584250749PFvvEPK10MethodInfoPvPS4_
QX:__ZN12LineRenderer23VirtualRedirectTransferER24GenerateTypeTreeTransfer
Heb:__ZN9InputAxis8TransferI19StreamedBinaryWriteILb0EEEEvRT_
mLd:__Z33il2cpp_codegen_check_sub_overflowxx
yek:dynCall_viififiii
Gff:_InputField_get_caretColor_m2973283772
Rcj:_ListPool_1_Release_m591299672_gshared
ali:__ZL79Convert_t2465617642_CustomAttributesCacheGenerator_Convert_ToUInt16_m3116648921P21CustomAttributesCache
z1e:_InternalEnumerator_1_MoveNext_m1096095130_AdjustorThunk
Kyh:_Collection_1_RemoveAt_m226266097_gshared
OOh:_UnityEvent_1_AddListener_m1590149461_gshared
qBi:__ZL63GUISkin_t1244372282_CustomAttributesCacheGenerator_m_ScrollViewP21CustomAttributesCache
b1f:_Double_System_IConvertible_ToInt16_m3591921965_AdjustorThunk
CJh:_Comparison_1_Invoke_m2925518770_gshared
FRa:__ZN10GameObject23VirtualRedirectTransferER18StreamedBinaryReadILb0EE
f6i:_SymmetricTransform__ctor_m2693628991
khe:_ObjectDisposedException__ctor_m1034312941
Ag:_glFrontFace
pSd:_FileSystemInfo_InternalRefresh_m1700260373
Azd:_Dropdown_OnSubmit_m1624226516
Oug:_RectOffset__ctor_m3236153262
Tuj:__ZNK15dense_hashtableINSt3__24pairIK10KeyWrapperIPK19Il2CppGenericMethodEPK26Il2CppGenericMethodIndicesEES6_N6il2cpp8metadata23Il2CppGenericMethodHashEN14dense_hash_mapIS6_SA_SE_NS6_14EqualsComparerINSD_26Il2CppGenericMethodCompareEEENS0_9allocatorISB_EEE9SelectKeyESI_SK_E12test_deletedEj
glf:_MaskUtilities_IsDescendantOrSelf_m2247511982
eah:__Z51RuntimeInvoker_UInt16_t2177724958_SByte_t1669577662PFvvEPK10MethodInfoPvPS4_
jVb:__ZNSt3__26vectorI16ShadowCasterData13stl_allocatorIS1_L18MemLabelIdentifier2ELi16EEE21__push_back_slow_pathIKS1_EEvRT_
o0g:__Z46RuntimeInvoker_Double_t594665363_RuntimeObjectPFvvEPK10MethodInfoPvPS4_
P9c:__Z51Register_UnityEngine_TextGenerator_GetLinesInternalv
Wcf:_Enumerator_get_Current_m2250080680_AdjustorThunk
S6i:_AesManaged_set_Key_m767972181
oKd:_Int16_System_IConvertible_ToBoolean_m1656400658_AdjustorThunk
h5d:_Byte_System_IConvertible_ToInt64_m285584218
vua:__ZN13GfxDeviceGLES22SetScissorRectPlatformERK5RectTIiE
gBa:__ZN6prcoreL17RemapGenericFloatI17TexFormatRGBFloat18TexFormatRGBAFloatEEvPKNS_9InnerInfoE
Oae:_DictionaryEntry_t3123975638_marshal_pinvoke_cleanup
$dg:_Array_InternalArray__ICollection_Add_TisDictionaryEntry_t3123975638_m665385049_gshared
fAj:_WritableAttribute__ctor_m1991076220
CWd:_MissingMemberException__ctor_m2707802176
cmd:__ZN20UnityConnectSettings10InitializeEv
lkj:_Canvas_get_renderMode_m841659411
I5a:__ZN15SerializeTraitsI13dynamic_arrayI28EnlightenRendererInformationLj8EEE19ResizeSTLStyleArrayERS2_i
VUc:__ZN16PhysicsManager2D12BeginContactEP9b2Contact
fEd:_SerializationInfo_GetValue_m42271953
NG:__ZN9AudioClip11CreateSoundEv
YIj:__ZN14dense_hash_mapI10KeyWrapperINSt3__24pairIPK9FieldInfoP11Il2CppClassEEEj17ReflectionMapHashIS8_ENS9_14EqualsComparerINS1_8equal_toIS8_EEEENS1_9allocatorINS2_IKS9_jEEEEEC2EjRKSB_RKSF_
uEj:__ZNK15dense_hashtableINSt3__24pairIK10KeyWrapperINS1_IPK10MethodInfoP11Il2CppClassEEEjEES9_17ReflectionMapHashIS8_EN14dense_hash_mapIS9_jSD_NS9_14EqualsComparerINS0_8equal_toIS8_EEEENS0_9allocatorISB_EEE9SelectKeyESI_SK_E13find_positionERSA_
m4b:__Z10tesvertLeqP10TESSvertexS0_
Cta:__ZN13GfxDeviceGLES20CreateComputeProgramEPKhj
qbj:_Timescript__ctor_m282304186
sld:__ZN11UnityEngine7Connect16PersistentValues13RestoreValuesER8JSONRead
h7h:__ZL65RuntimeArray_CustomAttributesCacheGenerator_Array_Sort_m182264525P21CustomAttributesCache
e7f:_Guid_BaseToString_m3600006650
kPa:__ZN20ArchiveStorageReader31TryToReadDirectoryFromBlockDataEyPKvj
ypd:_PointerEventData_set_pointerEnter_m3256217464
IRj:__ZN6il2cpp2vmL11GetIdentityEP14Il2CppIUnknown
$1j:_GC_push_gc_structures
lFe:_TlsServerCertificate_ProcessAsTls1_m819212276
$Sh:_List_1_System_Collections_Generic_ICollectionU3CTU3E_get_IsReadOnly_m507350231_gshared
yRi:_Dictionary_2_Do_ICollectionCopyTo_TisRuntimeObject_m3942192587_gshared
jzj:__ZN6il2cpp6icalls8mscorlib6SystemL8IsPublicEPK9EventInfo
aDi:__ZL139RectTransformUtility_t1743242446_CustomAttributesCacheGenerator_RectTransformUtility_INTERNAL_CALL_RectangleContainsScreenPoint_m1214874141P21CustomAttributesCache
gye:_PrimalityTests_RabinMillerTest_m2544317101
dEa:__Z22GetShaderCachePathGLESv
rxe:_Kernel_DwordDivMod_m1540317819
pMh:_CachedInvokableCall_1_Invoke_m931536002_gshared
b1h:_Enumerator_System_Collections_IEnumerator_get_Current_m1399273671_gshared
Ope:_TypeBuilder_GetPropertyImpl_m3104345782
U8a:__ZNSt3__213__stable_sortIRNS_4lessI4PPtrI11SpriteAtlasEEENS_11__wrap_iterIPS4_EEEEvT0_SA_T_NS_15iterator_traitsISA_E15difference_typeEPNSD_10value_typeEi
COd:_Int64_ToString_m2085073918_AdjustorThunk
gcf:_Transform_1_Invoke_m4084479750_gshared
uqe:_FieldInfo_GetFieldOffset_m1356898082
hsh:__Z36RuntimeInvoker_Enumerator_t652329154PFvvEPK10MethodInfoPvPS4_
jdg:_Array_InternalArray__IndexOf_TisTypeTag_t3541821701_m2988972362_gshared
X9:__ZN8keywords6CreateEPKc
Tmj:__ZL7log2_32j
S:Math_imul
l$g:_Enumerator_Dispose_m786980821_AdjustorThunk
omh:__Z49RuntimeInvoker_Boolean_t97287965_Byte_t1134296376PFvvEPK10MethodInfoPvPS4_
rdb:__ZN14SpriteRenderer15SetupPropertiesEv
GFe:_TlsServerKeyExchange_Update_m453798279
L6a:__ZN11PlayerPrefs6GetIntERKN4core12basic_stringIcNS0_20StringStorageDefaultIcEEEEi
hCe:_CipherSuiteCollection_System_Collections_IList_IndexOf_m1361500977
Urf:_Text_set_fontStyle_m648756124
x9c:__Z45TextGenerator_CUSTOM_INTERNAL_get_rectExtentsP12Il2CppObjectP5RectTIfE
Neh:__Z50RuntimeInvoker_Touch_t1921856868_Int32_t2950945753PFvvEPK10MethodInfoPvPS4_
MVf:_DateTime__ctor_m2135476686_AdjustorThunk
JPe:_SoapFieldAttribute_IsInteropXmlElement_m2819415462
Cvg:_RectTransform_GetLocalCorners_m823861473
MNa:__Z18ReadStringFromFilePN4core17string_with_labelILi1EEERKNS_12basic_stringIcNS_20StringStorageDefaultIcEEEE
qVg:_EqualityComparer_1__ctor_m3717935020_gshared
Oog:_LineRenderer_SetWidth_m4045074374
UJh:_Comparison_1_EndInvoke_m2734814639_gshared
a$:__ZN18ScriptingArguments9AddObjectE18ScriptingObjectPtr
Ldd:__Z39CanvasGroup_Get_Custom_PropInteractableP12Il2CppObject
XR:__ZN11UnityEngine15CloudWebService16SessionContainerD2Ev
Cld:__ZL38InitializeUnityConnectScriptingClassesv
wZb:__ZN13ProbeRenderer8ConvolveEbijjb
L5i:_GUIUtility_set_systemCopyBuffer_m608712289
wxa:__ZN17GenericDynamicVBOC2ER9GfxDevice13GfxBufferModejj
PPc:__Z28GetPhysics2DScriptingClassesv
hyc:__ZZN10GUIManager14InitGUIManagerEvEN41PreUpdateIMGUISendQueuedEventsRegistrator7ForwardEv
lDf:_ServicePointManager_get_SecurityProtocol_m966397919
aEa:__ZN13dynamic_arrayIN18GlslGpuProgramGLES9GLProgramELj4EE6insertEPS1_jRKS1_
WUg:_EqualityComparer_1_System_Collections_IEqualityComparer_Equals_m2639327655_gshared
N3f:_CCGregorianCalendar_day_from_fixed_m1674702403
oT:__ZN11UnityEngine15CloudWebService17SessionEventQueue10PurgeItemsEj
a_b:__ZN6Camera16StandaloneRenderENS_10RenderFlagEP6ShaderRKN4core12basic_stringIcNS3_20StringStorageDefaultIcEEEE
OFf:_X509Chain_PrepareForNextCertificate_m3691934993
Q2a:__ZNK12CubemapArray13GetIsReadableEv
xAb:__Z18Transfer_BlittableI18StreamedBinaryReadILb1EELb1EtEvRK29SerializationCommandArgumentsR31RuntimeSerializationCommandInfo
KAi:__ZL58EventType_t3528516131_CustomAttributesCacheGenerator_keyUpP21CustomAttributesCache
ngi:__ZL57X509Certificate_t713131622_CustomAttributesCacheGeneratorP21CustomAttributesCache
Mbb:__ZN12BoneWeights48TransferI19StreamedBinaryWriteILb0EEEEvRT_
Hra:__ZN9GfxDevice20DeallocRenderSurfaceEP17RenderSurfaceBase
Jef:_ValueCollection_System_Collections_Generic_ICollectionU3CTValueU3E_get_IsReadOnly_m1110422367_gshared
_na:__ZN20GpuProgramParameters36UpdatePrepareValuesMaximumBufferSizeEv
Eej:_AudioSourceExtension_Stop_m387892536
h0h:_List_1_System_Collections_IEnumerable_GetEnumerator_m1355413981_gshared
ftf:_SimpleCollator_GetContraction_m2205549079
Vzg:_Vector3__ctor_m1719387948_AdjustorThunk
SDh:_ReadOnlyCollection_1_System_Collections_IList_get_IsReadOnly_m3888539454_gshared
zea:__ZN13RuntimeStaticI10WatermarksLb0EE13StaticDestroyEPv
Qye:_ARC4Managed_GenerateKey_m1607343060
qfg:_Array_InternalArray__ICollection_CopyTo_TisDecimal_t2948259380_m2749946216_gshared
DGe:_ReceiveRecordAsyncResult_get_ResultingBuffer_m1839161335
dTa:__ZN12BaseRenderer23RendererBecameInvisibleEv
wme:_EnumBuilder_IsPointerImpl_m2644353933
IMe:_EnvoyInfo__ctor_m276600651
k6c:__ZN20TextRenderingPrivate8FontImpl13CharacterInfo8TransferI18StreamedBinaryReadILb0EEEEvRT_
Mxb:__Z29Transfer_Blittable_ArrayFieldI24GenerateTypeTreeTransferfEvRT_R9ArrayInfoRK23StaticTransferFieldInfo
zca:__ZNSt3__26__treeINS_12__value_typeIN4core12basic_stringIcNS2_20StringStorageDefaultIcEEEES6_EENS_19__map_value_compareIS6_S7_NS_4lessIS6_EELb1EEE13stl_allocatorIS7_L18MemLabelIdentifier13ELi16EEE7destroyEPNS_11__tree_nodeIS7_PvEE
jng:_UnityEvent_FindMethod_Impl_m2312362624
q$b:__ZN19CustomRenderTexture9AddParentE4PPtrIS_E
K7:__ZN8Gradient8TransferI14SafeBinaryReadEEvRT_
Iig:_Vector3_GetHashCode_m2879461828
e$i:_Parser_ParseSpecial_m1961501104
pRf:_Single_System_IConvertible_ToUInt64_m3299129161_AdjustorThunk
h1a:__ZNSt3__26vectorIN4core12basic_stringIcNS1_20StringStorageDefaultIcEEEE13stl_allocatorIS5_L18MemLabelIdentifier1ELi16EEE7reserveEj
ZCi:__ZL93CanvasRenderer_t2598313366_CustomAttributesCacheGenerator_CanvasRenderer_set_cull_m4222419074P21CustomAttributesCache
TGg:_TimerCallback_BeginInvoke_m2250763656
qef:_ValueCollection_System_Collections_Generic_ICollectionU3CTValueU3E_Contains_m3110959791_gshared
SCf:_IPv6Address_AsIPv4Int_m844941024
Ihe:_Random__ctor_m3209279193
bGe:_RecordProtocol__cctor_m1280873827
jwe:_Marshal__cctor_m4007734770
V0j:_GC_new_free_list_inner
Zyf:_SymmetricTransform_Random_m2004892672
Ech:__Z79RuntimeInvoker_Void_t1185182177_RuntimeObject_Byte_t1134296376_Byte_t1134296376PFvvEPK10MethodInfoPvPS4_
bAe:_EncryptedPrivateKeyInfo_get_IterationCount_m2912222740
A0j:_GC_err_printf
Wfj:__ZL24UnresolvedVirtualCall_70P12Il2CppObjectPK10MethodInfo
Pai:__ZL63PathTooLongException_t2919094560_CustomAttributesCacheGeneratorP21CustomAttributesCache
uAe:_RSAManaged_DecryptValue_m1804388365
CUe:_InternalEnumerator_1_System_Collections_IEnumerator_get_Current_m2980550840_AdjustorThunk
HGc:__ZN8JSONRead8TransferI10RectOffsetEEvRT_PKc17TransferMetaFlagsb
GSj:__ZNK15dense_hashtableINSt3__24pairIK10KeyWrapperINS1_IPKcS4_EEEiEES6_24NamespaceAndNamePairHashN14dense_hash_mapIS6_iS9_NS6_14EqualsComparerI26NamespaceAndNamePairEqualsEENS0_9allocatorIS8_EEE9SelectKeyESD_SF_E12test_deletedERK24dense_hashtable_iteratorIS8_S6_S9_SH_SD_SF_E
YS:__ZN9JSONWrite8TransferIN11UnityEngine15CloudWebService14DataErrorEvent15FileErrorDetailEEEvRT_PKc17TransferMetaFlags
Fvh:_Collection_1_ClearItems_m2728738230_gshared
nNd:_Int32_Parse_m2087562008
PVa:__Z21ClearFenceWithoutSyncR8JobFence
ecg:_Array_compare_TisVector4_t3319028937_m1974066282_gshared
ite:_MonoProperty_GetAccessors_m412928203
wcj:_TweenRunner_1_Start_m3757154622_gshared
TJ:__ZN12SoundManager20RegisterModifiedClipEP10SampleClip
XIe:_RemotingServices_GetClientChannelSinkChain_m1499550585
gie:_Assembly_FillName_m1660001542
Wdi:__ZL56_EventBuilder_t2558055199_CustomAttributesCacheGeneratorP21CustomAttributesCache
eof:_ScrollRect_get_decelerationRate_m74583805
EMf:_SHA384Managed_processBlock_m1272529332
xM:__ZN11AudioSource4PlayEd
c7d:_Char_ToString_m278452217_AdjustorThunk
Msj:__ZN15dense_hashtableI10KeyWrapperIPK17Il2CppGenericInstES4_N6il2cpp8metadata21Il2CppGenericInstHashEN14dense_hash_setIS4_S7_NS4_14EqualsComparerINS6_24Il2CppGenericInstCompareEEENSt3__29allocatorIS4_EEE8IdentityESB_SE_E13set_empty_keyERKS4_
G1g:__Z63RuntimeInvoker_Char_t3634460470_Int16_t2552820387_RuntimeObjectPFvvEPK10MethodInfoPvPS4_
Xee:_Convert_ToDouble_m2924063577
Unb:__ZNK20LocalFileSystemPosix8IsHiddenERK13FileEntryData
rPh:_Enumerator_System_Collections_IEnumerator_get_Current_m3594024719_gshared
z2e:_InternalEnumerator_1_System_Collections_IEnumerator_Reset_m1601477281_AdjustorThunk
Kje:_CustomAttributeNamedArgument_ToString_m1488801416_AdjustorThunk
def:_ValueCollection_System_Collections_Generic_ICollectionU3CTValueU3E_Remove_m3673494156_gshared
VCi:__ZL113CanvasRenderer_t2598313366_CustomAttributesCacheGenerator_CanvasRenderer_SplitUIVertexStreamsInternal_m3280623346P21CustomAttributesCache
J3a:__ZN7Cubemap23VirtualRedirectTransferER18StreamedBinaryReadILb0EE
p9e:_Enumerator_MoveNext_m76191888_AdjustorThunk
d2e:_InternalEnumerator_1__ctor_m1739091604_gshared
Hnc:__ZNSt3__27__sort4IRNS_6__lessI11KeyframeTplIfES3_EEPS3_EEjT0_S7_S7_S7_T_
N2c:_Read_CVT
lM:__ZN11AudioSource23VirtualRedirectTransferER19StreamedBinaryWriteILb0EE
htf:_SimpleCollator_GetTailContraction_m2107754083
Awb:__ZL26Transfer_SimpleNativeClassI24GenerateTypeTreeTransfer17AnimationCurveTplIfELb0EEvRK29SerializationCommandArgumentsR31RuntimeSerializationCommandInfo
Iee:_Convert_ToDecimal_m1783778724
HHc:__ZN8JSONRead21TransferSTLStyleArrayI13dynamic_arrayI9BoundsIntLj4EEEEvRT_17TransferMetaFlags
Q5a:__ZN24GenerateTypeTreeTransfer8TransferI13dynamic_arrayI33EnlightenTerrainChunksInformationLj4EEEEvRT_PKc17TransferMetaFlags
CWf:_DateTimeFormatInfo__ctor_m3106345035
ZCe:_TlsServerKeyExchange_verifySignature_m3412856769
wUg:_EqualityComparer_1_System_Collections_IEqualityComparer_GetHashCode_m4137147946_gshared
Wda:__ZN16LightmapSettings20DidChangeActiveSceneEP10UnitySceneS1_
ayb:__Z18Transfer_BlittableI19StreamedBinaryWriteILb0EELb0EN4math12int3_storageEEvRK29SerializationCommandArgumentsR31RuntimeSerializationCommandInfo
aNi:__ZL59g_AssemblyU2DCSharp_Assembly_CustomAttributesCacheGeneratorP21CustomAttributesCache
xzj:__ZN6il2cpp5utils9PathUtils8BasenameIcEENSt3__212basic_stringIT_NS3_11char_traitsIS5_EENS3_9allocatorIS5_EEEERKSA_
JQe:_RemotingProxy__cctor_m4096951805
Mzc:__Z35Register_UnityEngine_Event_get_typev
NPj:__ZN6il2cpp2vm9Exception23GetInvalidCastExceptionERKNS_5utils10StringViewIDsEE
Osc:_UNITY_png_free
DIi:__ZL64Scrollbar_t1494447233_CustomAttributesCacheGenerator_m_DirectionP21CustomAttributesCache
Bz:__ZN8Animator28BuildControllerPlayableCacheEv
Tei:__ZL48Header_t549724581_CustomAttributesCacheGeneratorP21CustomAttributesCache
CCi:__ZL88CanvasGroup_t4083511760_CustomAttributesCacheGenerator_CanvasGroup_get_alpha_m2918269489P21CustomAttributesCache
qhh:__Z36RuntimeInvoker_EventType_t3528516131PFvvEPK10MethodInfoPvPS4_
JZ:__Z63ThreadAndSerializationSafeCheckGetMonoBehaviourBeingTransferredv
B0f:_StackTrace__ctor_m206492268
HUh:_List_1_set_Item_m4224739467_gshared
nbj:_Resoluation__ctor_m1682530065
J3g:__Z74RuntimeInvoker_Int32_t2950945753_RuntimeObject_RuntimeObject_RuntimeObjectPFvvEPK10MethodInfoPvPS4_
zxd:_ColorTween_set_startColor_m2562993758_AdjustorThunk
Ake:_ConstructorBuilder_get_Name_m2426555260
onc:__Z37Register_UnityEngine_Input_GetAxisRawv
Eni:__ZL80ModulusRing_t596511505_CustomAttributesCacheGenerator_ModulusRing_Pow_m729002192P21CustomAttributesCache
f$i:_Parser_ParseCharacterClass_m4285351396
Ufe:_Convert_ToSByte_m2653418303
hce:_SyncHashtable__ctor_m2449935938
jM:__ZN11AudioSource5ResetEv
QLf:_RSAPKCS1SignatureFormatter_SetKey_m2935054088
NPb:__ZN12ImageFilters27SetSurfaceUseResolvedBufferEP13RenderTextureb
h9a:__ZN14Texture2DArray23VirtualRedirectTransferER18StreamedBinaryReadILb0EE
mEg:_UTF7Encoding_GetByteCount_m209415911
Elb:__ZN2UI13RectTransform13AwakeFromLoadE17AwakeFromLoadMode
N1i:_RegularExpression_Compile_m2385682508
X3f:_CompareInfo__cctor_m1837489679
Hri:__ZL90GameObject_t1113636619_CustomAttributesCacheGenerator_GameObject_get_transform_m1369836730P21CustomAttributesCache
JUb:__ZN14qsort_internal30FindAndMovePivotToLastPositionIP20ShadowCasterSortDatai26ShadowCasterSortDataSorterEEvT_S4_T0_T1_
wfi:__ZL60IRemotingTypeInfo_t2222593263_CustomAttributesCacheGeneratorP21CustomAttributesCache
Ypb:__Z18Transfer_BlittableI14SafeBinaryReadLb1EiEvRK29SerializationCommandArgumentsR31RuntimeSerializationCommandInfo
UFf:_X509ExtensionEnumerator_get_Current_m256207749
_8:__GLOBAL__sub_I_modules_profiler_public_0_cpp
YLh:_Predicate_1__ctor_m3829092036_gshared
ekb:__ZN17PersistentManager13GetAllFileIDsERKN4core12basic_stringIcNS0_20StringStorageDefaultIcEEEER13dynamic_arrayIxLj8EE
Fii:__ZL83StringBuilder_t_CustomAttributesCacheGenerator_StringBuilder_AppendLine_m1438862993P21CustomAttributesCache
B2d:_Array_Sort_m182264525
_if:_LayoutGroup_set_padding_m282562135
c3h:_Collection_1_System_Collections_IList_get_IsReadOnly_m773226719_gshared
cje:_Default_IsArrayAssignable_m953489228
HD:__ZNK4PPtrI8RendererEcvPS0_Ev
lKj:_il2cpp_field_get_offset
NKg:_UInt16_ToString_m355311020_AdjustorThunk
mJd:_RC2__ctor_m1146135664
eNh:_InvokableCall_1_remove_Delegate_m667188944_gshared
CMe:_SynchronizedClientContextSink__ctor_m4129963630
Qk:_glGetStringi
CUf:_DecoderExceptionFallback_CreateFallbackBuffer_m1133375601
GTj:__ZNK15dense_hashtableI10KeyWrapperIP18Il2CppGenericClassES3_N6il2cpp8metadata22Il2CppGenericClassHashEN14dense_hash_setIS3_S6_NS3_14EqualsComparerINS5_25Il2CppGenericClassCompareEEENSt3__29allocatorIS3_EEE8IdentityESA_SD_E10test_emptyERK30dense_hashtable_const_iteratorIS3_S3_S6_SF_SA_SD_E
E7e:_Enumerator_get_CurrentKey_m889650866_gshared
a2a:__ZNSt3__26__treeINS_12__value_typeIN9ShaderLab16FastPropertyNameEN18UnityPropertySheet11UnityTexEnvEEENS_19__map_value_compareIS3_S6_NS_4lessIS3_EELb1EEENS_9allocatorIS6_EEE12__find_equalIS3_EERPNS_16__tree_node_baseIPvEENS_21__tree_const_iteratorIS6_PNS_11__tree_nodeIS6_SG_EEiEESJ_RKT_
bab:__ZN18StreamedBinaryReadILb0EE21TransferSTLStyleArrayI13dynamic_arrayI8Vector4fLj4EEEEvRT_17TransferMetaFlags
H5e:_Comparer_1_get_Default_m1513846993_gshared
ozf:_EncryptedData_get_EncryptionAlgorithm_m1297902161
FGi:__ZL67OptionDataList_t1438173104_CustomAttributesCacheGenerator_m_OptionsP21CustomAttributesCache
TA:__ZN8Animator9WriteStepEy
X6e:_Enumerator_VerifyCurrent_m829026141_gshared
Zdc:__ZN16PropertyAccessorC2Ev
U6a:__ZNSt3__23mapIN4core12basic_stringIcNS1_20StringStorageDefaultIcEEEE9PrefValueNS_4lessIS5_EENS_9allocatorINS_4pairIKS5_S6_EEEEEixERSB_
VAb:__Z35Transfer_Blittable_FixedBufferFieldI18StreamedBinaryReadILb1EEaEvRK29SerializationCommandArgumentsR31RuntimeSerializationCommandInfo
tdc:__ZN15DirectorManager22ConstructPlayableGraphEv
CIi:__ZL65Scrollbar_t1494447233_CustomAttributesCacheGenerator_m_HandleRectP21CustomAttributesCache
k7a:__ZN13ScreenManager16SetScreenTimeoutEi
bvb:__Z18Transfer_BlittableI17RemapPPtrTransferLb0EdEvRK29SerializationCommandArgumentsR31RuntimeSerializationCommandInfo
f4h:_Collection_1_ConvertItem_m1743542180_gshared
E9c:__Z38Register_UnityEngine_Font_HasCharacterv
Nrh:__Z68RuntimeInvoker_Boolean_t97287965_Int16_t2552820387_Int16_t2552820387PFvvEPK10MethodInfoPvPS4_
GYb:__Z35IntersectSpherePlaneBoundsOptimizedRKN4math7_float4EPS1_i
hpc:__Z54Register_UnityEngine_SpriteRenderer_SetSprite_INTERNALv
XKf:_RNGCryptoServiceProvider__cctor_m3587754670
lZe:_InternalEnumerator_1_MoveNext_m1728532725_AdjustorThunk
nYi:_X509Crl_get_IssuerName_m1792797338
JTh:_List_1_get_Count_m241572196_gshared
uWj:__ZN6il2cpp2os5posix15PosixWaitObject13InterruptWaitEv
tda:__Z22CleanupLODGroupManagerPv
Izc:__Z21Event_CUSTOM_PopEventP12Il2CppObject
Al:_glUniform3fv
P6j:__ZNK6il2cpp8metadata24Il2CppGenericInstCompareclERK10KeyWrapperIPK17Il2CppGenericInstES8_
chb:__ZNSt3__218__insertion_sort_3IRN15ResourceManager10Dependency6SorterEPS2_EEvT0_S6_T_
nGf:_X509ChainElement_Set_m655180762
snj:_CustomEventData_AddInt32_m548429697
frg:_MonoBehaviour_StopCoroutine_m615723318
mtg:_Quaternion_GetHashCode_m2636680144
uTb:__ZNK16LightmapSettings31GetRealtimeLightmapDecodeValuesEv
lL:__ZN5audio5mixer12SetSuspendedERNS0_16AudioMixerMemoryEb
Ykb:__ZN17PersistentManager21UnloadNonDirtyStreamsEv
CDg:_UnicodeDecoder__ctor_m3606046165
J8g:__Z96RuntimeInvoker_Int32_t2950945753_RuntimeObject_Int32_t2950945753_RuntimeObject_Int32_t2950945753PFvvEPK10MethodInfoPvPS4_
F7i:_AnalyticsEventTracker_OnEnable_m1121905268
n2i:_Uri_get_Parser_m3737125102
ukj:_Canvas_get_overrideSorting_m2740418462
tlg:_Debug_LogFormat_m309087137
nug:_Rect_set_xMin_m2413290617_AdjustorThunk
iab:__ZN12ImageFilters4BlitER17ShaderPassContextP7TextureP13RenderTextureiPK18SharedMaterialDataPKcP6ShaderiNS_9BlitFlagsE11CubemapFaceRK8Vector2fSH_
bTf:_String_LastIndexOf_m3451222878
bZi:_Mark_get_Index_m3048692661
gKi:__ZL69CanvasScaler_t2767979955_CustomAttributesCacheGenerator_m_ScaleFactorP21CustomAttributesCache
MOg:_Dictionary_2_ToTValue_m692436965_gshared
yT:__ZN11UnityEngine15CloudWebService10RestClientINS0_23WebRequestRestHeaderMapEED2Ev
DKh:_U3CCreateWhereIteratorU3Ec__Iterator1D_1__ctor_m1723214851_gshared
Wl:_emscripten_glDepthMask
OIe:_RemotingServices_CreateClientProxy_m3886727610
Lya:__ZN4crnd25static_huffman_data_model22prepare_decoder_tablesEv
J4a:__ZN9Texture2D23VirtualRedirectTransferER17RemapPPtrTransfer
eig:_AssetBundleRequest_t699759206_marshal_pinvoke
HSg:_DefaultComparer__ctor_m1292755885_gshared
gGe:_RecordProtocol_GetMessage_m2086135164
Hyc:__Z23GUIStatePopDisplayIndexv
cDb:__Z18Transfer_BlittableI18StreamedBinaryReadILb0EELb0E10ColorRGBAfEvRK29SerializationCommandArgumentsR31RuntimeSerializationCommandInfo
$da:__Znaj
wnk:_emscripten_glEnableClientState__wrapper
sxi:__ZL60PlayableBehaviour_t4203540982_CustomAttributesCacheGeneratorP21CustomAttributesCache
Jaa:__ZN17MessageIdentifierC2EPKcNS_7OptionsEPKN5Unity4TypeES1_
I1g:__Z45RuntimeInvoker_Void_t1185182177_RuntimeObjectPFvvEPK10MethodInfoPvPS4_
O8a:__ZN13dynamic_arrayI4PPtrI6SpriteELj4EE9push_backERKS2_
Zqg:_Mesh_SetTriangles_m1523451247
eRf:_Single_System_IConvertible_ToSByte_m1208276900
hOi:_Array_InternalArray__set_Item_TisVector4_t3319028937_m757305038_gshared
aTa:__ZN11GameManager15ThreadedCleanupEv
a7g:__Z105RuntimeInvoker_Void_t1185182177_RuntimeObject_RuntimeObject_RuntimeObject_RuntimeObject_Int32_t2950945753PFvvEPK10MethodInfoPvPS4_
Odf:_ValueCollection_System_Collections_Generic_ICollectionU3CTValueU3E_Add_m3298059628_gshared
b2g:__Z64RuntimeInvoker_RuntimeObject_Int16_t2552820387_Int16_t2552820387PFvvEPK10MethodInfoPvPS4_
NQ:__Z55Register_UnityEngine_AudioSource_get_spatializeInternalv
XMi:__ZL71TrackableTrigger_t621205209_CustomAttributesCacheGenerator_m_MethodPathP21CustomAttributesCache
$La:__ZN14SafeBinaryRead8TransferI14ConstantStringEEvRT_PKc17TransferMetaFlags
_Nb:__ZNK6Camera16GetStereoEnabledEv
voi:__ZL90HttpWebRequest_t1669436515_CustomAttributesCacheGenerator_HttpWebRequest__ctor_m1789065007P21CustomAttributesCache
Kbh:__Z72RuntimeInvoker_Int32_t2950945753_TimeSpan_t881159249_TimeSpan_t881159249PFvvEPK10MethodInfoPvPS4_
HGe:_SendRecordAsyncResult_SetComplete_m153213906
Eoa:__ZL24FindBelongingStructParamRPKcRNSt3__26vectorIN9ShaderLab20SerializedSubProgram14ConstantBufferENS2_9allocatorIS6_EEEE
uac:__ZN12LightManager15InitializeClassEv
XGg:_WaitHandle__cctor_m4242752477
g0a:__ZN9ShaderLab11shaderprops16GetComputeBufferEPK19ShaderPropertySheetS3_NS_16FastPropertyNameE
S_j:__ZN6il2cpp6icalls8mscorlib6System10Reflection10MethodBase31GetMethodFromHandleInternalTypeEii
q$:__ZN18ScriptingArgumentsC2Ev
cjg:_Vector3_op_Equality_m4231250055
UOg:_Dictionary_2_System_Collections_IDictionary_get_Item_m1524611028_gshared
jqh:__Z59RuntimeInvoker_ContactPoint2D_t3390240644_Int32_t2950945753PFvvEPK10MethodInfoPvPS4_
Pik:_emscripten_glBlendFuncSeparate__wrapper
aAi:__ZL68GUISettings_t1774757634_CustomAttributesCacheGenerator_m_CursorColorP21CustomAttributesCache
zQd:_FileSystemInfo__ctor_m3769019897
dTi:_Array_InternalArray__get_Item_TisContentType_t1787303396_m421427711_gshared
mug:_Rect_get_xMin_m581135837_AdjustorThunk
Ova:__Z17HasSampledTexture14GraphicsFormat13formatSupport
nPb:__ZNK25CameraStackRenderingState27GetStereoImageEffectTextureEb
GId:_HMACSHA384__ctor_m1677515580
TKf:_RIPEMD160Managed_J_m1336489154
Op:__ZN8Vector3f8TransferI14SafeBinaryReadEEvRT_
Vwj:__ZN6il2cpp6icalls6System6System3Net7Sockets6Socket7ReceiveEiP11Il2CppArrayiiNS4_11SocketFlagsEPi
$gc:__ZN13BuildSettings13GetSceneIndexERKN4core12basic_stringIcNS0_20StringStorageDefaultIcEEEE
Qo:FUNCTION_TABLE_ii
VSa:__ZN10TagManager8TransferI18StreamedBinaryReadILb0EEEEvRT_
lwh:_Collection_1_System_Collections_IList_get_IsReadOnly_m2202364665_gshared
hDc:__Z18Transfer_BlittableI9JSONWriteLb0E8BitFieldEvRK29SerializationCommandArgumentsR31RuntimeSerializationCommandInfo
zSd:_MemoryStream_set_Capacity_m1773624579
wLj:__ZNK15dense_hashtableINSt3__24pairIK10KeyWrapperINS1_IP11Il2CppClassjEEES4_EES6_N6il2cpp8metadata14ArrayClassHashEN14dense_hash_mapIS6_S4_SB_NS6_14EqualsComparerINSA_17ArrayClassCompareEEENS0_9allocatorIS8_EEE9SelectKeyESF_SH_E10test_emptyEj
mrf:_SpriteState_set_pressedSprite_m3368686500_AdjustorThunk
Oja:__ZNSt3__26vectorIN9ShaderLab20SerializedSubProgram15StructParameterENS_9allocatorIS3_EEE8__appendEj
Ab:invoke_diiii
_ec:__ZNK6Sprite15GenerateOutlineEfhbRNSt3__26vectorI13dynamic_arrayI8Vector2fLj4EENS0_9allocatorIS4_EEEEi
l8i:_EventTrigger_set_initTime_m3128947762
Pdh:__Z95RuntimeInvoker_Void_t1185182177_RuntimeObject_RuntimeObject_SByte_t1669577662_SByte_t1669577662PFvvEPK10MethodInfoPvPS4_
zNa:__Z24CreateDirectoryRecursiveRKN4core12basic_stringIcNS_20StringStorageDefaultIcEEEE
chk:b41
ima:__ZN9ShaderLab20SerializedSubProgram8TransferI18StreamedBinaryReadILb0EEEEvRT_
yHe:_SslClientStream_get_HaveRemoteValidation2Callback_m2858953511
bhk:b40
eha:__ZN19ThreadSpecificValueIP14StackAllocatorE15ReinitializeTLSEPv
nXb:__Z9EndJobSetR8JobFence11JobPriority
rvi:__ZL54ContextMenu_t1295656858_CustomAttributesCacheGeneratorP21CustomAttributesCache
jaa:__ZN13RuntimeStaticI21ScalableBufferManagerLb0EE13StaticDestroyEPv
kad:__ZN2UI13CanvasManager9AddCanvasEPNS_6CanvasE
$9a:__ZN9Texture3D8TransferI19StreamedBinaryWriteILb0EEEEvRT_
SPb:__ZNK6Camera22CalculateRenderingPathEv
BEc:__ZN9JSONWrite8TransferI5RectTIfEEEvRT_PKc17TransferMetaFlags
t0d:_Hashtable_TestPrime_m3839319309
CC:__ZN11UnityEngine9Animation37SetGenericRootTransformPropertyValuesERKNS0_30AnimatorGenericBindingConstantERKN7mecanim10ValueArrayER9Transformbb
YEa:__Z13ConvertMipmap14GraphicsFormatPKvS_Pviiii
Kpd:_BaseRaycaster_get_renderOrderPriority_m1110184610
Lzf:_PKCS12_get_IterationCount_m626423090
gvb:__ZL12InvokeMethodI17RemapPPtrTransferEvRK29SerializationCommandArgumentsR31RuntimeSerializationCommandInfo
WBf:_RemoteCertificateValidationCallback_Invoke_m3086073466
aUf:_StringComparer_Compare_m991165676
u0c:_tt_sbit_decoder_load_image
nWe:_InternalEnumerator_1_MoveNext_m3299696349_AdjustorThunk
TLc:__ZN15b2DistanceJointD0Ev
cMj:__ZN15dense_hashtableINSt3__24pairIK10KeyWrapperIP11Il2CppClassES4_EES5_N6il2cpp8metadata16SZArrayClassHashEN14dense_hash_mapIS5_S4_SA_NS5_14EqualsComparerINS9_19SZArrayClassCompareEEENS0_9allocatorIS7_EEE9SelectKeyESE_SG_EC2EjRKSA_RKSE_RKSI_
icj:_U3CStartU3Ec__Iterator0_Dispose_m261027331_gshared
XFa:__ZN4core8hash_mapIPK17RenderSurfaceBaseP13RenderTexture19PointerHashFunctionIS3_ENSt3__28equal_toIS3_EEE6insertERKNS8_4pairIKS3_S5_EE
Byc:__ZNSt3__24listIN10GUIManager12SortedScriptE11memory_poolIS2_EE6__sortI13OldSortScriptEENS_15__list_iteratorIS2_PvEESA_SA_jRT_
NWg:_EqualityComparer_1_System_Collections_IEqualityComparer_GetHashCode_m2588073987_gshared
bVh:_List_1_AddEnumerable_m3500350831_gshared
Tvj:__ZN24dense_hashtable_iteratorINSt3__24pairIK10KeyWrapperIPK11Il2CppClassEPKcEES6_N6il2cpp5utils11PointerHashIS3_EEN14dense_hash_mapIS6_S9_SE_NS6_14EqualsComparerINS0_8equal_toIS5_EEEENS0_9allocatorISA_EEE9SelectKeyESJ_SL_E30advance_past_empty_and_deletedEv
b8:__ZN12LineRenderer8TransferI18StreamedBinaryReadILb0EEEEvRT_
fAe:_PrivateKeyInfo_get_PrivateKey_m3647771102
Jjd:__ZN18UnityConnectClient12CloseServiceEv
Lub:__Z18Transfer_BlittableI17RemapPPtrTransferLb1E8BitFieldEvRK29SerializationCommandArgumentsR31RuntimeSerializationCommandInfo
tOj:__ZN6il2cpp6icalls8mscorlib6System9ThreadingL11ThreadStartEPv
Tfa:__ZN15DirectorManager12OnSampleTimeEv
Joe:_TypeBuilder_check_not_created_m3652863637
P2i:_Uri_GetHashCode_m321999866
Jtd:_StandaloneInputModule_UpdateModule_m450861257
kjj:_Font_add_textureRebuilt_m2164317336
iIh:_ReadOnlyCollection_1_System_Collections_IList_Insert_m2928873627_gshared
BL:__ZNK4PPtrI10AudioMixerEptEv
dWg:_EqualityComparer_1__cctor_m314889309_gshared
Q6:__ZN12CachedReader10Align4ReadEv
TMc:__ZN15b2WorldManifold10InitializeEPK10b2ManifoldRK11b2TransformfS5_f
nTg:_DefaultComparer_GetHashCode_m556015105_gshared
$Wi:_X501__cctor_m2428304915
tkj:_Canvas_get_renderOrder_m1489855841
A2g:__Z50RuntimeInvoker_Void_t1185182177_Single_t1397266774PFvvEPK10MethodInfoPvPS4_
TDi:__ZL77ExecuteEvents_t3484638744_CustomAttributesCacheGenerator_U3CU3Ef__mgU24cache1P21CustomAttributesCache
G3i:_Event_ToString_m1688862299
Lch:__Z70RuntimeInvoker_Boolean_t97287965_RuntimeObject_IPAddressU26_t589322682PFvvEPK10MethodInfoPvPS4_
_hh:__Z105RuntimeInvoker_Void_t1185182177_Vector2U26_t2376273893_RuntimeObject_RuntimeObject_Vector2U26_t2376273893PFvvEPK10MethodInfoPvPS4_
aLa:__ZNK9Behaviour22GetTypeVirtualInternalEv
M3f:_CCGregorianCalendar_month_from_fixed_m4268992710
Xbg:_Array_compare_TisUICharInfo_t75501106_m1310495481_gshared
l8b:__ZNK28MonoBehaviourPropertyBinding12SetPPtrValueERKN11UnityEngine9Animation10BoundCurveEi
qZb:__Z21GetScriptingArraySize17ScriptingArrayPtr
I5c:__ZN20TextRenderingPrivate8FontImpl8TransferI14SafeBinaryReadEEvRT_
mah:__Z51RuntimeInvoker_UInt32_t2560061978_Double_t594665363PFvvEPK10MethodInfoPvPS4_
I9h:__ZL55ISymbolWriter_t780458634_CustomAttributesCacheGeneratorP21CustomAttributesCache
rzc:__ZN11IMGUIModule21ClearDeveloperConsoleEv
Vxi:__ZL81MessageTypeSubscribers_t1684935770_CustomAttributesCacheGenerator_m_messageTypeIdP21CustomAttributesCache
shj:__ZL25UnresolvedVirtualCall_148P12Il2CppObject22ColorBlock_t2139031574S1_PK10MethodInfo
xGh:_ReadOnlyCollection_1_System_Collections_IList_Clear_m4022532825_gshared
OBg:_Encoding_get_ASCII_m3595602635
Ctg:_Ray_get_direction_m761601601_AdjustorThunk
Dsa:__ZN9GfxDevice17ImmediateTexCoordEifff
Z4c:_ft_black_new
pSc:__ZN10ClipperLib7Clipper13AppendPolygonEPNS_5TEdgeES2_
yle:_DerivedType_GetCustomAttributes_m3536779709
fji:__ZL93Interlocked_t2273387594_CustomAttributesCacheGenerator_Interlocked_CompareExchange_m388540288P21CustomAttributesCache
Lpe:_MethodBase_get_IsAbstract_m428833029
S2d:_AssemblyLoadEventHandler__ctor_m896828968
Jvb:__Z35Transfer_Blittable_FixedBufferFieldI24GenerateTypeTreeTransferhEvRK29SerializationCommandArgumentsR31RuntimeSerializationCommandInfo
Ggk:_emscripten_glUniform4f__wrapper
yUh:_List_1_Reverse_m4144036584_gshared
HPh:_Enumerator_MoveNext_m2595190390_AdjustorThunk
udg:_Array_InternalArray__IndexOf_TisColor32_t2600501292_m3783551884_gshared
WY:__ZNK6Camera16GetProjectionFarEv
ir:__Z24InverseTransformRotationRK23TransformAccessReadOnlyRKN4math7_float4E
$Xi:_X509Chain_Build_m2469702749
iPf:_Evidence_get_IsSynchronized_m3446368195
qM:__ZN11AudioSource6UpdateEv
dqf:_Selectable_OnPointerEnter_m3378734298
xmd:__Z31GetPerformanceReportingSettingsv
j2a:__ZNK14PlayableOutput11DerivesFromE17ScriptingClassPtr
w3a:__ZN7Texture34CreateFileTextureUploadInstructionE18TextureUploadFlagsj
LGa:__ZN13ComputeShader14SetBufferParamEjRKN9ShaderLab16FastPropertyNameE15ComputeBufferID
ZXa:__ZThn280_N31CanvasBatchIntermediateRenderer20OnAssetBoundsChangedEv
Hoe:_TypeBuilder_DefineConstructor_m2989882735
eQa:__ZN25SingleBlockMemoryFileDataC2E10MemLabelIdPvjb
$Ai:__ZL59GUISkin_t1244372282_CustomAttributesCacheGenerator_m_toggleP21CustomAttributesCache
S7b:__ZN19LowerResBlitTexture13ApplySettingsEv
KD:__ZN8Animator8TransferI14SafeBinaryReadEEvRT_
OLj:__ZN15dense_hashtableINSt3__24pairIK10KeyWrapperIP11Il2CppClassES4_EES5_N6il2cpp8metadata16SZArrayClassHashEN14dense_hash_mapIS5_S4_SA_NS5_14EqualsComparerINS9_19SZArrayClassCompareEEENS0_9allocatorIS7_EEE9SelectKeyESE_SG_E4swapERSJ_
rRa:__ZN17GlobalGameManager23VirtualRedirectTransferER18StreamedBinaryReadILb0EE
dYb:__ZN27IntermediateRendererManager24GetIntermediateRenderersEi
KNc:__ZNK14b2CapsuleShape5CloneEP16b2BlockAllocator
pu:__ZN17AnimationPlayable34CollectAnimatorControllerPlayablesER13dynamic_arrayIP26AnimatorControllerPlayableLj4EE
$xi:__ZL120RenderPipelineManager_t4036911426_CustomAttributesCacheGenerator_RenderPipelineManager_DoRenderLoop_Internal_m3799666479P21CustomAttributesCache
kP:__ZN16BaseVideoTexture19UpdateVideoTexturesEv
hse:_MonoField_GetValue_m3124733531
fXa:__Z28BuildSingleStreamChannelInfo17ShaderChannelMaskRK20VertexChannelsLayoutS_S2_P11ChannelInfo
jbg:_Array_InternalArray__IEnumerable_GetEnumerator_TisOrderBlock_t1585977831_m2414028303_gshared
nDe:_Context_set_HandshakeState_m1329976135
F7a:__ZN6Sprite23VirtualRedirectTransferER19StreamedBinaryWriteILb0EE
N2f:_Enum_GetHashCode_m2848082716
Npc:__Z38Transform_CUSTOM_INTERNAL_set_positionP12Il2CppObjectRK8Vector3f
uqd:_EventTrigger_Execute_m2453060771
qJh:_Comparison_1_Invoke_m517083441_gshared
a9g:__Z253RuntimeInvoker_Int32_t2950945753_RuntimeObject_Int32_t2950945753_Int32_t2950945753_RuntimeObject_Int32_t2950945753_UInt32U26_t3735378166_UInt32U26_t3735378166_RuntimeObject_DecoderFallbackBufferU26_t3866396827_ByteU5BU5DU26_t4057885439_SByte_t1669577662PFvvEPK10MethodInfoPvPS4_
wDj:__ZNK15dense_hashtableINSt3__24pairIK10KeyWrapperINS1_IPK9FieldInfoP11Il2CppClassEEEjEES9_17ReflectionMapHashIS8_EN14dense_hash_mapIS9_jSD_NS9_14EqualsComparerINS0_8equal_toIS8_EEEENS0_9allocatorISB_EEE9SelectKeyESI_SK_E5beginEv
Roa:__ZNK9ShaderLab7Program19HasMatchingVariantsERK13dynamic_arrayI16ShaderKeywordSetLj4EE
tEh:_ReadOnlyCollection_1_System_Collections_IList_get_IsFixedSize_m3402868227_gshared
GB:__ZN15SerializeTraitsIN4math4trsXEE8TransferI8BlobSizeEEvRS1_RT_
xwa:__ZN14DataBufferGLES11CopySubDataEPKS_jjj
pe:_emscripten_glVertexPointer
mcd:__ZN2UI13PrepareOutputERNS_7BatchesEjjNS_30AdditionalCanvasShaderChannelsE
Kzj:__ZN6il2cpp2vm7Runtime47RaiseExecutionEngineExceptionIfMethodIsNotFoundEPK10MethodInfo
JZi:_PatternCompiler_GetMachineFactory_m3758869886
mVb:__Z17GetFrustumPortionPK8Vector3fffPS_
Yui:__ZL105RectTransform_t3704657025_CustomAttributesCacheGenerator_RectTransform_INTERNAL_get_anchorMin_m1735215721P21CustomAttributesCache
dRj:__ZN15dense_hashtableINSt3__24pairIK10KeyWrapperIP14Il2CppIUnknownEjEES5_N6il2cpp5utils11PointerHashIS3_EEN14dense_hash_mapIS5_jSB_NS5_14EqualsComparerINS0_8equal_toIS4_EEEENS0_9allocatorIS7_EEE9SelectKeyESG_SI_E14squash_deletedEv
Lqd:_EventTrigger_OnCancel_m585099428
Zhi:__ZL107CodeAccessPermission_t2681295399_CustomAttributesCacheGenerator_CodeAccessPermission_GetHashCode_m880096813P21CustomAttributesCache
S4i:_GUILayoutEntry_ApplyOptions_m1741659338
FNe:_MethodDictionary_set_MethodKeys_m1451825752
jFd:_RuntimeTypeHandle_Equals_m2857439487_AdjustorThunk
jwh:_Collection_1_System_Collections_ICollection_get_SyncRoot_m1659213062_gshared
uqa:__ZNK9GfxDevice27GetPlatformAdjustedViewportEv
EDh:_ReadOnlyCollection_1_System_Collections_Generic_IListU3CTU3E_set_Item_m88350439_gshared
C8i:_StandardEventPayload_IsRequiredDataValid_m361738930
AKh:_Func_3_Invoke_m1194147890_gshared
s0i:_Reference_Compile_m4195878675
SFh:_ReadOnlyCollection_1_System_Collections_ICollection_CopyTo_m2672196987_gshared
bec:__ZN16StreamedResource8TransferI24GenerateTypeTreeTransferEEvRT_
YKc:__ZN11b2GearJoint4DumpEv
evg:_RectTransform_get_anchorMin_m2928307238
n7d:_ArrayList__ctor_m3828927650
Fua:__ZThn9568_N13GfxDeviceGLES26EnableScissorRectsPlatformEv
GHa:__ZN10Matrix3x3f15InvertTransposeEv
c5i:_GUILayoutGroup_SetHorizontal_m996475327
kQf:_SecurityException_get_Demanded_m2500043391
V4i:_GUILayoutEntry__cctor_m663865902
sIf:_CaptureCollection_GetEnumerator_m732412500
uNb:__Z11IsBatchmodev
j$g:_Enumerator_System_Collections_IEnumerator_get_Current_m713684915_gshared
Itb:__Z29Transfer_Blittable_ArrayFieldI14SafeBinaryRead8Vector3fEvRT_R9ArrayInfoRK23StaticTransferFieldInfo
iqe:_MemberInfo__ctor_m3258770133
Yfi:__ZL62IFormatterConverter_t2171992254_CustomAttributesCacheGeneratorP21CustomAttributesCache
Tki:__ZL78Convert_t2465617642_CustomAttributesCacheGenerator_Convert_ToSByte_m4075629912P21CustomAttributesCache
_Pe:_SoapTypeAttribute_get_XmlTypeNamespace_m4211398148
x6c:__ZN20TextRenderingPrivate8FontImpl18ResetCachedTextureEv
myj:__ZN6il2cpp6icalls8mscorlib6SystemL16GetFieldFromTypeINS_5utils10functional6FilterINSt3__212basic_stringIcNS7_11char_traitsIcEENS7_9allocatorIcEEEENS4_13VmStringUtils21CaseSensitiveComparerEEEEEP21Il2CppReflectionFieldP11Il2CppClassSK_iRKT_
lEf:_X509KeyUsageExtension_Decode_m3150759625
D1j:_GC_print_finalization_stats
paf:_KeyCollection_System_Collections_ICollection_get_IsSynchronized_m2596089789_gshared
ipa:__ZN11NamedObject15ThreadedCleanupEv
MKc:__ZNK12b2WheelJoint10GetAnchorBEv
J5i:_GUITargetAttribute_GetGUITargetAttrValue_m2954410352
wkc:__Z53Register_UnityEngine_Behaviour_get_isActiveAndEnabledv
J2d:_SimpleEnumerator_get_Current_m72361444
Dq:__ZNSt3__26vectorIN4core12basic_stringIcNS1_20StringStorageDefaultIcEEEENS_9allocatorIS5_EEE8__appendEj
zP:__ZN13ProduceHelperI10SampleClipLb0EE7ProduceE10MemLabelId18ObjectCreationMode
rgb:__ZN26PlayerSettingsSplashScreen8TransferI17RemapPPtrTransferEEvRT_
hwf:_ASN1_set_Value_m2803403806
tyj:__ZN6il2cpp6icalls8mscorlib6SystemL17CollectTypeFieldsINS_5utils10functional10TrueFilterEEEvP11Il2CppClassPKS7_iRNSt3__26vectorIP9FieldInfoNSB_9allocatorISE_EEEERKT_
Z2g:__Z52RuntimeInvoker_Int16_t2552820387_Decimal_t2948259380PFvvEPK10MethodInfoPvPS4_
$5b:__Z13GetTagManagerv
m0d:_Hashtable__ctor_m1815022027
JEg:_UTF8Encoding_GetChars_m1433288684
Kmj:__ZL10roundUp128PyS_
HR:__ZN11UnityEngine15CloudWebService17CloudJobSchedulerD0Ev
i1g:__Z50RuntimeInvoker_Boolean_t97287965_SByte_t1669577662PFvvEPK10MethodInfoPvPS4_
LTe:_ArrayReadOnlyList_1_Contains_m381552673_gshared
Xmh:__Z105RuntimeInvoker_Int32_t2950945753_RuntimeObject_OrderBlock_t1585977831_Int32_t2950945753_Int32_t2950945753PFvvEPK10MethodInfoPvPS4_
rIg:_TimeZone_ToUniversalTime_m2789507578
w2g:__Z96RuntimeInvoker_Boolean_t97287965_RuntimeObject_RuntimeObject_Int32_t2950945753_Int32_t2950945753PFvvEPK10MethodInfoPvPS4_
ycg:_Array_IndexOf_TisUICharInfo_t75501106_m3198896198_gshared
Iad:__ZNK2UI11CanvasGroup22GetTypeVirtualInternalEv
zEe:_Context_get_Current_m2853615040
nSc:__ZN10ClipperLib7Clipper14IntersectEdgesEPNS_5TEdgeES2_RNS_8IntPointE
j5f:_CultureInfo_construct_internal_locale_from_lcid_m2668301444
Mvf:_PrimeGeneratorBase__ctor_m2973488305
Vyc:__Z21CleanupGlobalGUIStatev
vJg:_Type_IsContextfulImpl_m3693603908
x6h:__ZL81RuntimeArray_CustomAttributesCacheGenerator_Array_GetValue_m120423883____indices0P21CustomAttributesCache
Mzi:__ZL79Event_t2956885303_CustomAttributesCacheGenerator_Event_get_modifiers_m995073384P21CustomAttributesCache
ePh:_Enumerator_VerifyState_m2873941769_gshared
XCb:__Z18Transfer_BlittableI18StreamedBinaryReadILb0EELb1EN4math12int3_storageEEvRK29SerializationCommandArgumentsR31RuntimeSerializationCommandInfo
h0g:__Z56RuntimeInvoker_RuntimeObject_RuntimeObject_RuntimeObjectPFvvEPK10MethodInfoPvPS4_
dJa:__ZN22VertexDeclarationCache5ClearEv
RGd:_CspParameters__ctor_m3852972821
y0d:_AppDomainInitializer_EndInvoke_m2095010821
r0b:__ZN17PersistentManager12SetPathRemapERKN4core12basic_stringIcNS0_20StringStorageDefaultIcEEEES6_
Uw:__Z27ProcessRootMotionEmptyMixerP35AnimationPlayableEvaluationConstantP32AnimationPlayableEvaluationInputP33AnimationPlayableEvaluationOutput
PWb:__ZN6Camera24PrepareCullingParametersERK23CameraCullingParameters13RenderingPathR11CullResults
Mgc:__Z12SetIUISystemP9IUISystem
Kib:__ZN19RuntimeSceneManager22EndIntegrateMainThreadEP10UnitySceneNS_11LoadingModeE
TPi:_Array_Sort_TisUICharInfo_t75501106_m3474449559_gshared
xrg:__ZN21InterfaceFuncInvoker0IP34MessageTypeSubscribers_t1684935770E6InvokeEjP11Il2CppClassP12Il2CppObject
ivb:__Z26Transfer_UnityEngineObjectI17RemapPPtrTransferLb0EEvRK29SerializationCommandArgumentsR31RuntimeSerializationCommandInfo
Cmb:__ZN17WeakPtrSharedDataD0Ev
G_i:_QuickSearch_GetShiftDistance_m2542665852
qua:__ZN13GfxDeviceGLES15OnDeviceCreatedEb
Qab:__Z32TransferEnumWithNameForceIntSizeI14SafeBinaryRead11IndexFormatEvRT_RT0_PKc17TransferMetaFlags
DSi:_Array_InternalArray__get_Item_TisCustomAttributeTypedArgument_t2723150157_m2639399822_gshared
yuf:_BigInteger_GenerateRandom_m3141592944
Dxb:__Z29Transfer_Blittable_ArrayFieldI24GenerateTypeTreeTransfer4AABBEvRT_R9ArrayInfoRK23StaticTransferFieldInfo
bKf:_Interval_Contains_m1454846757
aBd:_Graphic_CacheCanvas_m1120385152
q3e:_InternalEnumerator_1_MoveNext_m1262906009_gshared
Xzd:_U3CDelayedDestroyDropdownListU3Ec__Iterator0_Dispose_m100123149
jLc:__ZN13b2PulleyJoint24SolveVelocityConstraintsERK12b2SolverData
t8j:_emscripten_GetProcAddress
bRh:_List_1_System_Collections_Generic_IEnumerableU3CTU3E_GetEnumerator_m944444416_gshared
Ea:invoke_fiiifii
P9j:_modff
EZa:__ZN20SphericalHarmonicsL219AddDirectionalLightERKN4math7_float3ERKNS0_7_float4E
wHf:_X509ChainElementCollection_get_IsSynchronized_m3980338507
Kfa:__Z26ScheduleJobForEachInternalR8JobFencePFvPvjES1_iPFvS1_E11JobPriority
fNb:__ZZ23InitPlayerLoopCallbacksvEN41PostLateUpdateProfilerEndFrameRegistrator7ForwardEv
jhc:__ZN9Scripting18RaiseMonoExceptionEPKcz
iad:__ZN2UI13UIInstruction19ClearSharedMeshDataER8JobFence
Pcc:__ZN10GameObject17WillHandleMessageERK17MessageIdentifier
_Of:_StrongNamePublicKeyBlob_Equals_m3655422942
XPf:_SecurityContext__ctor_m1730177197
Elj:_RectTransformUtility_GetTransposed_m3952754222
Tac:__ZN9ShaderLab16FastPropertyName15InitBy28BitHashEj
oqj:__ZN6il2cpp2vm5Class7GetNameEP11Il2CppClass
bUh:_List_1_System_Collections_IList_set_Item_m4182383657_gshared
xVg:_EqualityComparer_1_System_Collections_IEqualityComparer_GetHashCode_m3723747923_gshared
VOi:_Array_Resize_TisOrderBlock_t1585977831_m3449774576_gshared
E5g:__Z96RuntimeInvoker_Void_t1185182177_Int32_t2950945753_Single_t1397266774_RuntimeObject_RuntimeObjectPFvvEPK10MethodInfoPvPS4_
jCh:_ReadOnlyCollection_1_CopyTo_m3722791265_gshared
inh:__Z59RuntimeInvoker_Int32_t2950945753_KeyValuePair_2_t3699644050PFvvEPK10MethodInfoPvPS4_
f6e:_Enumerator_System_Collections_IDictionaryEnumerator_get_Key_m195047678_AdjustorThunk
kYf:_DateTimeFormatInfo_get_RawAbbreviatedMonthNames_m2395953416
skj:_Canvas_get_pixelPerfect_m333060872
$ab:__ZN17PackedFloatVector12UnpackFloatsEPfiiii
dEj:__ZN30dense_hashtable_const_iteratorINSt3__24pairIK10KeyWrapperIPK10Il2CppTypeEjEES6_N6il2cpp8metadata14Il2CppTypeHashEN14dense_hash_mapIS6_jSB_NS6_14EqualsComparerINSA_26Il2CppTypeEqualityComparerEEENS0_9allocatorIS8_EEE9SelectKeyESF_SH_EppEv
Xpe:_TypeBuilder_ToString_m3497908325
Zz:__ZN17AnimationPlayable28UpdateInternalStateRecursiveILi3ELb0EEEvPK35AnimationPlayableEvaluationConstant
vsc:_UNITY_png_handle_IHDR
Dta:__ZN13GfxDeviceGLES21DestroyComputeProgramER12ObjectHandleI18ComputeProgram_TagPvE
d_i:_PatternCompiler_EmitIfDefined_m2075050865
o_f:_Decimal_System_IConvertible_ToInt64_m1446427516_AdjustorThunk
xda:__ZN17UniqueIDGenerator16DestroyPureIndexEj
GYd:_NotImplementedException__ctor_m3095902440
E0:__ZL21AppendNestedClassName17ScriptingClassPtrRN4core17string_with_labelILi1EEE
vja:__ZN14SafeBinaryRead21TransferSTLStyleArrayINSt3__26vectorIN9ShaderLab20SerializedSubProgram12UAVParameterENS1_9allocatorIS5_EEEEEEvRT_17TransferMetaFlags
njj:_FontTextureRebuildCallback_Invoke_m3604797831
xua:__ZN13GfxDeviceGLES32InitStereoGlobalsBuffersPlatformEiijPKv
mW:__ZNK13BaseAllocator10IsAssignedEv
QS:__ZN24TextDOMTransferWriteBaseI9JSONWriteE12PushMetaFlagEi
obj:_Resoluation_Start_m3555897369
gei:__ZL59_PropertyBuilder_t1366136710_CustomAttributesCacheGeneratorP21CustomAttributesCache
PE:__ZZN8Animator15InitializeClassEvEN31FunctorImpl_420kDidDeleteMotion4CallEPviR11MessageData
iCa:__ZN6prcoreL26RemapGenericIntegerToFloatI17TexFormatARGB888815TexFormatRFloatEEvPKNS_9InnerInfoE
BW:__ZN5Mutex6UnlockEv
Nxj:__ZN6il2cpp2vm10ThreadPool10InitializeEv
xXh:_List_1__ctor_m808270210_gshared
vBj:__ZN6il2cpp2vm17TypeNameParseInfoD2Ev
TYg:_PrimeHelper_ToPrime_m3704362632_gshared
rJ:__ZN4FMOD7Channel7setModeEj
YZf:_Decimal_System_IConvertible_ToType_m2919262279
Rzg:_Vector2_get_right_m1027081661
$X:__ZNK8Renderer8GetLayerEv
wTd:_Stream_Close_m771352034
a4e:__ZN21InterfaceFuncInvoker1Ii19TimeSpan_t881159249E6InvokeEjP11Il2CppClassP12Il2CppObjectS0_
_y:__ZN7mecanim9animation22DestroyBlendTreeOutputEPNS0_15BlendTreeOutputERNS_6memory9AllocatorE
zRb:__ZNK6Camera20GetReplacementShaderEv
u_h:_List_1_System_Collections_IList_Remove_m4226673807_gshared
R5j:__ZNSt3__26__treeINS_12__value_typeINS_12basic_stringIcNS_11char_traitsIcEENS_9allocatorIcEEEEPFvvEEENS_19__map_value_compareIS7_SA_NS_4lessIS7_EELb1EEENS5_ISA_EEE4findIS7_EENS_15__tree_iteratorISA_PNS_11__tree_nodeISA_PvEEiEERKT_
xza:__ZL23stbir__calculate_memoryP11stbir__info
I9e:_KeyCollection_System_Collections_Generic_ICollectionU3CTKeyU3E_Clear_m1261840136_gshared
SEj:__ZNK15dense_hashtableINSt3__24pairIK10KeyWrapperINS1_IPK10MethodInfoP11Il2CppClassEEEjEES9_17ReflectionMapHashIS8_EN14dense_hash_mapIS9_jSD_NS9_14EqualsComparerINS0_8equal_toIS8_EEEENS0_9allocatorISB_EEE9SelectKeyESI_SK_E12test_deletedERK24dense_hashtable_iteratorISB_S9_SD_SM_SI_SK_E
Hsc:_UNITY_png_handle_sRGB
lJf:_Interpreter_Close_m126356671
muh:_Collection_1_InsertItem_m168969280_gshared
Aad:__ZNSt3__227__insertion_sort_incompleteIRPFbPN2UI6CanvasES3_EPS3_EEbT0_S8_T_
uab:__ZNK6Camera18GetRenderRectangleEv
Buj:__ZN6il2cpp5utils13dynamic_arrayIPK10Il2CppTypeLj4EE7reserveEj
Q8a:__ZN13sorted_vectorIN4core12basic_stringIcNS0_20StringStorageDefaultIcEEEENSt3__24lessIS4_EE13stl_allocatorIS4_L18MemLabelIdentifier81ELi16EEE4findIS4_EENS5_11__wrap_iterIPS4_EERKT_
Y_i:_Parser_HandleExplicitNumericGroups_m1412234891
bTi:_Array_InternalArray__get_Item_TisRaycastHit2D_t2279581989_m2440275162_gshared
Dje:_CustomAttributeNamedArgument_Equals_m1414002036
aGc:__ZL26Transfer_SimpleNativeClassI8JSONRead10RectOffsetLb1EEvRK29SerializationCommandArgumentsR31RuntimeSerializationCommandInfo
Epg:_Material_SetInt_m475299667
Tdd:__Z44CanvasRenderer_CUSTOM_INTERNAL_CALL_SetColorP12Il2CppObjectRK10ColorRGBAf
dQh:_List_1__ctor_m3376109328_gshared
Nme:_FieldBuilder_GetFieldOffset_m725157755
zdf:_Enumerator_MoveNext_m3045873697_AdjustorThunk
y_g:_Enumerator_System_Collections_IEnumerator_Reset_m959124362_AdjustorThunk
JRc:__ZN10ClipperLib11ClipperBaseD0Ev
z2f:_Enum_ToObject_m121831801
bqi:__ZL57AsyncOperation_t1445031843_CustomAttributesCacheGeneratorP21CustomAttributesCache
pDd:_Image_get_hasBorder_m3423344180
RCc:__Z18Transfer_BlittableI9JSONWriteLb1EsEvRK29SerializationCommandArgumentsR31RuntimeSerializationCommandInfo
fSc:__ZN10ClipperLib8JoinHorzEPNS_5OutPtES1_S1_S1_NS_8IntPointEb
ohd:__Z48UnityAnalyticsHandler_CUSTOM_SendCustomEventNameP12Il2CppObjectP12Il2CppString
X2:__ZN6ObjectD2Ev
Uhc:__ZN9Transform16SetLocalRotationERK11Quaternionf
wAd:_FontData_set_richText_m993590067
f5g:__Z58RuntimeInvoker_DSAParameters_t1885824122_SByte_t1669577662PFvvEPK10MethodInfoPvPS4_
QNb:__ZN13RenderManager37RenderCamerasWithScriptableRenderLoopEi
XEd:_RuntimeMethodHandle__ctor_m2229201676
hHg:_TimeSpan__ctor_m3689759052
P4h:__ZL49UInt16_t2177724958_CustomAttributesCacheGeneratorP21CustomAttributesCache
PB:__ZN7mecanim8skeleton25SkeletonPoseComputeLocalQEPKNS0_8SkeletonEPKNS0_13SkeletonPoseTIN4math4trsXEEEPS7_ii
qsh:__Z37RuntimeInvoker_Enumerator_t3123848928PFvvEPK10MethodInfoPvPS4_
mUj:__ZN6il2cpp2os19ReleaseSocketHandleEj
vGg:_ThreadStart__ctor_m3250019360
xO:__ZN11AudioModule16GetDSPSampleRateEv
CZj:__ZN15dense_hashtableINSt3__24pairIK10KeyWrapperIPK19Il2CppGenericMethodEP10MethodInfoEES6_N6il2cpp8metadata23Il2CppGenericMethodHashEN14dense_hash_mapIS6_S9_SD_NS6_14EqualsComparerINSC_26Il2CppGenericMethodCompareEEENS0_9allocatorISA_EEE9SelectKeyESH_SJ_E5clearEv
_dc:__ZN16PropertyAccessor5ClearEv
GKb:__ZN15InstancingProps11NewConstantERKN9ShaderLab16FastPropertyNameEj15ShaderParamTypehhjjP6Object
s5e:_Comparer_1__ctor_m3649041856_gshared
tDd:_Image_OnBeforeSerialize_m3415525254
uff:_InputField_get_characterValidation_m4196664041
zIg:_Type_get_Attributes_m58528356
SRb:__ZN6Camera28DefaultPerformRenderFunctionD0Ev
YZd:_Array_GetUpperBound_m4018715963
IYi:_X509Store__ctor_m2736551756
nWj:__ZN6il2cpp2os5posix15PosixWaitObjectC2ENS2_4TypeE
MPb:__ZN6Camera21PostMultiCustomRenderENS_10RenderFlagEb
Igg:_Array_InternalArray__Insert_TisMonoResource_t4103430009_m1997865927_gshared
WMf:_SHA512Managed_HashFinal_m2173184560
qGa:__ZN12_GLOBAL__N_112UploadImagesEP7ApiGLESjji14GraphicsFormatPKhjS2_iiii16TextureUsageModePh
uKb:__ZN23ShaderVariantCollection13WarmupShadersEv
i$b:__ZNK4PPtrI8MaterialEptEv
I8b:__ZN13ProduceHelperI9TransformLb0EE7ProduceE10MemLabelId18ObjectCreationMode
sHe:_SslStreamBase_Finalize_m3260913635
m0:__Z25GetCommonScriptingClassesv
gjb:__Z27scripting_gc_collect_unsafei
Hze:_MD5SHA1_HashFinal_m4115488658
F9e:_KeyCollection_get_Count_m2424674141_gshared
beg:_Array_InternalArray__ICollection_Add_TisKeyValuePair_2_t71524366_m3468275433_gshared
vej:_AudioSettings_InvokeOnAudioManagerUpdate_m4044425648
EQ:__Z59Register_UnityEngine_AudioExtensionManager_GetAudioListenerv
T9h:__ZL78Calendar_t1661121569_CustomAttributesCacheGenerator_Calendar_Clone_m1356182658P21CustomAttributesCache
Wwb:__Z26Transfer_UnityEngineObjectI24GenerateTypeTreeTransferLb0EEvRK29SerializationCommandArgumentsR31RuntimeSerializationCommandInfo
Vee:_Convert_ToDouble_m278900635
jZc:_UNITY_FT_GlyphLoader_CheckPoints
_Mc:__ZN16b2PolygonContact7DestroyEP9b2ContactP16b2BlockAllocator
phf:_InputField_LineDownCharacterPosition_m2798128425
RYg:_PrimeHelper_TestPrime_m2318568626_gshared
Y8h:__ZL63KeyNotFoundException_t2292407383_CustomAttributesCacheGeneratorP21CustomAttributesCache
I7e:_Enumerator_System_Collections_IDictionaryEnumerator_get_Value_m684446183_AdjustorThunk
zVa:__ZN15SharedLightData7PrecalcEv
v2:__ZN10Matrix4x4fmLERKS_
Yq:__ZN4PPtrI9TransformE8TransferI18StreamedBinaryReadILb0EEEEvRT_
Stg:_Vector2__ctor_m3970636864
sAb:__Z35Transfer_Blittable_FixedBufferFieldI18StreamedBinaryReadILb1EEsEvRK29SerializationCommandArgumentsR31RuntimeSerializationCommandInfo
AR:__ZNK4PPtrI4MeshEdeEv
X2f:_Environment_InternalGetFolderPath_m468390978
Sij:__ZL25UnresolvedVirtualCall_228P12Il2CppObject25RaycastResult_t3360306849PK10MethodInfo
YOa:__ZN15ArchiveReadFileD0Ev
Qmi:__ZL65StackOverflowException_t3629451388_CustomAttributesCacheGeneratorP21CustomAttributesCache
Baf:_KeyCollection_System_Collections_IEnumerable_GetEnumerator_m2779004382_gshared
LWh:_List_1_System_Collections_Generic_ICollectionU3CTU3E_get_IsReadOnly_m2562366358_gshared
Kze:_RSASslSignatureFormatter__ctor_m1299283008
Xid:__ZN11UnityEngine15PlatformWrapper18GetOperatingSystemEv
wpa:__ZNSt3__26vectorIP14DataBufferGLESNS_9allocatorIS2_EEE21__push_back_slow_pathIKS2_EEvRT_
FQf:_SecurityFrame_ToString_m339310712
jni:__ZL54ThreadStart_t1006689297_CustomAttributesCacheGeneratorP21CustomAttributesCache
Vw:__Z25ProcessRootMotionMixBeginP35AnimationPlayableEvaluationConstantP32AnimationPlayableEvaluationInputP33AnimationPlayableEvaluationOutput
Vek:dynCall_iiiiifiiii
a8h:__ZL62ParamArrayAttribute_t3664765590_CustomAttributesCacheGeneratorP21CustomAttributesCache
EGc:__ZN8GUIStyle8TransferI8JSONReadEEvRT_
Jui:__ZL98Transform_t3600365921_CustomAttributesCacheGenerator_Transform_INTERNAL_set_localScale_m1089294020P21CustomAttributesCache
C5i:_GUIStyleState_t1397964415_marshal_pinvoke
Rp:__ZN15SerializeTraitsI13dynamic_arrayIiLj4EEE19ResizeSTLStyleArrayERS1_i
jPi:_Array_Resize_TisVector4_t3319028937_m1507893064_gshared
f3b:__ZN12LineRenderer21ReleaseGeometryJobMemEP25DynamicVBOGeometryJobData
jMf:_SHA1Managed_HashFinal_m2365675383
o7:__ZN8DrawUtil36DrawLineOrTrailMultipleFromNodeQueueERK15RenderNodeQueueRK18RenderMultipleData17ShaderChannelMask
kud:_TouchInputModule_ProcessTouchPress_m3504077560
P8i:_FieldWithTarget_get_typeString_m238478345
_pf:_Selectable_IsInteractable_m2611421038
OYc:_FT_MSB
NUg:_EqualityComparer_1_get_Default_m2572737998_gshared
Ykk:_emscripten_glReadPixels__wrapper
FZe:_InternalEnumerator_1_MoveNext_m819973544_AdjustorThunk
f6j:__ZN6il2cpp6icalls8mscorlib4Mono8Security12Cryptography18KeyPairPersistence10_CanSecureEP12Il2CppString
nze:_MD4__ctor_m919379109
d8f:_Array_InternalArray__ICollection_Contains_TisParameterModifier_t1461694466_m1000453323_gshared
rci:__ZL57FieldAttributes_t400321159_CustomAttributesCacheGeneratorP21CustomAttributesCache
UQg:_Dictionary_2_System_Collections_ICollection_CopyTo_m4047192178_gshared
oAj:__ZN6il2cpp2os4File11GetFileStatERKNSt3__212basic_stringIcNS2_11char_traitsIcEENS2_9allocatorIcEEEEPNS0_8FileStatEPi
xKf:_RIPEMD160Managed_Initialize_m2173168986
Vei:__ZL54IMessageCtrl_t317049502_CustomAttributesCacheGeneratorP21CustomAttributesCache
Gac:__ZN9TransformC2E10MemLabelId18ObjectCreationMode
Ppa:__ZN13GfxDeviceGLES14SetRasterStateEPK17DeviceRasterState
lie:_Assembly_ToString_m2053237013
orb:__Z30TransferField_LinearCollectionI14SafeBinaryReadEvRK29SerializationCommandArgumentsR31RuntimeSerializationCommandInfo
hqg:_Vector4_Equals_m1779210055
K0f:_Exception_set_HResult_m3489164646
d$c:_otv_Coverage_get_count
Yte:_ParameterModifier_t1461694466_marshal_pinvoke_back
n3:__ZN14SafeBinaryRead11EndTransferEv
oXg:_EqualityComparer_1__cctor_m2741186979_gshared
Irb:__ZN14SafeBinaryRead8TransferI8MonoPPtrEEvRT_PKc17TransferMetaFlags
mpi:__ZL70Uri_t100236324_CustomAttributesCacheGenerator_Uri_Unescape_m3373094076P21CustomAttributesCache
kpf:_ScrollRect_set_verticalNormalizedPosition_m1452826170
p2f:_Enum_System_IConvertible_ToUInt16_m4216751959
Jgh:__Z61RuntimeInvoker_Boolean_t97287965_PlayableHandleU26_t645981773PFvvEPK10MethodInfoPvPS4_
nHa:__ZN21UniformBufferTFMethod13MapBoneBufferEj
zgg:_Array_InternalArray__Insert_TisInt32_t2950945753_m4073217122_gshared
fdf:_Enumerator_get_Current_m2897627569_AdjustorThunk
Xce:_SortedList_Remove_m2784369438
vya:__ZN4crnd12crn_unpacker10unpack_dxnEPPhjjj
eXf:_DateTime_get_Kind_m2154871796_AdjustorThunk
DHb:__ZN9TextAsset15ThreadedCleanupEv
wZi:_MatchCollection_get_SyncRoot_m1957585059
W0:__ZN14SerializedFileD2Ev
Lfa:__Z21CompleteFenceInternalR8JobFence
Czc:__Z30Event_Get_Custom_PropModifiersP12Il2CppObject
Nsh:__Z79RuntimeInvoker_RuntimeObject_OrderBlock_t1585977831_RuntimeObject_RuntimeObjectPFvvEPK10MethodInfoPvPS4_
ooj:_Physics2D_Raycast_m2858866636
wtj:__ZN15dense_hashtableI10KeyWrapperIPK19Il2CppGenericMethodES4_N6il2cpp8metadata23Il2CppGenericMethodHashEN14dense_hash_setIS4_S7_NS4_14EqualsComparerINS6_26Il2CppGenericMethodCompareEEENSt3__29allocatorIS4_EEE8IdentityESB_SE_EC2EjRKS7_RKSB_RKSG_
Eu:__ZN7mecanim9animation16CreateClipOutputEPKNS0_4ClipERNS_6memory9AllocatorE
HPe:_SoapAttribute_SetReflectionObject_m4109300849
Wlf:_RawImage_get_mainTexture_m2396337033
Jnj:_CustomEventData_Add_m1638466298
rCj:__ZN6il2cpp2vm10Reflection17GetAssemblyObjectEPK14Il2CppAssembly
PUf:_DecoderFallbackBuffer_Reset_m3069554060
gFb:__ZNSt3__218__stable_sort_moveIRN10vector_mapI17ScriptingClassPtrPKN5Unity4TypeENS_4lessIS2_EENS_9allocatorINS_4pairIS2_S6_EEEEE13value_compareENS_11__wrap_iterIPSB_EEEEvT0_SJ_T_NS_15iterator_traitsISJ_E15difference_typeEPNSM_10value_typeE
Zha:__ZN6Shader21AwakeFromLoadThreadedEv
kBa:__ZN6prcoreL17RemapGenericFloatI17TexFormatRGBFloat17TexFormatRGBAHalfEEvPKNS_9InnerInfoE
tuf:_BigInteger__ctor_m3991350270
Ezg:_Vector2_GetHashCode_m3916089713_AdjustorThunk
iod:__ZN13RuntimeStaticINSt3__26vectorIjNS0_9allocatorIjEEEELb0EE16StaticInitializeEPv
pU:__ZN13UploadHandler10OnSentDataEj
r7j:__ZN6il2cpp2os9SemaphoreC2Eii
Krb:__ZNSt3__26vectorI8MonoPPtr13stl_allocatorIS1_L18MemLabelIdentifier1ELi16EEE8__appendEj
pQb:__ZN14qsort_internal30FindAndMovePivotToLastPositionIP17RODataReplacementi19ROSorterReplacementEEvT_S4_T0_T1_
yHa:__ZN15UniformTFMethod20IsBoneCountSupportedEi
hMi:__ZL76StandardEventPayload_t1629891255_CustomAttributesCacheGenerator_m_ParametersP21CustomAttributesCache
pDh:_ReadOnlyCollection_1_System_Collections_IList_get_Item_m3076053687_gshared
OMg:_UnauthorizedAccessException__ctor_m246605039
$9b:__Z12BuildTextureIA4_tPFvP9Texture2DPS0_iiiiEES2_PKcii13TextureFormatRKT0_17TextureColorSpaceb
lek:dynCall_viidi
eu:__ZN8Playable18OnApplicationPauseEb
s9e:_KeyCollection__ctor_m1356492051_gshared
C$:__ZN24ScriptingMethodFiltering17FilterOnSignatureENS_18MethodSearchFilterE
$cj:_ListPool_1_U3Cs_ListPoolU3Em__0_m2283646495_gshared
R$b:__ZN18ScreenManagerWebGL13SetLockCursorE14CursorLockMode
OBe:_CipherSuite_DecryptRecord_m1495386860
xXi:_X509Certificate_VerifySignature_m3538124832
ATd:_StreamAsyncResult_SetComplete_m1102187093
b1i:_CharacterClass_GetIntervalCost_m4036989868
yKi:__ZL64HorizontalLayoutGroup_t2586782146_CustomAttributesCacheGeneratorP21CustomAttributesCache
g8b:__ZN13MonoBehaviour19HandleNotificationsEPviR11MessageData
Pug:_RectOffset_Init_m2028508611
U7j:__ZN6il2cpp2os9EventImpl5ResetEv
fZh:_List_1_Sort_m933660666_gshared
SAe:_Alert__ctor_m3135936936
ONd:_Int64_System_IConvertible_ToInt32_m772105781
oUi:_TlsClientSettings__ctor_m3220697265
rFf:_X509Certificate2_get_Version_m2534012675
sGj:__ZNK15dense_hashtableINSt3__24pairIK10KeyWrapperINS1_IPK9EventInfoP11Il2CppClassEEEjEES9_17ReflectionMapHashIS8_EN14dense_hash_mapIS9_jSD_NS9_14EqualsComparerINS0_8equal_toIS8_EEEENS0_9allocatorISB_EEE9SelectKeyESI_SK_E23find_position_with_hashERSA_j
G0i:_CaptureAssertion_set_CapturingGroup_m2003123956
Nhk:b58
cih:__Z103RuntimeInvoker_Boolean_t97287965_RuntimeObject_Vector2_t2156229523_RuntimeObject_Vector2U26_t2376273893PFvvEPK10MethodInfoPvPS4_
iQg:_Dictionary_2_make_pair_m2250450206_gshared
qCg:_ForwardingDecoder_GetChars_m4228908854
GJf:_InterpreterFactory_get_GroupCount_m2226373271
whk:b53
thk:b50
uhk:b51
Jhk:b56
Khk:b57
xhk:b54
yhk:b55
iSh:_List_1_System_Collections_IList_get_IsReadOnly_m3531293387_gshared
aM:__ZN4PPtrI15AudioMixerGroupE8TransferI18StreamedBinaryReadILb0EEEEvRT_
ntf:_SimpleCollator_IsSafe_m310268646
wbg:_Array_InternalArray__IEnumerable_GetEnumerator_TisWorkRequest_t1354518612_m2622205355_gshared
S4d:_Byte_System_IConvertible_ToByte_m162267264_AdjustorThunk
h_d:_X509Certificate_get_RawData_m2387471414
wjk:_glDetachShader__wrapper
Q2d:_ArrayTypeMismatchException__ctor_m3375008173
rbf:_Transform_1_BeginInvoke_m1757796657_gshared
SBj:__ZNSt3__214__split_bufferINS_12basic_stringIcNS_11char_traitsIcEENS_9allocatorIcEEEERNS4_IS6_EEEC2EjjS8_
QZg:_KeyValuePair_2__ctor_m1794021352_AdjustorThunk
Omh:__Z88RuntimeInvoker_Int32_t2950945753_UIVertex_t4057497605_UIVertex_t4057497605_RuntimeObjectPFvvEPK10MethodInfoPvPS4_
icc:__ZN10GameObject12CleanupClassEv
Dqa:__ZN9GfxDevice25SetShaderPropertiesSharedERK19ShaderPropertySheet
dvd:_BaseMeshEffect_get_graphic_m1852367505
gae:_CaseInsensitiveHashCodeProvider_GetHashCode_m2168170016
nHb:__ZN10MonoScript17MainThreadCleanupEv
G5b:__ZN19SpriteMeshGenerator4path9clip_edgeEi
j2e:_InternalEnumerator_1_Dispose_m28687982_AdjustorThunk
Cbc:__ZL25InitializeDefaultMaterialv
red:__Z53Register_UnityEngine_CanvasRenderer_get_materialCountv
ope:_PropertyBuilder_GetCustomAttributes_m3798356764
dRd:_Stream__ctor_m3881936881
aue:_PropertyInfo_get_MemberType_m2794839864
GPa:__ZN19FileAccessorHandlerD2Ev
r8i:_EventTrigger_RemoveRule_m1596811726
PPh:_Enumerator_Dispose_m2367589020_AdjustorThunk
a5e:_Comparer_1_System_Collections_IComparer_Compare_m4179495191_gshared
jNa:__ZN17PersistentManager12UnloadStreamERKN4core12basic_stringIcNS0_20StringStorageDefaultIcEEEEb
XPa:__ZN10MemoryFile4ReadEyyPvPy
fhg:_Array_InternalArray__Insert_TisUICharInfo_t75501106_m2924156520_gshared
pWg:_EqualityComparer_1_System_Collections_IEqualityComparer_Equals_m3139704160_gshared
Tdg:_MonoProperty_GetterAdapterFrame_TisRuntimeObject_TisRuntimeObject_m458718082_gshared
Z6a:__ZN13ScreenManager17RequestResolutionEiibi
zKj:_il2cpp_unity_liveness_calculation_from_statics
ly:__ZNK26AnimatorControllerPlayable11DerivesFromE17ScriptingClassPtr
EPe:_SoapAttribute__ctor_m1857608874
q2e:_InternalEnumerator_1_System_Collections_IEnumerator_get_Current_m2649471526_gshared
tVg:_EqualityComparer_1_System_Collections_IEqualityComparer_Equals_m3218482536_gshared
J6:__ZN8Renderer8TransferI17RemapPPtrTransferEEvRT_
YTi:_InternalAsyncResult_get_AsyncState_m1436290550
XUe:_InternalEnumerator_1_Dispose_m2018798800_AdjustorThunk
bqa:__ZN13GfxDeviceGLES26UpdateViewProjectionMatrixEv
b6e:_Enumerator_System_Collections_IDictionaryEnumerator_get_Entry_m522483686_gshared
oyf:_PrivateKeyInfo_RemoveLeadingZero_m3921889925
RFg:_Thread_get_CurrentContext_m1695017876
Y7:__ZN12LineRenderer8TransferI24GenerateTypeTreeTransferEEvRT_
HTi:_Mesh_GetAllocArrayFromChannel_TisColor32_t2600501292_m3180365313_gshared
PZb:__Z24LookRotationToQuaternionRK8Vector3fS1_P11Quaternionf
NZb:__ZN16ReflectionProbes9GetCameraEv
Rna:__ZL18IsGpuProgramUsable20ShaderGpuProgramTypePK6Shader
Ucd:__ZN2UI6Canvas17SetSortingLayerIDEi
lvd:_Button_get_onClick_m2332132945
kWj:__ZN6il2cpp2vm11MethodStack23CleanupForCurrentThreadEv
bBh:_Collection_1_ConvertItem_m618594517_gshared
uHi:__ZL61Image_t2670269651_CustomAttributesCacheGenerator_m_FillMethodP21CustomAttributesCache
Qge:_Convert_ToUInt64_m388601487
vWa:__ZN20TierGraphicsSettings8TransferI24GenerateTypeTreeTransferEEvRT_
nuj:__ZN15dense_hashtableINSt3__24pairIK10KeyWrapperIN6il2cpp5utils13dynamic_arrayIPK10Il2CppTypeLj4EEEEPFvvEEESA_NS3_8metadata19Il2CppSignatureHashEN14dense_hash_mapISA_SD_SG_NSA_14EqualsComparerINSF_22Il2CppSignatureCompareEEENS0_9allocatorISE_EEE9SelectKeyESK_SM_E16reset_thresholdsEv
Eqg:_Mesh_get_vertices_m3585684815
xtb:__ZN14SafeBinaryRead21TransferSTLStyleArrayI13dynamic_arrayI4AABBLj4EEEEvRT_17TransferMetaFlags
gyg:_TouchScreenKeyboard_get_text_m1797464608
exc:_output_message
X_b:__ZN26CustomRenderTextureManager25UpdateCustomRenderTextureEP19CustomRenderTexturei
Oga:__ZNSt3__26__treeINS_12__value_typeIiN11TypeManager18TypeCallbackStructEEENS_19__map_value_compareIiS4_NS_4lessIiEELb1EEENS_9allocatorIS4_EEE7destroyEPNS_11__tree_nodeIS4_PvEE
xJi:__ZL60Slider_t3903728902_CustomAttributesCacheGenerator_m_FillRectP21CustomAttributesCache
bHb:__ZN13MonoBehaviour18TransferEngineDataI24GenerateTypeTreeTransferEE4PPtrI10MonoScriptERT_
cGi:__ZL75U3COnFinishSubmitU3Ec__Iterator0_t3413438900_CustomAttributesCacheGeneratorP21CustomAttributesCache
qlh:__Z71RuntimeInvoker_Void_t1185182177_CornerU26_t2243868623_Int32_t2950945753PFvvEPK10MethodInfoPvPS4_
PSc:__ZN16PhysicsManager2D42RegisterTransformChangeInterestForColliderEP10Collider2D
Dng:_TextureMixerPlayable_Equals_m1074187513_AdjustorThunk
Udc:__ZNK14PlayableOutput23GetSourcePlayableUnsafeEv
Whd:__ZN11UnityEngine7Connect17XRDeviceInfoEventD0Ev
lfi:__ZL60SoapTypeAttribute_t1750930817_CustomAttributesCacheGeneratorP21CustomAttributesCache
Tie:_Binder_ConvertArgs_m2124461494
iW:__ZN21UnityDefaultAllocatorI17LowLevelAllocatorE10DeallocateEPv
Qs:__ZN15PackedIntVector8TransferI14SafeBinaryReadEEvRT_
Tzg:_Vector3__ctor_m3353183577_AdjustorThunk
WWe:_InternalEnumerator_1_System_Collections_IEnumerator_get_Current_m1514266661_gshared
Gze:_MD5SHA1_Initialize_m675470944
Peg:_Array_InternalArray__ICollection_Add_TisKeyframe_t4206410242_m442111799_gshared
ZXh:_List_1_CheckMatch_m3263549496_gshared
gji:__ZL58ManualResetEvent_t451242010_CustomAttributesCacheGeneratorP21CustomAttributesCache
cGh:_ReadOnlyCollection_1_System_Collections_IList_get_IsReadOnly_m2041535988_gshared
iXi:_X509Certificate_set_KeyAlgorithmParameters_m2010117999
VH:__ZN13AudioListener8DoUpdateEv
zNd:_Int32_GetTypeCode_m1648562395_AdjustorThunk
jWd:__Z13bankers_roundd
ggb:__ZN14SafeBinaryRead8TransferI5RectTIfEEEvRT_PKc17TransferMetaFlags
Ci:_emscripten_glGenFramebuffers
Iga:__ZN17BaseObjectManager16StaticInitializeEPv
x8e:_Enumerator_MoveNext_m1127886695_gshared
hij:__ZL25UnresolvedVirtualCall_191P12Il2CppObject26DateTimeOffset_t3229287507S1_PK10MethodInfo
Fia:__ZNSt3__26vectorIN9ShaderLab26SerializedShaderDependencyENS_9allocatorIS2_EEE26__swap_out_circular_bufferERNS_14__split_bufferIS2_RS4_EE
cki:__ZL80Convert_t2465617642_CustomAttributesCacheGenerator_Convert_ToBoolean_m3613483153P21CustomAttributesCache
yTh:_List_1_CheckCollection_m2602703205_gshared
dLa:__ZN9Behaviour23VirtualRedirectTransferER17RemapPPtrTransfer
dgd:__ZN21UnityAnalyticsManager23VirtualRedirectTransferER19StreamedBinaryWriteILb0EE
xDc:__Z18Transfer_BlittableI9JSONWriteLb0EyEvRK29SerializationCommandArgumentsR31RuntimeSerializationCommandInfo
s$a:__ZN13RenderTexture15ThreadedCleanupEv
ZEf:_X509BasicConstraintsExtension__ctor_m3721156175
J2a:__ZN12CubemapArray23VirtualRedirectTransferER14SafeBinaryRead
MDi:__ZL70EventSystem_t1003666588_CustomAttributesCacheGenerator_m_DragThresholdP21CustomAttributesCache
Iu:__ZN21AnimationClipPlayable16ProcessHumanPassEPK35AnimationPlayableEvaluationConstantPK32AnimationPlayableEvaluationInputP33AnimationPlayableEvaluationOutput
_Pd:_Path_GetFileName_m1354558116
Bwf:_BitConverterLE_ToDouble_m1601000678
tik:_emscripten_glUniform3i__wrapper
xug:_Rect_Contains_m1232228501_AdjustorThunk
JFa:__ZN18ProceduralMaterial9ReloadAllEbb
boc:__Z43RectTransform_CUSTOM_INTERNAL_set_sizeDeltaP12Il2CppObjectRK13Vector2fIcall
XNd:_Int64_System_IConvertible_ToType_m3223988955_AdjustorThunk
_Rj:__ZN15dense_hashtableINSt3__24pairIK10KeyWrapperINS1_IPKcS4_EEEiEES6_24NamespaceAndNamePairHashN14dense_hash_mapIS6_iS9_NS6_14EqualsComparerI26NamespaceAndNamePairEqualsEENS0_9allocatorIS8_EEE9SelectKeyESD_SF_E6insertERKS8_
G6:__ZN24GenerateTypeTreeTransfer18BeginArrayTransferEPKcS1_Ri17TransferMetaFlags
$Si:_Array_InternalArray__get_Item_TisPlayableBinding_t354260709_m3837494573_gshared
Am:___syscall51
LTf:_String_CreateString_m4016935005
sZi:_MatchCollection_get_FullList_m1829231879
Em:___syscall54
Ufj:__ZL24UnresolvedVirtualCall_68P12Il2CppObject17OpCode_t123070264S0_PK10MethodInfo
F1d:_Array_GetValue_m2528415604
Wei:__ZL55IMessageSink_t2514424906_CustomAttributesCacheGeneratorP21CustomAttributesCache
gNf:_SymmetricAlgorithm_Clear_m3302238152
Fvg:_Transform_INTERNAL_CALL_TransformPoint_m4261269221
c7f:_Guid_AppendShort_m791023083
chj:__ZL25UnresolvedVirtualCall_132P12Il2CppObject19Vector2_t2156229523S0_PK10MethodInfo
TEi:__ZL109PointerEventData_t3807901092_CustomAttributesCacheGenerator_PointerEventData_get_eligibleForClick_m3788762543P21CustomAttributesCache
tYh:_List_1__ctor_m4212503576_gshared
VDg:_UTF32Encoding_GetBytes_m2832872594
_oa:__ZN9ShaderLab9SubShader19CreateFromSubShaderERKS0_
Vyb:__Z18Transfer_BlittableI19StreamedBinaryWriteILb0EELb1EjEvRK29SerializationCommandArgumentsR31RuntimeSerializationCommandInfo
kZc:_cff_builder_add_point1
hTj:__ZN6il2cpp2vm5Image21GetCachedResourceDataEPK11Il2CppImageRKNSt3__212basic_stringIcNS5_11char_traitsIcEENS5_9allocatorIcEEEE
rqb:__Z18Transfer_BlittableI14SafeBinaryReadLb0E10ColorRGBAfEvRK29SerializationCommandArgumentsR31RuntimeSerializationCommandInfo
Ba:invoke_iiiiiiiiii
img:_DrivenRectTransformTracker_Clear_m371772582
gQ:__ZN11AudioSource25GetNumExtensionPropertiesEv
agg:_Array_InternalArray__ICollection_CopyTo_TisUILineInfo_t4195266810_m104406798_gshared
lO:__ZNK7Texture10GetVRUsageEv
X6d:_Char_ToLowerInvariant_m1926695830
KSg:_DefaultComparer__ctor_m41012692_gshared
zlg:_Debug_LogErrorFormat_m3558239521
YAd:_Graphic_get_canvas_m3320066409
Ogf:_InputField_ActivateInputFieldInternal_m3360893886
L0h:_List_1_Insert_m1781696722_gshared
AG:__ZN4FMOD7SystemI11createSoundEPKcjP22FMOD_CREATESOUNDEXINFOPPNS_5SoundE
Z1b:__ZN10FileSystem19SetCurrentDirectoryERKN4core12basic_stringIcNS0_20StringStorageDefaultIcEEEE
Ekg:_Component_get_gameObject_m442555142
mWd:_Math_Log_m2526073084
okc:__Z47Register_UnityEngine_Coroutine_ReleaseCoroutinev
GI:__ZN15AudioReverbZone13SetFMODValuesEv
o_:__ZN14SafeBinaryRead4InitERK16TypeTreeIteratorxx24TransferInstructionFlags10MemLabelId
Tha:__ZL19StaticDestroyShaderPv
ke:_glRenderbufferStorageMultisample
Ddc:__ZN8Playable4PlayEv
xce:_SyncHashtable_Clone_m3726939774
wz:__ZN23AnimationPlayableOutput17SetTargetAnimatorEP8Animator
Gci:__ZL62ParameterAttributes_t1826424051_CustomAttributesCacheGeneratorP21CustomAttributesCache
UEc:__ZN9JSONWrite8TransferI13dynamic_arrayIN4math12int3_storageELj4EEEEvRT_PKc17TransferMetaFlags
FSb:__ZN22MotionVectorRenderLoopD2Ev
wSd:_MemoryStream_get_CanRead_m1639425566
Blg:_Debug_LogException_m2207318968
WUf:_DecoderReplacementFallback_GetHashCode_m1611165826
KDd:_Image_get_minWidth_m755066479
cok:_pthread_cond_broadcast__wrapper
Xdg:_Array_InternalArray__ICollection_Add_TisClientCertificateType_t1004704908_m2622721177_gshared
Ys:__ZN17PackedFloatVector8TransferI18StreamedBinaryReadILb0EEEEvRT_
K3a:__ZN7Cubemap23VirtualRedirectTransferER17RemapPPtrTransfer
Qqc:__Z37Register_UnityEngine_Screen_get_widthv
knj:_UnityAnalyticsHandler_SendCustomEvent_m1223269116
I2i:_Uri_get_Authority_m3816772302
Sec:__ZN22BlockMemoryCacheWriter11GetPathNameEv
Mxe:_BigInteger_op_Division_m3713793389
Zxg:_Touch_get_position_m3109777936
lte:_ParameterInfo__ctor_m3269320476
_Hf:_X509SubjectKeyIdentifierExtension_FromHexChars_m3244835916
qRf:_Single_CompareTo_m2785801815
gWi:_PKCS12_MAC_m3355614022
Zei:__ZL63IMethodReturnMessage_t3705538073_CustomAttributesCacheGeneratorP21CustomAttributesCache
naj:_Clicklocation_Start_m3102562649
up:stackAlloc
Qkc:__Z44Camera_CUSTOM_INTERNAL_CALL_ScreenPointToRayP12Il2CppObjectRK8Vector3fR3Ray
hQa:__ZN25SingleBlockMemoryFileData4LockEPPv
snb:__ZN12HandlerChain5TouchER13FileEntryData
cmk:_glProgramParameteri__wrapper
FIh:_ReadOnlyCollection_1_System_Collections_Generic_ICollectionU3CTU3E_get_IsReadOnly_m1215739200_gshared
j_:__ZN17PersistentManager23PostReadActivationQueueEiPK8TypeTreeb
Bhg:_AnimationCurve_t3046754366_marshal_pinvoke
Fmc:__Z32RectOffset_Get_Custom_PropBottomP12Il2CppObject
vlg:_Debug_LogError_m2850623458
fyh:_Collection_1_CheckWritable_m3225530705_gshared
Cmk:_emscripten_glGetObjectParameterivARB__wrapper
JKi:__ZL74LayoutElement_t1785403678_CustomAttributesCacheGenerator_m_PreferredHeightP21CustomAttributesCache
$9j:_stat
$4:__ZN9ShaderLab10SubProgram7CompileEv
IKb:__ZN15InstancingProps14CombineBuiltinEN10Instancing11BuiltinPropES1_S1_
SYh:_List_1_Contains_m353222571_gshared
hpe:_PropertyBuilder_get_CanRead_m3783190070
Z0:__ZN14SerializedFile14SerializedTypeD2Ev
Vmi:__ZL64ThreadStaticAttribute_t3840787420_CustomAttributesCacheGeneratorP21CustomAttributesCache
ceg:_Array_InternalArray__ICollection_Add_TisKeyValuePair_2_t3699644050_m4052349323_gshared
$Be:_CipherSuiteCollection_System_Collections_IList_get_Item_m2175128671
ULc:__ZN15b2DistanceJoint23InitVelocityConstraintsERK12b2SolverData
fTa:__ZN6CameraD2Ev
na:invoke_iiiiiiiiiiii
KWf:_DateTime_System_IConvertible_ToType_m1242864300_AdjustorThunk
Aef:_ValueCollection_get_Count_m994935123_gshared
apc:__Z48Register_UnityEngine_Sprite_INTERNAL_CALL_Createv
A1e:_InternalEnumerator_1_get_Current_m2446410893_AdjustorThunk
eXa:__Z29CalculateDefaultChannelsToAdd17ShaderChannelMaskS_
mxi:__ZL89PlayableBinding_t354260709_CustomAttributesCacheGenerator_U3CstreamTypeU3Ek__BackingFieldP21CustomAttributesCache
KSa:__ZN10TagManager13RegisterLayerEjRKN4core12basic_stringIcNS0_20StringStorageDefaultIcEEEE
kJa:__ZNSt3__26__treeI20DeviceBlendStateGLES14MemoryCompLessI16DeviceBlendStateENS_9allocatorIS1_EEE7destroyEPNS_11__tree_nodeIS1_PvEE
clj:_CanvasRenderer_SetMaterial_m633746949
CL:__ZN10AudioMixer12RebindOutputEv
ULj:__ZNK15dense_hashtableINSt3__24pairIK10KeyWrapperIP11Il2CppClassES4_EES5_N6il2cpp8metadata16SZArrayClassHashEN14dense_hash_mapIS5_S4_SA_NS5_14EqualsComparerINS9_19SZArrayClassCompareEEENS0_9allocatorIS7_EEE9SelectKeyESE_SG_E5beginEv
bXe:_InternalEnumerator_1__ctor_m819716934_gshared
Sjf:_LayoutRebuilder_PerformLayoutControl_m4241054021
Opj:__ZN6il2cpp2vm17SetupFieldsLockedEP11Il2CppClassRKNS_2os12FastAutoLockE
Ejf:_U3CDelayedSetDirtyU3Ec__Iterator0_System_Collections_IEnumerator_get_Current_m3096581881
uJb:__ZNK9GfxDevice20IsViewportFullscreenEv
fM:__ZN11AudioSourceD0Ev
ZDa:__ZN18GlslGpuProgramGLES13SwitchProgramEj
WQa:__ZN20ArchiveStorageReaderC2E10MemLabelId
W1g:__Z132RuntimeInvoker_Int32_t2950945753_RuntimeObject_Int32_t2950945753_Int32_t2950945753_RuntimeObject_Int32_t2950945753_Int32_t2950945753PFvvEPK10MethodInfoPvPS4_
jbj:_Quitscript__ctor_m2697868717
Kob:__ZN16MemoryFileSystem4NameEv
Wsd:_ButtonState__ctor_m1506593332
Lqc:__Z13SetCopyBufferRKN4core12basic_stringIcNS_20StringStorageDefaultIcEEEE
p$g:_Enumerator_get_Current_m2468920150_AdjustorThunk
GUi:_TlsException__ctor_m818940807
v_d:_X509CertificateEnumerator_System_Collections_IEnumerator_get_Current_m418791713
J7c:_UNITY_FT_New_Size
Iic:__Z42ScriptingGetComponentsOfTypeFromGameObjectRK26ScriptingGetComponentsArgs
BKh:_Func_3_BeginInvoke_m2985061395_gshared
xwi:__ZL73ArgumentCache_t2187958399_CustomAttributesCacheGenerator_m_ObjectArgumentP21CustomAttributesCache
klg:_StateChanged_EndInvoke_m3313423087
wQi:_Array_swap_TisRaycastResult_t3360306849_TisRaycastResult_t3360306849_m3400922624_gshared
_dj:_AudioListener_ReadExtensionName_m929423100
QGd:_CspParameters__ctor_m2741097571
Fle:_EnumBuilder_get_DeclaringType_m4266754303
S1a:__ZNSt3__27__sort4IRPFbRKNS_4pairIN9ShaderLab16FastPropertyNameEN18UnityPropertySheet11UnityTexEnvEEES8_EPS6_EEjT0_SD_SD_SD_T_
i$i:_Assertion_get_TrueExpression_m2743006331
iYc:_cf2_hintmap_build
yNc:__ZN7b2ShapeD2Ev
Ixg:_Texture_get_width_m888163864
r5c:_Line_Up
ZOi:_Array_Resize_TisRaycastResult_t3360306849_m1277390301_gshared
re:_emscripten_glBufferSubData
mTf:_String_ReplaceUnchecked_m1381393810
Ryf:_SymmetricTransform_CBC_m435753239
$ub:__Z18Transfer_BlittableI17RemapPPtrTransferLb1EyEvRK29SerializationCommandArgumentsR31RuntimeSerializationCommandInfo
pKi:__ZL76ContentSizeFitter_t3850442145_CustomAttributesCacheGenerator_m_HorizontalFitP21CustomAttributesCache
f4e:_DefaultComparer_Compare_m3278268937_gshared
lq:__Z17CalculateGlobalRS23TransformAccessReadOnly
QEj:__ZN24dense_hashtable_iteratorINSt3__24pairIK10KeyWrapperINS1_IPK10MethodInfoP11Il2CppClassEEEjEES9_17ReflectionMapHashIS8_EN14dense_hash_mapIS9_jSD_NS9_14EqualsComparerINS0_8equal_toIS8_EEEENS0_9allocatorISB_EEE9SelectKeyESI_SK_E30advance_past_empty_and_deletedEv
E4j:__ZNSt3__210__list_impIPN6il2cpp5utils10MemoryPool6RegionENS_9allocatorIS5_EEE5clearEv
Aqi:__ZL85Camera_t4157153871_CustomAttributesCacheGenerator_Camera_get_orthographic_m2831464531P21CustomAttributesCache
T0e:_InternalEnumerator_1_get_Current_m1523142935_gshared
god:__ZN13RuntimeStaticINSt3__26vectorIN5physx25PxVehicleWheelQueryResultENS0_9allocatorIS3_EEEELb0EE16StaticInitializeEPv
ttb:__ZN14SafeBinaryRead21TransferSTLStyleArrayI13dynamic_arrayI9BoundsIntLj4EEEEvRT_17TransferMetaFlags
alb:__ZN22MemoryCacherReadBlocks14LockCacheBlockEjPPhS1_
BTd:_StreamAsyncResult_get_NBytes_m548041729
eBj:__ZN6il2cpp2vm14TypeNameParser17ParseAssemblyNameEv
mvc:_decompress_onepass
pab:__ZNK9GfxDevice26GetSinglePassStereoEyeMaskEv
Llg:_DebugLogHandler_Internal_Log_m4175774469
M_j:__ZN4utf88internal15increase_safelyIPKcEENS0_9utf_errorERT_S5_
Ppj:__ZN6il2cpp2vmL21SetupPropertiesLockedEP11Il2CppClassRKNS_2os12FastAutoLockE
_Pf:_SecurityContext_get_CompressedStack_m3401528670
Y6c:__ZN20TextRenderingPrivate8FontImpl16CacheFontForTextEPtiifjPK13dynamic_arrayINS_16TextFormatChangeELj4EE
g7d:_CharEnumerator_get_Current_m525608209
p_e:_InternalEnumerator_1_Dispose_m887344916_AdjustorThunk
Npd:__Z21ArrayElementTypeCheckP11Il2CppArrayPv
glk:_emscripten_glTexSubImage2D__wrapper
C0f:_StackTrace_init_frames_m641783388
MEf:_PublicKey_DecodeRSA_m1824703659
Vbk:__ZNSt3__212basic_stringIcNS_11char_traitsIcEENS_9allocatorIcEEE6appendEjc
JUc:__ZN16PhysicsManager2D20WorldContactFilter2D13ShouldCollideEP9b2FixtureS2_
xfd:__Z42Register_UnityEngine_Canvas_get_rootCanvasv
aki:__ZL78Convert_t2465617642_CustomAttributesCacheGenerator_Convert_ToBoolean_m40300963P21CustomAttributesCache
c8d:_ArrayListWrapper_set_Item_m3849584877
_e:_TTF_RenderText_Solid
WRh:_List_1__ctor_m3947764094_gshared
u4h:__ZL52IComparable_t36111218_CustomAttributesCacheGeneratorP21CustomAttributesCache
z1i:_Parser_IsIgnorePatternWhitespace_m2107132682
YBf:_HttpRequestCreator_Create_m400548686
Wld:__ZN11UnityEngine7Connect16PersistentValuesC2Ev
K7g:__Z49RuntimeInvoker_RuntimeObject_StringU26_t181565287PFvvEPK10MethodInfoPvPS4_
GHh:_ReadOnlyCollection_1_System_Collections_IList_Insert_m134149130_gshared
bDc:__Z18Transfer_BlittableI9JSONWriteLb0E5RectTIiEEvRK29SerializationCommandArgumentsR31RuntimeSerializationCommandInfo
xuf:_BigInteger_get_Rng_m4216817480
rXc:_cf2_getStdVW
W8f:_Array_InternalArray__ICollection_Remove_TisDateTime_t3738529785_m2250893026_gshared
nhi:__ZL67RijndaelManagedTransform_t4102601014_CustomAttributesCacheGeneratorP21CustomAttributesCache
pEa:__Z15IsIEEE754Format14GraphicsFormat
nvb:__Z19TransferField_ArrayI17RemapPPtrTransfer27Converter_UnityEngineObjectEvRK23StaticTransferFieldInfoR31RuntimeSerializationCommandInfoRT0_
ab:invoke_iifiii
Vae:_KeyNotFoundException__ctor_m541499307
vca:__ZN13RuntimeStaticINSt3__23mapIN4core12basic_stringIcNS2_20StringStorageDefaultIcEEEES6_NS0_4lessIS6_EE13stl_allocatorINS0_4pairIKS6_S6_EEL18MemLabelIdentifier13ELi16EEEELb0EE16StaticInitializeEPv
rag:_SetPropertyUtility_SetStruct_TisSpriteState_t1362986479_m665096788_gshared
q2g:__Z61RuntimeInvoker_Single_t1397266774_RuntimeObject_RuntimeObjectPFvvEPK10MethodInfoPvPS4_
TYi:_Enumerator__ctor_m1228633090
a9f:_Array_InternalArray__ICollection_Remove_TisIntPtr_t_m3807208150_gshared
gfh:__Z71RuntimeInvoker_Void_t1185182177_Vector3_t3722313464_Vector3_t3722313464PFvvEPK10MethodInfoPvPS4_
_Ze:_InternalEnumerator_1_get_Current_m2316281569_AdjustorThunk
NVf:_DateTime__ctor_m1095105629
Yra:__ZN13GfxDeviceGLES15UploadTexture2DE9TextureID16TextureDimensionPKhiii14GraphicsFormati18TextureUploadFlags16TextureUsageMode
yqh:__Z41RuntimeInvoker_KeyValuePair_2_t3699644050PFvvEPK10MethodInfoPvPS4_
n3i:_Event_Cleanup_m2477919477
yK:__ZN4FMOD6System9createDSPEP20FMOD_DSP_DESCRIPTIONPPNS_3DSPE
wji:__ZL87Thread_t2300836069_CustomAttributesCacheGenerator_Thread_GetCompressedStack_m2923422412P21CustomAttributesCache
Pwg:_HitInfo_t3229609740_marshal_pinvoke_back
iHe:_SslClientStream_get_ClientCertificates_m998716871
bJe:__ZN21InterfaceFuncInvoker0IP8String_tE6InvokeEjP11Il2CppClassP12Il2CppObject
yG:__ZN4FMOD8ChannelI11EndCallbackEv
laj:_U3CStartU3Ec__Iterator0_Reset_m695822495
fzc:__ZN8GUIStyle14SetDefaultFontEPN13TextRendering4FontE
FTh:_List_1_ToArray_m2860284581_gshared
r6a:__ZN15QualitySettings23VirtualRedirectTransferER24GenerateTypeTreeTransfer
mSe:_ObjectReader_ReadValue_m3145979203
Uvd:_CanvasScaler_OnDisable_m3424669401
Jcf:_Transform_1_BeginInvoke_m500585065_gshared
Iua:__ZThn9568_N13GfxDeviceGLES32InitStereoGlobalsBuffersPlatformEiijPKv
GIi:__ZL68Scrollbar_t1494447233_CustomAttributesCacheGenerator_m_NumberOfStepsP21CustomAttributesCache
Vnf:_ScrollRect_set_content_m321343743
Csj:__ZN30dense_hashtable_const_iteratorINSt3__24pairIK10KeyWrapperIPK19Il2CppGenericMethodEPK26Il2CppGenericMethodIndicesEES6_N6il2cpp8metadata23Il2CppGenericMethodHashEN14dense_hash_mapIS6_SA_SE_NS6_14EqualsComparerINSD_26Il2CppGenericMethodCompareEEENS0_9allocatorISB_EEE9SelectKeyESI_SK_EppEv
XWc:_UNITY_FT_Request_Metrics
a$a:__ZN7Texture8TransferI18StreamedBinaryReadILb0EEEEvRT_
VQj:__ZN6il2cpp6icalls8mscorlib6System10Reflection10MonoMethod29get_IsGenericMethodDefinitionEP22Il2CppReflectionMethod
oNj:__ZN6il2cpp2vm6Thread21AllocThreadStaticDataEi
zDi:__ZL63AnalyticsSessionState_t681173134_CustomAttributesCacheGeneratorP21CustomAttributesCache
P5f:_NumberFormatInfo_get_PercentNegativePattern_m1304634118
Yie:_Default_SelectMethod_m469311730
qog:_Input_get_mousePosition_m1616496925
io:FUNCTION_TABLE_difi
IZj:__ZN30dense_hashtable_const_iteratorINSt3__24pairIK10KeyWrapperIPK19Il2CppGenericMethodEP10MethodInfoEES6_N6il2cpp8metadata23Il2CppGenericMethodHashEN14dense_hash_mapIS6_S9_SD_NS6_14EqualsComparerINSC_26Il2CppGenericMethodCompareEEENS0_9allocatorISA_EEE9SelectKeyESH_SJ_EppEv
LLg:_UInt32_ToString_m2066897296_AdjustorThunk
uP:__Z13RegisterClassI13AudioListenerEvv
ylb:__ZN24GenerateTypeTreeTransfer19TransferSTLStyleMapINSt3__23mapI4PPtrI6ShaderEN4core12basic_stringIcNS6_20StringStorageDefaultIcEEEENS1_4lessIS5_EENS1_9allocatorINS1_4pairIKS5_SA_EEEEEEEEvRT_17TransferMetaFlags
kbe:_Enumerator_Reset_m4274366540
ACc:__Z18Transfer_BlittableI9JSONWriteLb0E8Vector3fEvRK29SerializationCommandArgumentsR31RuntimeSerializationCommandInfo
qda:__ZN13RuntimeStaticI17UniqueIDGeneratorLb0EE13StaticDestroyEPv
Zf:_emscripten_glUniform4i
f$c:_otv_FeatureList_validate
kf:_emscripten_glUniform4f
Jj:___unlock
F0j:_GC_default_oom_fn
n_c:_otv_validate
t0b:__ZN13sorted_vectorINSt3__24pairIN4core12basic_stringIcNS2_20StringStorageDefaultIcEEEES6_EEN10vector_mapIS6_S6_27compare_tstring_insensitiveIS6_E13stl_allocatorIS7_L18MemLabelIdentifier38ELi16EEE13value_compareESD_E9erase_oneIS6_EEjRKT_
ZSg:_DefaultComparer__ctor_m963958896_gshared
pOf:_X509Certificate_Equals_m3784196370
d0h:_List_1__ctor_m3376067838_gshared
SM:__ZN20SoundChannelInstance19setReverbPropertiesEP29FMOD_REVERB_CHANNELPROPERTIES
kPh:_Enumerator_MoveNext_m1446151600_gshared
dMf:_SHA1Internal_ProcessFinalBlock_m1403775421
tCi:__ZL87Canvas_t3310196443_CustomAttributesCacheGenerator_Canvas_get_sortingLayerID_m3685979122P21CustomAttributesCache
tmi:__ZL69Math_t1671470975_CustomAttributesCacheGenerator_Math_Sqrt_m1297338011P21CustomAttributesCache
H_j:__ZN4utf88internal13validate_nextIPKcEENS0_9utf_errorERT_S5_Rj
uqc:__Z40Register_UnityEngine_Transform_IsChildOfv
wQe:_RemotingServices_GetOrCreateClientIdentity_m648299611
C3e:_InternalEnumerator_1_get_Current_m2356858238_AdjustorThunk
Mlc:__Z45Register_UnityEngine_Display_GetSystemExtImplv
Eyf:_RSAManaged_ImportParameters_m1844641996
_bi:__ZL67AssemblyProductAttribute_t1000945320_CustomAttributesCacheGeneratorP21CustomAttributesCache
AKa:__ZN9GfxDevice31DrawIndexedNullGeometryIndirectE16GfxPrimitiveTypeP9GfxBuffer15ComputeBufferIDj
i6e:_Enumerator_System_Collections_IDictionaryEnumerator_get_Value_m3325938730_AdjustorThunk
Iv:__ZN7mecanim9animation23TransformValuesFromClipEiiiRKNS_10ValueArrayERKNS0_10ClipOutputERKNS0_12ClipBindingsERS1_RNS_14ValueArrayMaskEb
sOi:_Array_qsort_TisOrderBlock_t1585977831_TisOrderBlock_t1585977831_m1675918557_gshared
xef:_ValueCollection_System_Collections_ICollection_get_SyncRoot_m1114275063_gshared
Qmj:__ZL17log2withScale_128yyi
U6f:_Guid_Equals_m1866984197
Dbd:__ZNSt3__218__insertion_sort_3IRNS_6__lessIN2UI14DepthSortEntryES3_EEPS3_EEvT0_S7_T_
s7e:_Enumerator__ctor_m65667165_gshared
Fhe:_PlatformNotSupportedException__ctor_m1787918017
Gea:__ZN13RuntimeStaticI15DirectorManagerLb0EE16StaticInitializeEPv
MEh:_ReadOnlyCollection_1_System_Collections_ICollection_CopyTo_m2643246984_gshared
Ueb:__ZN11TimeManager6UpdateEv
YPh:_Enumerator_System_Collections_IEnumerator_get_Current_m209407522_gshared
OEd:_StreamingContext_GetHashCode_m2281950854_AdjustorThunk
EVe:_InternalEnumerator_1__ctor_m619554185_AdjustorThunk
Nvd:_CanvasScaler_get_fallbackScreenDPI_m2811935689
OQe:_WellKnownServiceTypeEntry_get_ObjectUri_m560402900
DWf:_DateTimeFormatInfo_ReadOnly_m890935083
EGh:_ReadOnlyCollection_1_System_Collections_ICollection_get_SyncRoot_m1280260618_gshared
uMi:__ZL81ValueProperty_t1868393739_CustomAttributesCacheGenerator_m_EnumTypeIsCustomizableP21CustomAttributesCache
gak:_fflush
p4:__ZN17LightProbeContext4InitERK16LightmapSettingsRK14RenderSettings
$4g:__Z82RuntimeInvoker_Int32_t2950945753_RuntimeObject_Int32_t2950945753_SByte_t1669577662PFvvEPK10MethodInfoPvPS4_
MVb:__ZN18DeferredRenderLoop14RenderLightingER21ActiveLightingContextP13RenderTexture9TextureIDPS3_iRK8Vector4fRK14LightingLayersR10MinMaxAABBb12ObjectHandleI17RenderSurface_TagP17RenderSurfaceBaseE
uwg:_SceneManager_Internal_ActiveSceneChanged_m3676176255
AXi:_X509Certificate_GetIssuerName_m1142198382
g1i:_ExpressionAssertion_set_Negate_m1236561973
a1f:_Double_System_IConvertible_ToInt16_m3591921965
A9a:__ZN9Texture3DD2Ev
Oyh:_Collection_1_set_Item_m4280581817_gshared
bDd:_Image_get_fillMethod_m1027254375
BJi:__ZL60Slider_t3903728902_CustomAttributesCacheGenerator_m_MaxValueP21CustomAttributesCache
l8:__ZN10ColorRGBAf8TransferI19StreamedBinaryWriteILb0EEEEvRT_
aji:__ZL97CompressedStack_t1202932761_CustomAttributesCacheGenerator_CompressedStack_CreateCopy_m2591279216P21CustomAttributesCache
uee:_Convert_ToChar_m2796006345
ehg:_Array_InternalArray__Insert_TisContentType_t1787303396_m3566390691_gshared
fWj:__ZNSt3__26vectorI20Il2CppStackFrameInfoNS_9allocatorIS1_EEE7reserveEj
dfi:__ZL82MethodDictionary_t207894204_CustomAttributesCacheGenerator_U3CU3Ef__switchU24map21P21CustomAttributesCache
x8d:_ArrayListWrapper_GetEnumerator_m2336495952
cYb:__Z34ProcessIndexListIsNodeVisibleStep2RK22SceneCullingParametersPK9SceneNodePK4AABBR9IndexList
lHb:__ZN10MonoScriptD2Ev
DAa:__ZN6prcoreL12RemapGenericI17TexFormatARGB888817TexFormatBGRA8888EEvPKNS_9InnerInfoE
lIa:__ZN19ConstantBuffersGLES8UpdateCBE5CbKeyPKvj
uvd:_U3COnFinishSubmitU3Ec__Iterator0_System_Collections_Generic_IEnumeratorU3CobjectU3E_get_Current_m2586882303
Edj:_AudioSource_get_spatializeInternal_m2117549793
anc:__Z39Input_CUSTOM_INTERNAL_get_mousePositionP8Vector3f
B1d:_SimpleEnumerator__ctor_m353509656
U0c:_tt_cmap13_char_next
ODi:__ZL117EventSystem_t1003666588_CustomAttributesCacheGenerator_EventSystem_t1003666588____lastSelectedGameObject_PropertyInfoP21CustomAttributesCache
Xoa:__ZN9ShaderLab4Pass16SetupPassOptionsEv
K$h:_List_1_GetIndex_m1042356532_gshared
oh:_JS_Sound_ReleaseInstance
Vqa:__ZN13GfxDeviceGLES19DrawBuffersIndirectEP9GfxBufferPK18VertexStreamSourceiP17VertexDeclaration17ShaderChannelMask16GfxPrimitiveType15ComputeBufferIDj
G6f:_Guid_CheckArray_m921056615
nKe:_ConfigHandler_ReadLifetine_m208994800
Hkd:__ZN20UnityConnectSettings16CheckConsistencyEv
vEj:__ZNK15dense_hashtableINSt3__24pairIK10KeyWrapperINS1_IPK10MethodInfoP11Il2CppClassEEEjEES9_17ReflectionMapHashIS8_EN14dense_hash_mapIS9_jSD_NS9_14EqualsComparerINS0_8equal_toIS8_EEEENS0_9allocatorISB_EEE9SelectKeyESI_SK_E12test_deletedEj
_Jg:_UInt16_System_IConvertible_ToByte_m3185614807_AdjustorThunk
UGe:_SecurityParameters_set_ServerWriteMAC_m3003817350
oEb:__Z29Transfer_Blittable_ArrayFieldI18StreamedBinaryReadILb0EEaEvRT_R9ArrayInfoRK23StaticTransferFieldInfo
bug:_Rect_get_max_m350137314_AdjustorThunk
Pm:FUNCTION_TABLE_diddi
BNj:__ZN6il2cpp6icalls8mscorlib6System5Array8FastCopyEP11Il2CppArrayiS5_ii
nMh:_CachedInvokableCall_1_Invoke_m2909479018_gshared
voc:__Z26Material_CUSTOM_SetIntImplP12Il2CppObjectii
Myj:__ZNSt3__26vectorIPK10MethodInfoNS_9allocatorIS3_EEE21__push_back_slow_pathIRKS3_EEvOT_
hmh:__Z54RuntimeInvoker_Boolean_t97287965_LabelFixup_t858502054PFvvEPK10MethodInfoPvPS4_
Rbc:__ZN8GUILayerD2Ev
NZh:_List_1_Clear_m2244610185_gshared
Smc:__Z42Register_UnityEngine_RectOffset_get_bottomv
sai:__ZL55BinaryReader_t2428077293_CustomAttributesCacheGeneratorP21CustomAttributesCache
J9j:_newlocale
mhe:_ObjectDisposedException_get_Message_m1666887471
utb:__ZN9BoundsInt8TransferI14SafeBinaryReadEEvRT_
hjk:_emscripten_glUniform1f__wrapper
Vdk:dynCall_di
i_d:_X509Certificate_get_SubjectName_m3160893681
wmg:_BaseInvokableCall_AllowInvoke_m878393606
hCc:__Z28RegisterModule_JSONSerializev
NKj:_il2cpp_monitor_enter
Slb:__ZN2UI13RectTransform8TransferI14SafeBinaryReadEEvRT_
tDc:__Z35Transfer_Blittable_FixedBufferFieldI9JSONWriteaEvRK29SerializationCommandArgumentsR31RuntimeSerializationCommandInfo
Big:_Behaviour_get_enabled_m753527255
Fgc:__Z20IsHumanControllingUsv
Jdf:_Enumerator_MoveNext_m181298207_gshared
Jqh:__Z44RuntimeInvoker_ParameterModifier_t1461694466PFvvEPK10MethodInfoPvPS4_
ZW:__ZNK20DynamicHeapAllocatorI17LowLevelAllocatorE10GetPtrSizeEPKv
r0h:_List_1_System_Collections_IList_get_IsReadOnly_m3278465421_gshared
mai:__ZL51TextInfo_t3810425522_CustomAttributesCacheGeneratorP21CustomAttributesCache
yNa:__ZN10systeminfo21GetPersistentDataPathEv
r6i:_SymmetricTransform_get_KeepLastBlock_m2492071306
Iqa:__ZN13GfxDeviceGLES17DestroyGpuProgramEPK10GpuProgram
WNi:_Array_InternalArray__set_Item_TisRaycastResult_t3360306849_m730888808_gshared
Qpb:__Z44InitializeTransferFunctionScriptingTraitsForI18StreamedBinaryReadILb0EEEvR31TransferFunctionScriptingTraits
kdf:_Enumerator_System_Collections_IEnumerator_Reset_m53411943_gshared
gUb:__ZNSt3__218__insertion_sort_3IR23CompareReflectionProbesP31RuntimeReflectionProbeBlendInfoEEvT0_S5_T_
xvb:__ZN12NativeBufferI27Converter_SimpleNativeClassI8GradientEE15SetupForWritingER9ArrayInfo
dvf:_Kernel_RightShift_m2207393597
oha:__ZNSt3__213__stable_sortIRNS_4lessIN4core12basic_stringIcNS2_20StringStorageDefaultIcEEEEEENS_11__wrap_iterIPS6_EEEEvT0_SC_T_NS_15iterator_traitsISC_E15difference_typeEPNSF_10value_typeEi
LLi:__ZL48Shadow_t773074319_CustomAttributesCacheGeneratorP21CustomAttributesCache
i9:__ZN12_GLOBAL__N_113StaticDestroyEPv
Ynk:_glUnmapBuffer__wrapper
ncf:_Transform_1__ctor_m3369371265_gshared
$Gc:__ZN8JSONRead21TransferSTLStyleArrayINSt3__26vectorI8Gradient13stl_allocatorIS3_L18MemLabelIdentifier1ELi16EEEEEEvRT_17TransferMetaFlags
pfb:__ZNSt3__218__insertion_sort_3IRNS_6__lessINS_4pairIPKN5Unity4TypeE7Hash128EES8_EEPS8_EEvT0_SC_T_
$ud:_U3CDelayUpdateU3Ec__Iterator0_Dispose_m2972384857
Sff:_InputField_set_onValueChanged_m3658917578
fxb:__ZN10RectOffset8TransferI24GenerateTypeTreeTransferEEvRT_
tUi:_TlsClientSettings_get_ClientCertificate_m3139459118
kPd:_BinaryReader__ctor_m2266204403
NBe:__ZN21InterfaceFuncInvoker5IiP22ByteU5BU5D_t4116647657iiS1_iE6InvokeEjP11Il2CppClassP12Il2CppObjectS1_iiS1_i
uOc:__ZN22b2EdgeAndCircleContact8EvaluateEP10b2ManifoldRK11b2TransformS4_
VTc:__ZNK10Collider2D15GetAttachedBodyEv
Q_g:_Enumerator_VerifyState_m3047769867_AdjustorThunk
rwb:__Z18Transfer_BlittableI24GenerateTypeTreeTransferLb1E5RectTIiEEvRK29SerializationCommandArgumentsR31RuntimeSerializationCommandInfo
Wyc:__ZN16GUIKeyboardStateD2Ev
nbd:__ZN2UI13CanvasManager19RemoveDirtyRendererEPNS_6CanvasEPNS_14CanvasRendererE
L8j:_isspace
VQe:_BinaryFormatter__ctor_m2620705134
NIb:__Z15GetIApplicationv
Jid:__ZN11UnityEngine15PlatformWrapper25GetGraphicsRendererStringEv
cEg:_UTF7Encoding_InternalGetBytes_m797138468
GV:__ZN11UnityEngine15CloudWebService17WebFileDownloaderINS0_20WebRequestRestClientENS0_23WebRequestRestHeaderMapEED2Ev
Yb:invoke_vi
Z_d:_SmallXmlParser_HandleWhitespaces_m549588711
IEc:__ZN9JSONWrite8TransferI13dynamic_arrayI9BoundsIntLj4EEEEvRT_PKc17TransferMetaFlags
Wb:invoke_vd
wb:invoke_vf
oZi:_Regex_get_RightToLeft_m2317867572
_3:__ZNK10GameObject8IsActiveEv
tlc:__Z34Component_Get_Custom_PropTransformP12Il2CppObject
vCi:__ZL83Canvas_t3310196443_CustomAttributesCacheGenerator_Canvas_get_rootCanvas_m3165691493P21CustomAttributesCache
$Bi:__ZL67g_UnityEngine_PhysicsModule_Assembly_CustomAttributesCacheGeneratorP21CustomAttributesCache
pXi:_X509Certificate_get_SignatureAlgorithm_m122054440
ODa:__ZN18GfxFramebufferGLES23SetupDefaultFramebufferEPP17RenderSurfaceBaseS2_N2gl6HandleILNS3_10ObjectTypeE9EEE
_Dh:_ReadOnlyCollection_1_get_Item_m3437922467_gshared
Eyd:_DefaultControls_CreateDropdown_m3286664171
v7a:__ZN13ScreenManager18RequestOrientationE17ScreenOrientation
lqj:__ZN6il2cpp2vm5Class12SetupMethodsEP11Il2CppClass
hic:__Z39DeleteLastPathNameComponentWithAnySlashRKN4core12basic_stringIcNS_20StringStorageDefaultIcEEEE
fyc:__ZN10GUIManager14InitGUIManagerEv
Kdh:__Z77RuntimeInvoker_Void_t1185182177_RegexOptionsU26_t1638284957_SByte_t1669577662PFvvEPK10MethodInfoPvPS4_
ZKi:__ZL78LayoutRebuilder_t541313304_CustomAttributesCacheGenerator_U3CU3Ef__amU24cache1P21CustomAttributesCache
qzj:__ZNSt3__26vectorIP11Il2CppClassNS_9allocatorIS2_EEE26__swap_out_circular_bufferERNS_14__split_bufferIS2_RS4_EE
AKg:_UInt16_Equals_m642257745
f1d:_Array_System_Collections_IList_IndexOf_m3301661616
vie:_AssemblyFileVersionAttribute__ctor_m3720707642
KAg:_WaitForSeconds__ctor_m2199082655
pve:_RuntimeResourceSet_CloneDisposableObjectIfPossible_m2725520898
c8:__ZN18StreamedBinaryReadILb0EE21TransferSTLStyleArrayI13dynamic_arrayIN4math14float3_storageELj4EEEEvRT_17TransferMetaFlags
HId:_HMACSHA384_set_ProduceLegacyHmacValues_m76936446
oAc:__Z37Register_UnityEngine_GUIStyle_Cleanupv
Pa:invoke_iiifii
oqf:_SliderEvent__ctor_m3149452941
rZd:_DeriveBytes__cctor_m1212925033
pud:_UIBehaviour_OnDestroy_m1613239498
Ubc:__ZN8GUILayer12AddToManagerEv
mBd:_Graphic_OnDisable_m1097930217
dzj:__ZN6il2cpp6icalls8mscorlib6System8MonoType13IsPointerImplEP20Il2CppReflectionType
$i:_emscripten_glFramebufferRenderbuffer
RWb:__ZN19CullingGroupManager17CullAndSendEventsERK22SceneCullingParametersiRK13CullingOutputRK8JobFence
eJe:__ZN21InterfaceFuncInvoker3IP12Il2CppObjectP8String_tS1_PS3_E6InvokeEjP11Il2CppClassS1_S3_S1_S4_
Slj:_AnimationLayerMixerPlayable_GetHandle_m3854437798_AdjustorThunk
BUh:_List_1_ToArray_m2949058867_gshared
Mti:__ZL98DataUtility_t2196215967_CustomAttributesCacheGenerator_DataUtility_Internal_GetMinSize_m2628270685P21CustomAttributesCache
hSa:__ZN9Transform30EnsureTransformHierarchyExistsEv
wIg:_Type_FilterName_impl_m2651733559
V1d:_Array_GetValue_m116098292
OQg:_Dictionary_2_System_Collections_Generic_ICollectionU3CSystem_Collections_Generic_KeyValuePairU3CTKeyU2CTValueU3EU3E_Add_m1448015620_gshared
_jc:__Z46Register_UnityEngine_Application_get_isPlayingv
MAh:_Collection_1_ClearItems_m2182923889_gshared
h0b:__ZNSt3__26vectorINS_4pairIN4core12basic_stringIcNS2_20StringStorageDefaultIcEEEEPK17MessageIdentifierEENS_9allocatorISA_EEE12__move_rangeEPSA_SE_SE_
qQb:__ZN14qsort_internal17MedianOfThreeSwapIP17RODataReplacement19ROSorterReplacementEEvT_S4_S4_T0_
pSf:_String_Split_m3646115398
bvg:_RectOffset_ToString_m2007443979
bpj:__ZNK15dense_hashtableINSt3__24pairIK10KeyWrapperIPK22Il2CppGenericParameterEP11Il2CppClassEES6_N6il2cpp5utils11PointerHashIS4_EEN14dense_hash_mapIS6_S9_SE_NS6_14EqualsComparerINS0_8equal_toIS5_EEEENS0_9allocatorISA_EEE9SelectKeyESJ_SL_E3endEv
cic:__ZN17TransformInternal36OnScaleChangedCalculateTransformTypeE15TransformAccess
kOa:__ZN17ArchiveFileSystem10ToAbsoluteEPKc
d5i:_GUILayoutGroup_CalcHeight_m1669391299
vjd:__ZN19UnityConnectService15GetPlayerUserIdEv
kdg:_Array_InternalArray__IndexOf_TisSByte_t1669577662_m4156538463_gshared
Fr:__ZN7mecanim6CRCKeyENS_7eStringE
wfc:__ZL12SetPrefValueRKN4core12basic_stringIcNS_20StringStorageDefaultIcEEEERK9PrefValue
iAi:__ZL81GUIStyle_t3956901511_CustomAttributesCacheGenerator_GUIStyle_get_name_m2109418832P21CustomAttributesCache
eja:__ZL30ReconstructParamNamesFromTableIN9ShaderLab20SerializedSubProgram15MatrixParameterEEvRK14dense_hash_mapIiN4core17string_with_labelILi1EEE18SInt32HashFunctionNSt3__28equal_toIiEE13stl_allocatorINS8_4pairIKiS6_EEL18MemLabelIdentifier1ELi16EEERNS8_6vectorIT_NS8_9allocatorISL_EEEE
cab:__ZN19ShaderPropertySheet20ReservePropertyCountEj
s_j:__ZN6il2cpp5utils11StringUtils6PrintfEPKcz
iMj:__ZNSt3__26vectorIN6il2cpp8metadata18GenericArrayMethodENS_9allocatorIS3_EEE7reserveEj
Bna:__ZN15NameToObjectMapI6ShaderNSt3__23mapI4PPtrIS0_EN4core12basic_stringIcNS5_20StringStorageDefaultIcEEEENS1_4lessIS4_EENS1_9allocatorINS1_4pairIKS4_S9_EEEEEENS1_8multimapIS9_S4_NSA_IS9_EENSC_INSD_IKS9_S4_EEEEEEE4FindERSK_
h3a:__ZN24GenerateTypeTreeTransfer21TransferResourceImageE19ActiveResourceImagePKcR13StreamingInfoPvjiPKN5Unity4TypeE
eQi:_Array_Sort_TisVector3_t3722313464_m1030213405_gshared
MVj:__ZN6il2cpp2vm6Object5CloneEP12Il2CppObject
Usc:_UNITY_png_zstream_error
vyi:__ZL94TextGenerator_t3211863866_CustomAttributesCacheGenerator_TextGenerator_Dispose_cpp_m1826354328P21CustomAttributesCache
d6j:__ZN6il2cpp6icalls8mscorlib6System9Threading5Mutex20CreateMutex_internalEbP12Il2CppStringPb
snk:_emscripten_glLinkProgram__wrapper
Skg:_Coroutine_Finalize_m1957108547
d6i:_KeyBuilder_Key_m2503211157
KYa:__ZNSt3__212__deque_baseI18ReflectionProbeJobNS_9allocatorIS1_EEED2Ev
$z:__ZN11UnityEngine9Animation27DestroyAnimationSetBindingsEPNS0_20AnimationSetBindingsERN7mecanim6memory9AllocatorE
kja:__ZN15dense_hashtableINSt3__24pairIKiN4core17string_with_labelILi1EEEEEi18SInt32HashFunctionN14dense_hash_mapIiS5_S7_NS0_8equal_toIiEE13stl_allocatorIS6_L18MemLabelIdentifier1ELi16EEE9SelectKeyESA_SD_E13set_empty_keyERKS6_
Hkg:_Component_GetComponentInChildren_m388868270
tYg:_GenericEqualityComparer_1_Equals_m1705889345_gshared
JE:__ZN8Animator12CleanupClassEv
ZGc:__Z13TransferFieldI8JSONReadLb0E27Converter_SimpleNativeClassI10RectOffsetEEvRK23StaticTransferFieldInfoR31RuntimeSerializationCommandInfoRT1_
cCd:__ZN21InterfaceFuncInvoker0IiE6InvokeEjP11Il2CppClassP12Il2CppObject
UBf:_FtpWebRequest__cctor_m699542155
mTj:__GLOBAL__sub_I_GenericMetadata_cpp
D6h:__ZL70RuntimeArray_CustomAttributesCacheGenerator_Array_SetValue_m3412648248P21CustomAttributesCache
sij:__ZL25UnresolvedVirtualCall_202P12Il2CppObject22ColorBlock_t2139031574PK10MethodInfo
kaj:_U3CStartU3Ec__Iterator0_Dispose_m2253585971
TAf:_NameObjectCollectionBase_GetEnumerator_m3677320185
FXb:__Z24CalculateSpotLightBoundsffRK10Matrix4x4fR15SpotLightBounds
Ycj:_ListPool_1_Get_m3176656818_gshared
BPg:_Dictionary_2_TryGetValue_m3495031886_gshared
B_a:__ZNK13RenderTexture21GetShadowSamplingModeEv
PR:__ZN23CloudWebServicesManager23VirtualRedirectTransferER14SafeBinaryRead
Vzf:_PKCS12_AddCertificate_m3857004455
tmf:_GetRayIntersectionAllCallback__ctor_m391992746
TGb:__Z19ShouldTransferFieldR32SerializationCommandQueueBuilder17ScriptingClassPtriR18TransferField_InfoRK20CoreScriptingClasses
fhi:__ZL67RSACryptoServiceProvider_t2683512874_CustomAttributesCacheGeneratorP21CustomAttributesCache
Xrh:__Z56RuntimeInvoker_Int32_t2950945753_SpriteState_t1362986479PFvvEPK10MethodInfoPvPS4_
HPf:_SecurityElement_IsValidText_m1346599242
L3b:__Z33PPtrToObjectDontLoadNoThreadCheckI8MaterialEPT_4PPtrIS1_E
LIa:__ZN26SinglePassStereoSupportExt21SetStereoMatrixCommonE21MonoOrStereoscopicEye24BuiltinShaderMatrixParamRK10Matrix4x4f
gL:__ZN5audio5mixer22UpdateAudioMixerMemoryERKNS0_18AudioMixerConstantERNS0_16AudioMixerMemoryEfPN4FMOD6SystemEf
iWc:__ZL21InitializeCachedStripPv
UPg:_Dictionary_2_System_Collections_Generic_ICollectionU3CSystem_Collections_Generic_KeyValuePairU3CTKeyU2CTValueU3EU3E_Add_m3652125112_gshared
vji:__ZL80Thread_t2300836069_CustomAttributesCacheGenerator_Thread_GetHashCode_m3479107071P21CustomAttributesCache
wOj:__ZN6il2cpp6icalls8mscorlib6System9Threading6Thread23GetCachedCurrentCultureEP12Il2CppThread
QY:__ZNK6Camera22GetWorldToCameraMatrixEv
adk:runPostSets
aWj:__ZN6il2cpp2vm12GenericClass11IsValueTypeEP18Il2CppGenericClass
OFb:__ZN13MonoBehaviour7SetNameEPKc
COe:_MethodDictionary_IsOverridenKey_m946843558
YMc:__ZN25b2PolygonAndCircleContact7DestroyEP9b2ContactP16b2BlockAllocator
BRd:_FileStream_BeginRead_m2419864669
lcj:_U3CStartU3Ec__Iterator0_MoveNext_m4270440387_gshared
Ytj:__ZN10KeyWrapperIN6il2cpp5utils13dynamic_arrayIPK10Il2CppTypeLj4EEEEC2ERKS7_
JKb:__ZN17InstancingBatcher22FindCBUpperBoundKonstsEv
W8:__GLOBAL__sub_I_runtime_shaders_shaderimpl_0_cpp
Nib:__ZN18AwakeFromLoadQueue5ClearEv
ZRd:_FileStream_SetLength_m99749826
gWb:__ZNSt3__27__sort5IR15ReflProbeSorterPP15ReflectionProbeEEjT0_S6_S6_S6_S6_T_
tfa:__ZN8Playable10DisconnectEPS_i
Gk:_glGenTransformFeedbacks
$Ma:__ZN13LoadOperationD2Ev
uCi:__ZL86Canvas_t3310196443_CustomAttributesCacheGenerator_Canvas_set_sortingLayerID_m861680532P21CustomAttributesCache
lRh:_List_1_System_Collections_ICollection_get_SyncRoot_m1990178029_gshared
JKd:_Int16_System_IConvertible_ToType_m3672347013
xlf:_Navigation_set_mode_m3709908198_AdjustorThunk
pJg:_Type_GetProperty_m4206634422
G$d:_AttrListImpl_GetValue_m3657391095
EJb:__Z21PlayerStartFirstSceneb
K0h:_List_1_CheckIndex_m3933537097_gshared
T1a:__ZNSt3__27__sort5IRPFbRKNS_4pairIN9ShaderLab16FastPropertyNameEN18UnityPropertySheet11UnityTexEnvEEES8_EPS6_EEjT0_SD_SD_SD_SD_T_
$va:__ZNK7ApiGLES18GetExtensionStringEv
k0h:_List_1_System_Collections_IList_IndexOf_m2444653486_gshared
rch:__Z50RuntimeInvoker_SecurityCompressionType_t4242483129PFvvEPK10MethodInfoPvPS4_
ijk:_emscripten_glVertexAttrib1f__wrapper
_Sg:_DefaultComparer_GetHashCode_m402448534_gshared
Tmb:__ZNK12HandlerChain4SizeERK13FileEntryData
sp:FUNCTION_TABLE_iiiiiiiii
R7e:_Enumerator_Dispose_m1360775770_AdjustorThunk
S3h:_Collection_1_ClearItems_m1096166028_gshared
jFh:_ReadOnlyCollection_1_System_Collections_Generic_ICollectionU3CTU3E_Remove_m4177779688_gshared
KJc:__Z22GetPhysicsGroundBody2Dv
N6d:_Char_IsLetter_m3996985877
A1h:_Queue_1_Peek_m2302800625_gshared
_5h:__ZL51Delegate_t1188392813_CustomAttributesCacheGeneratorP21CustomAttributesCache
QJh:_Comparison_1_EndInvoke_m2438956051_gshared
eUh:_List_1_AddCollection_m4263017124_gshared
c1j:_GC_allochblk
ZLe:__ZN21InterfaceFuncInvoker1IbP19Context_t3285446944E6InvokeEjP11Il2CppClassP12Il2CppObjectS1_
Xib:__Z15UnloadGameScenev
Vfg:_Array_InternalArray__ICollection_CopyTo_TisKeyframe_t4206410242_m2132255743_gshared
Tnk:_glCheckFramebufferStatus__wrapper
UCd:_Image__ctor_m2551076292
lOg:_Dictionary_2_System_Collections_ICollection_CopyTo_m3143696177_gshared
zHj:__ZN15dense_hashtableINSt3__24pairIK10KeyWrapperIPK14Il2CppAssemblyEPK22Il2CppMonoAssemblyNameEES6_N6il2cpp5utils11PointerHashIS4_EEN14dense_hash_mapIS6_SA_SF_NS6_14EqualsComparerINS0_8equal_toIS5_EEEENS0_9allocatorISB_EEE9SelectKeyESK_SM_E5clearEv
p4g:__Z103RuntimeInvoker_Void_t1185182177_Int32_t2950945753_Int32_t2950945753_Int32_t2950945753_SByte_t1669577662PFvvEPK10MethodInfoPvPS4_
lE:__ZN16MecanimAnimationD0Ev
Vqc:__Z36Renderer_Get_Custom_PropSortingOrderP12Il2CppObject
ODj:__ZNK15dense_hashtableINSt3__24pairIK10KeyWrapperIPK10Il2CppTypeEjEES6_N6il2cpp8metadata14Il2CppTypeHashEN14dense_hash_mapIS6_jSB_NS6_14EqualsComparerINSA_26Il2CppTypeEqualityComparerEEENS0_9allocatorIS8_EEE9SelectKeyESF_SH_E13find_positionERS7_
r_a:__ZN7Texture5ResetEv
HNc:__ZNK14b2CapsuleShape7RayCastEP15b2RayCastOutputRK14b2RayCastInputRK11b2Transformi
uhi:__ZL54SHA384Managed_t74158575_CustomAttributesCacheGeneratorP21CustomAttributesCache
FLe:_Context_get_HasDynamicSinks_m3952434387
sCg:_Latin1Encoding_GetByteCount_m1145650505
Ivb:__Z18Transfer_BlittableI24GenerateTypeTreeTransferLb1EhEvRK29SerializationCommandArgumentsR31RuntimeSerializationCommandInfo
Gyc:__ZN8GUIState18CycleKeyboardFocusERNSt3__26vectorIP6IDListNS0_9allocatorIS3_EEEEb
CCb:__Z13TransferFieldI18StreamedBinaryReadILb1EELb0E16Converter_StringEvRK23StaticTransferFieldInfoR31RuntimeSerializationCommandInfoRT1_
OTg:_DefaultComparer_GetHashCode_m177499767_gshared
acb:__ZN10VertexData10DeallocateEv
oBj:__ZNSt3__214__split_bufferIiRNS_9allocatorIiEEEC2EjjS3_
Ijc:__ZNK16TypeTreeIterator10ByteOffsetEv
pek:dynCall_iiifii
pea:__ZnwjRKSt9nothrow_t
jD:__ZN8Animator11ClearObjectEv
WKh:_Nullable_1_GetHashCode_m4232053575_gshared
A0d:_ApplicationException__ctor_m2557611022
M0a:__ZN14SafeBinaryRead19TransferSTLStyleMapINSt3__23mapI39DeprecatedFastPropertyNameSerializationN18UnityPropertySheet11UnityTexEnvENS1_4lessIS3_EENS1_9allocatorINS1_4pairIKS3_S5_EEEEEEEEvRT_17TransferMetaFlags
RZh:_List_1_CheckMatch_m579516778_gshared
wSc:__ZNSt3__27__sort4IRPFbPN10ClipperLib13IntersectNodeES3_EPS3_EEjT0_S8_S8_S8_T_
L4d:_Buffer_ByteLengthInternal_m1388208719
AEi:__ZL92PointerEventData_t3807901092_CustomAttributesCacheGenerator_U3CworldNormalU3Ek__BackingFieldP21CustomAttributesCache
ufg:_Array_InternalArray__ICollection_CopyTo_TisInt64_t3736567304_m2845057751_gshared
Djc:__Z35UnregisterSerializationCacheBuilderPFv17ScriptingClassPtrR23CachedSerializationDataRbE
o5h:__ZL52ICloneable_t724424198_CustomAttributesCacheGeneratorP21CustomAttributesCache
$Nd:_Int64_System_IConvertible_ToUInt32_m109903525_AdjustorThunk
I4:__Z30GetBuiltinVectorParamArraySize24BuiltinShaderVectorParam
$fg:_Array_InternalArray__ICollection_CopyTo_TisUICharInfo_t75501106_m4268526610_gshared
UCj:__ZNSt3__218uninitialized_copyIPNS_4pairIK10KeyWrapperINS1_IPK14Il2CppAssemblyP11Il2CppClassEEEjEESC_EET0_T_SE_SD_
k_a:__ZN13RenderTextureC2E10MemLabelId18ObjectCreationMode
Saj:_Impossible_Start_m2015578610
ZKd:_Int32_GetFormatException_m519586683
Dii:__ZL46StringBuilder_t_CustomAttributesCacheGeneratorP21CustomAttributesCache
r_g:_Enumerator_MoveNext_m1131351993_gshared
Mhe:_RankException__ctor_m2226473861
iTi:_Array_InternalArray__get_Item_TisVector2_t2156229523_m2502961026_gshared
g7:__ZN21RendererUpdateManager11AddRendererER8Renderer
t7b:__Z13RegisterClassI15ResourceManagerEvv
uej:_AudioConfigurationChangeHandler_Invoke_m1233557945
zqb:__Z35Transfer_Blittable_FixedBufferFieldI14SafeBinaryReadsEvRK29SerializationCommandArgumentsR31RuntimeSerializationCommandInfo
fbb:__ZN14SafeBinaryRead21TransferSTLStyleArrayI13dynamic_arrayIfLj4EEEEvRT_17TransferMetaFlags
yee:_Convert_ToDateTime_m3802186295
t_j:__ZN6il2cpp5utils11StringUtils11Utf16ToUtf8EPKDs
whb:__ZN18StreamedBinaryReadILb0EE21TransferSTLStyleArrayINSt3__26vectorIN15ResourceManager10DependencyE13stl_allocatorIS5_L18MemLabelIdentifier52ELi16EEEEEEvRT_17TransferMetaFlags
tMg:_UInt64_CompareTo_m1614517204_AdjustorThunk
_id:__ZN11UnityEngine15PlatformWrapper20IsRootedOrJailbrokenEv
nNb:__ZZ23InitPlayerLoopCallbacksvEN52PreLateUpdateScriptRunBehaviourLateUpdateRegistrator7ForwardEv
AXb:__Z33IntersectAABBPlaneBoundsOptimizedRK4AABBPKN4math7_float4Ei
G_b:__ZN19ScriptingInvocation6InvokeI28ScriptingSystemTypeObjectPtrEET_P21ScriptingExceptionPtrb
Zqa:__ZN9GfxDevice19EndGeometryJobFrameEv
$3i:_GUILayoutUtility_Layout_m1159951704
$ef:_InputField_get_shouldActivateOnSelect_m3055465770
xTg:_DefaultComparer_Equals_m2269092119_gshared
Cvb:__ZN27Converter_SimpleNativeClassI17AnimationCurveTplIfEE17ScriptingToNativeER18ScriptingObjectPtrPS1_
vIg:_Type__cctor_m2371893800
Q6j:__ZN6il2cpp8metadata24Il2CppGenericInstCompare7CompareERK10KeyWrapperIPK17Il2CppGenericInstES8_
zsj:__ZNK15dense_hashtableINSt3__24pairIK10KeyWrapperIPK19Il2CppGenericMethodEPK26Il2CppGenericMethodIndicesEES6_N6il2cpp8metadata23Il2CppGenericMethodHashEN14dense_hash_mapIS6_SA_SE_NS6_14EqualsComparerINSD_26Il2CppGenericMethodCompareEEENS0_9allocatorISB_EEE9SelectKeyESI_SK_E5beginEv
Qqd:_ExecuteEvents_Execute_m3049310229
Ut:__ZN27AnimationLayerMixerPlayable21UpdateLayerParametersEv
hui:__ZL84Object_t631007953_CustomAttributesCacheGenerator_Object_DestroyImmediate_m2288369078P21CustomAttributesCache
Rne:__ZN21InterfaceFuncInvoker1IiP12MemberInfo_tE6InvokeEjP11Il2CppClassP12Il2CppObjectS1_
w1d:_Array_get_IsSynchronized_m3066873806
ykc:__Z33Camera_Set_Custom_PropFieldOfViewP12Il2CppObjectf
k3b:__ZNK17AnimationCurveTplIfE8EvaluateEfPNS0_5CacheE
rMb:__Z31ManagerContextInitializeClassesv
sFh:_ReadOnlyCollection_1_System_Collections_IList_Contains_m2650112051_gshared
y7f:_Array_get_swapper_TisVector3_t3722313464_m1221246401_gshared
aFh:_ReadOnlyCollection_1_CopyTo_m1950082901_gshared
a2c:_ft_smooth_transform
w2c:_UNITY_FT_List_Finalize
x6j:__ZN6il2cpp6icalls8mscorlib6System7Runtime8Remoting10Activation18ActivationServices34AllocateUninitializedClassInstanceEP20Il2CppReflectionType
gY:__ZThn32_N12LineRendererD1Ev
tRb:__Z20LightAttenuateApproxRKfS0_
n8:__ZN9Scripting30SetCachedPtrOnScriptingWrapperE18ScriptingObjectPtrP6Object
Wqg:_Mesh_GetIndices_m2873123901
Vbe:_HashKeys_get_IsSynchronized_m174400341
mX:__ZN17LowLevelAllocator6MallocEj
hnh:__Z57RuntimeInvoker_Int32_t2950945753_KeyValuePair_2_t71524366PFvvEPK10MethodInfoPvPS4_
zOh:_UnityEvent_1__ctor_m1789019280_gshared
tJf:_RepeatContext_get_IsMinimum_m3640286252
zLc:__ZN16b2PrismaticJoint4DumpEv
D1g:__Z64RuntimeInvoker_Boolean_t97287965_RuntimeObject_Int32_t2950945753PFvvEPK10MethodInfoPvPS4_
iYe:_InternalEnumerator_1__ctor_m4055378331_AdjustorThunk
XSe:_ObjectRecord_ChainFixup_m1889316362
NVa:__ZN18BlockRangeInternal16PopLastNodeIndexEP10BlockRangeji
O$j:__ZN6il2cpp2vm13CachedCCWBaseINS0_13ManagedObjectEE6AddRefEv
YEj:__ZN6il2cpp2gc19AppendOnlyGCHashMapINSt3__24pairIPK11Il2CppImageP11Il2CppClassEEP22Il2CppReflectionModule17ReflectionMapHashIS9_ENS2_8equal_toIS9_EEE10CopyValuesEPv
dud:_TouchInputModule_UpdateModule_m2582897964
Bab:__ZN4MeshD0Ev
sod:__ZL42RequestRecreateEyeTexturesBeforeNextUpdatev
FFa:__ZNK6Camera20IsCurrentlyRenderingEv
Hv:__ZN21AnimationClipPlayable23ProcessRootMotionNoClipEPK35AnimationPlayableEvaluationConstantPK32AnimationPlayableEvaluationInputP33AnimationPlayableEvaluationOutput
aed:__Z36CanvasRenderer_CUSTOM_SetPopMaterialP12Il2CppObjectS0_i
Iij:__ZL25UnresolvedVirtualCall_218P12Il2CppObject39CustomAttributeNamedArgument_t287865710PK10MethodInfo
ADc:__Z18Transfer_BlittableI9JSONWriteLb0EdEvRK29SerializationCommandArgumentsR31RuntimeSerializationCommandInfo
Y_c:_otv_u_O_O_u_O_O
WKc:__ZNK11b2GearJoint16GetReactionForceEf
sZf:_DBNull_System_IConvertible_ToSByte_m3533624679
e9j:_wctomb
D6d:_Char_CompareTo_m42489266
kwc:_jpeg_CreateDecompress
Loh:__Z67RuntimeInvoker_Void_t1185182177_Int32_t2950945753_Double_t594665363PFvvEPK10MethodInfoPvPS4_
Tkc:__Z27Camera_CUSTOM_GetAllCamerasP11Il2CppArray
PFb:__ZNK13MonoBehaviour25GetNeedsPerObjectTypeTreeEv
LCb:__Z35Transfer_Blittable_FixedBufferFieldI18StreamedBinaryReadILb0EEiEvRK29SerializationCommandArgumentsR31RuntimeSerializationCommandInfo
ed:___cxa_rethrow
Rte:_ParameterInfo_GetCustomAttributes_m2376494592
dFc:__Z18Transfer_BlittableI8JSONReadLb1EhEvRK29SerializationCommandArgumentsR31RuntimeSerializationCommandInfo
eBd:_Graphic_get_canvasRenderer_m315509948
rvh:_Collection_1_System_Collections_IList_Contains_m3397768605_gshared
Alf:_Navigation_set_selectOnUp_m827629728_AdjustorThunk
Sfh:__Z90RuntimeInvoker_Void_t1185182177_Int64_t3736567304_Int32_t2950945753_RuntimeObject_IntPtr_tPFvvEPK10MethodInfoPvPS4_
HPc:__ZN18Overlap2DQueryBase13ReportFixtureEP9b2Fixture
nRi:_Dictionary_2_Do_CopyTo_TisInt32_t2950945753_TisInt32_t2950945753_m3384108308_gshared
whc:__ZN10systeminfo23SupportsLocationServiceEv
k5f:_CultureInfo_construct_internal_locale_from_name_m3254739477
NGe:_RSASslSignatureDeformatter_VerifySignature_m1061897602
u_b:__ZN13MonoBehaviour8SetClassE17ScriptingClassPtr18ScriptingObjectPtr
kJd:_RandomNumberGenerator_Create_m4162970280
Ggg:_Array_InternalArray__Insert_TisLabelFixup_t858502054_m171542753_gshared
W2e:_InternalEnumerator_1_System_Collections_IEnumerator_get_Current_m3539708496_AdjustorThunk
Hnb:__ZN20LocalFileSystemPosix4ReadER13FileEntryDatayyPvPy
RUb:__ZNSt3__211__sift_downIRN23ForwardShaderRenderLoop18RenderObjectSorterILb0EEEP21ForwardRenderPassDataEEvT0_S7_T_NS_15iterator_traitsIS7_E15difference_typeES7_
sOf:_SecurityPermission__ctor_m1462427327
Ifk:dynCall_iiiiiiffiiiiiiiiiffffiiii
cGb:__ZN13MonoBehaviour5DoGUIENS_13GUILayoutTypeEii
tJe:_ChannelData_get_ClientProviders_m594662942
F_i:_QuickSearch_GetChar_m1297698557
RLa:__ZNK12TLSAllocatorI14StackAllocatorE8ContainsEPKv
Web:__ZN11TimeManager8TransferI18StreamedBinaryReadILb0EEEEvRT_
H0g:__Z68RuntimeInvoker_Boolean_t97287965_Int16_t2552820387_SByte_t1669577662PFvvEPK10MethodInfoPvPS4_
RXf:_DateTime__ParseEnum_m253019513
Dge:_Convert_ToUInt32_m2194577773
Oab:__ZN14BlendShapeData8TransferI14SafeBinaryReadEEvRT_
x7:__ZN15dense_hashtableINSt3__24pairIKyP17VertexDeclarationEEy14GfxGenericHashIyEN14GfxDoubleCacheIyS4_S7_NS0_8equal_toIyEEN31GfxDoubleCacheConcurrencyPolicy11LocklessGetE42GfxDoubleCacheDefaultEmptyDeletedGeneratorIyEE9SelectKeyESA_13stl_allocatorIS5_L18MemLabelIdentifier24ELi16EEE12resize_deltaEjj
Ebe:_Hashtable_Remove_m4032631466
Xwf:_DSAManaged_GenerateKeyPair_m2236915969
aoi:__ZL91RSASslSignatureFormatter_t2709678514_CustomAttributesCacheGenerator_U3CU3Ef__switchU24map16P21CustomAttributesCache
V2a:__ZN7Texture25ReloadFromStorageIfNeededEPvb
Gcg:_Array_InternalArray__IndexOf_TisBoolean_t97287965_m1161209222_gshared
H5j:__ZN6il2cpp2os12Cryptography24OpenCryptographyProviderEv
_Bi:__ZL55RaycastHit2D_t2279581989_CustomAttributesCacheGeneratorP21CustomAttributesCache
j9d:_SynchronizedArrayListWrapper_Clear_m2191301493
y3c:_Update_Max
_Kh:_Predicate_1__ctor_m2943702050_gshared
Wpi:__ZL90Application_t1852185770_CustomAttributesCacheGenerator_Application_get_isEditor_m857789090P21CustomAttributesCache
KNj:__ZN6il2cpp6icalls8mscorlib6SystemL15ThrowNoWideningEv
H3b:__ZNK23TransformChangeDispatch24GetChangeMaskForInterestENS_12InterestTypeE
Edc:__ZN8Playable5PauseEv
Zpc:__Z45Transform_CUSTOM_INTERNAL_CALL_TransformPointP12Il2CppObjectRK8Vector3fRS1_
kne:_GenericTypeParameterBuilder_InvokeMember_m1647304778
RCd:_HorizontalOrVerticalLayoutGroup_set_childControlWidth_m3261460516
nlf:_MaskableGraphic_UnityEngine_UI_IClippable_get_gameObject_m1739855597
b1a:__ZNSt3__26__treeINS_12__value_typeI39DeprecatedFastPropertyNameSerializationfEENS_19__map_value_compareIS2_S3_NS_4lessIS2_EELb1EEENS_9allocatorIS3_EEE7destroyEPNS_11__tree_nodeIS3_PvEE
s1c:_tt_cmap4_char_index
Mud:_AspectRatioFitter_GetParentSize_m3159144324
CQf:_SecurityFrame_get_Assembly_m2874566710
uVe:_InternalEnumerator_1__ctor_m2336656763_AdjustorThunk
$0h:_Enumerator_System_Collections_IEnumerator_Reset_m1487823313_gshared
bnb:__ZNK12HandlerChain8IsHiddenERK13FileEntryData
_Th:_List_1_System_Collections_IList_get_IsFixedSize_m1752888098_gshared
Sub:__ZL26Transfer_SimpleNativeClassI17RemapPPtrTransfer10RectOffsetLb0EEvRK29SerializationCommandArgumentsR31RuntimeSerializationCommandInfo
s8c:__Z14ValidateFormatR13dynamic_arrayIN20TextRenderingPrivate16TextFormatChangeELj4EE
qpf:_ScrollRect_CalculateLayoutInputVertical_m3155297482
yNd:_Int32_ToString_m2507389746_AdjustorThunk
B$f:_Decimal_op_Explicit_m438967917
ufi:__ZL55IChannelInfo_t3866172133_CustomAttributesCacheGeneratorP21CustomAttributesCache
kmj:_AnimatorControllerPlayable_SetHandle_m2260644454_AdjustorThunk
O2f:_Environment_get_SocketSecurityEnabled_m190813817
pfh:__Z53RuntimeInvoker_Void_t1185182177_Vector4U26_t200349727PFvvEPK10MethodInfoPvPS4_
Owi:__ZL57UnityEventBase_t3960448221_CustomAttributesCacheGeneratorP21CustomAttributesCache
hTd:_NullStream_Flush_m3382897993
Eka:__ZNSt3__26vectorIN9ShaderLab20SerializedSubProgram13BufferBindingENS_9allocatorIS3_EEEC2ERKS6_
Mff:_InputField_set_selectionColor_m2084640295
lRi:_Dictionary_2_Do_CopyTo_TisKeyValuePair_2_t2401056908_TisKeyValuePair_2_t2401056908_m676905794_gshared
pwc:__ZL17fill_input_bufferP22jpeg_decompress_struct
E4:__ZNK9ShaderLab20ShaderBlendStateDesc15ToGfxBlendStateEPK19ShaderPropertySheetS3_R13GfxBlendState
P8e:_Enumerator_System_Collections_IEnumerator_get_Current_m1747693366_AdjustorThunk
nwc:_jpeg_consume_input
hKe:_ConfigHandler_OnIgnorableWhitespace_m278399491
Iki:__ZL77Convert_t2465617642_CustomAttributesCacheGenerator_Convert_ToInt64_m260173354P21CustomAttributesCache
Fz:__ZN11UnityEngine9AnimationL22GenericBindingCallbackEPvS1_i
d3c:_Compute_Point_Displacement
dpa:__ZN9ShaderLab9IntShaderC2Ev
zKh:_Func_3__ctor_m1375075958_gshared
kzj:__ZN6il2cpp6icalls8mscorlib6SystemL9IsPrivateEPK9EventInfo
y5j:__ZN6il2cpp6icalls8mscorlib6System10Reflection4Emit11TypeBuilder20setup_internal_classEP27Il2CppReflectionTypeBuilderS7_
ggc:__Z18TransformPoints3x4RK10Matrix4x4fPK8Vector3fjPS2_ji
Kni:__ZL72PKCS12_t4101533061_CustomAttributesCacheGenerator_U3CU3Ef__switchU24mapCP21CustomAttributesCache
ddg:_Array_InternalArray__IndexOf_TisILTokenInfo_t2325775114_m2602704009_gshared
Xsi:__ZL52Matrix4x4_t1817901843_CustomAttributesCacheGeneratorP21CustomAttributesCache
bQg:_Dictionary_2_System_Collections_IDictionary_GetEnumerator_m972834308_gshared
IXh:_List_1_System_Collections_ICollection_get_IsSynchronized_m967177678_gshared
hDg:_StringBuilder_AppendFormat_m3255666490
Bhe:_OverflowException__ctor_m4029085969
$pe:_TypeBuilder_GetGenericArguments_m2872156836
vOe:_MethodCall_get_Uri_m1720935531
Noj:__ZN13Il2CppHashMapIPK22Il2CppGenericParameterP11Il2CppClassN6il2cpp5utils11PointerHashIS1_EENSt3__28equal_toIS2_EENS9_9allocatorINS9_4pairIK10KeyWrapperIS2_ES4_EEEEEC2EjRKS8_RKSB_
vGc:__ZN8JSONRead21TransferSTLStyleArrayI31ArrayOfManagedObjectsTransfererEEvRT_17TransferMetaFlags
ANa:__Z15CreateDirectoryRKN4core12basic_stringIcNS_20StringStorageDefaultIcEEEE
zZa:__Z21CalculateGlobalMatrix23TransformAccessReadOnly
aqe:_TypeBuilder_GetGenericTypeDefinition_m1632720438
N7f:_Array_InternalArray__ICollection_Contains_TisLink_t544317964_m163190451_gshared
IYf:_DateTimeOffset_System_IComparable_CompareTo_m176229495_AdjustorThunk
mpg:_ManagedStreamHelpers_ValidateLoadFromStream_m580138133
EAi:__ZL104GUIUtility_t1868551600_CustomAttributesCacheGenerator_GUIUtility_EndContainerGUIFromException_m530164245P21CustomAttributesCache
$eb:__ZNK13BuildSettings22GetTypeVirtualInternalEv
tAd:_FontData_get_alignByGeometry_m2805576119
A:tempBigIntD
dZe:_InternalEnumerator_1__ctor_m1486034688_gshared
Wzb:__Z35Transfer_Blittable_FixedBufferFieldI18StreamedBinaryReadILb1EEhEvRK29SerializationCommandArgumentsR31RuntimeSerializationCommandInfo
Pji:__ZL56AppDomainSetup_t123196401_CustomAttributesCacheGeneratorP21CustomAttributesCache
S_h:_List_1_CheckIndex_m2250397830_gshared
r7b:__Z13RegisterClassI14RenderSettingsEvv
Hsg:_PlayableOutput_GetHandle_m777137769_AdjustorThunk
tjj:_FontTextureRebuildCallback_EndInvoke_m3732346867
z:tempBigIntI
SJf:_Interval_get_Empty_m3617514670
Oqh:__Z31RuntimeInvoker_Mark_t3471605523PFvvEPK10MethodInfoPvPS4_
hie:_Assembly_GetName_m981771927
cpi:__ZL53RegexOptions_t92845595_CustomAttributesCacheGeneratorP21CustomAttributesCache
Wx:__ZN7mecanim12statemachine24CreateStateMachineOutputEPKNS0_20StateMachineConstantEjRNS_6memory9AllocatorE
_Vj:__ZN6il2cpp2vm12GenericClass8GetClassEP18Il2CppGenericClass
yra:__ZNK9GfxDevice27GetActiveRenderSurfaceWidthEv
CFi:__ZL114StandaloneInputModule_t2760469101_CustomAttributesCacheGenerator_StandaloneInputModule_ForceAutoSelect_m2837047882P21CustomAttributesCache
Lid:__ZN11UnityEngine15PlatformWrapper28GetCleanGraphicsFixedVersionEv
llf:_MaskableGraphic_RecalculateClipping_m1772937317
afc:__ZN4core8hash_mapI12TriangleEdgei16TriangleEdgeHashNSt3__28equal_toIS1_EEEixERKS1_
RVd:_UnmanagedMemoryStream_SetLength_m3752964620
yob:__ZN16MemoryFileSystem5WriteER13FileEntryDatayyPvPy
HHe:_SslStreamBase_RaiseLocalPrivateKeySelection_m4112368540
WBj:__ZN6il2cpp2vm4Type7GetTypeEPK10Il2CppType
IJc:__ZN23ColliderTilingExtensionD0Ev
c5b:__ZN16SpriteRenderData28PrepareRenderingDataIfNeededEv
D7c:_open_face_PS_from_sfnt_stream
GZe:_InternalEnumerator_1_get_Current_m165106323_AdjustorThunk
TDg:_UTF32Encoding_GetByteCount_m3610769032
rBa:__ZN6prcoreL17RemapGenericFloatI18TexFormatRGBAFloat17TexFormatRGBAHalfEEvPKNS_9InnerInfoE
aeb:__Z32TransferEnumWithNameForceIntSizeI14SafeBinaryRead14SpriteTileModeEvRT_RT0_PKc17TransferMetaFlags
RNb:__Z16FindCameraStacksRKNSt3__24listI4PPtrI6CameraENS_9allocatorIS3_EEEERNS_6vectorI11CameraStackNS4_ISA_EEEE
xZi:_MatchCollection_CopyTo_m3807326147
s5a:__ZN10GISettings8TransferI14SafeBinaryReadEEvRT_
Jn:FUNCTION_TABLE_vifff
LJi:__ZL54Text_t1901882714_CustomAttributesCacheGenerator_m_TextP21CustomAttributesCache
$Id:_MD5CryptoServiceProvider__ctor_m3271163125
m$b:__ZN19CustomRenderTexture12ClearGPUDataEv
Icj:_ListPool_1_Get_m2875520964_gshared
_ii:__ZL95UnicodeEncoding_t1959134050_CustomAttributesCacheGenerator_UnicodeEncoding_GetBytes_m3223155660P21CustomAttributesCache
A_a:__ZN13RenderTexture13ApplySettingsEv
YRe:_ObjectReader_RegisterObject_m1853376334
Noe:_ModuleBuilderTokenGenerator_GetToken_m2588853565
W3d:_Boolean_System_IConvertible_ToDecimal_m3176932461_AdjustorThunk
cf:_JS_Sound_SetListenerPosition
Bn:FUNCTION_TABLE_fiffi
Reh:__Z54RuntimeInvoker_Int32_t2950945753_LayerMask_t3493934918PFvvEPK10MethodInfoPvPS4_
Yof:_ScrollRect_OnInitializePotentialDrag_m3139711961
mFh:_ReadOnlyCollection_1_System_Collections_Generic_IListU3CTU3E_set_Item_m711370667_gshared
FSj:__ZNK15dense_hashtableINSt3__24pairIK10KeyWrapperINS1_IPKcS4_EEEiEES6_24NamespaceAndNamePairHashN14dense_hash_mapIS6_iS9_NS6_14EqualsComparerI26NamespaceAndNamePairEqualsEENS0_9allocatorIS8_EEE9SelectKeyESD_SF_E10test_emptyERK24dense_hashtable_iteratorIS8_S6_S9_SH_SD_SF_E
hje:_Default_check_arguments_with_score_m3467814020
Wkk:_glGetActiveUniform__wrapper
qUd:_StreamWriter_LowLevelWrite_m1081676583
yPh:_Enumerator__ctor_m3875432026_AdjustorThunk
Pea:__ZZN15DirectorManager15InitializeClassEvEN45FixedUpdateDirectorFixedSampleTimeRegistrator7ForwardEv
Tkb:__ZNK8Material16MarkDependenciesER27GarbageCollectorThreadState
vqf:_Slider_set_handleRect_m1101657556
WYf:_DateTimeOffset_ToString_m3985341516_AdjustorThunk
Mzh:_Collection_1_System_Collections_IList_Contains_m3348135931_gshared
DDc:__ZL17Transfer_GUIStyleI9JSONWriteLb0EEvRK29SerializationCommandArgumentsR31RuntimeSerializationCommandInfo
Wij:__ZL25UnresolvedVirtualCall_232P12Il2CppObjecti22UILineInfo_t4195266810PK10MethodInfo
lSb:__Z28GetHaloVertexPositionsStereoP8Vector3fRKS_S2_f
gCa:__ZN6prcoreL27StretchGenericFloatBilinearI15TexFormatRGHalfEEvPKNS_9InnerInfoE
djj:__ZL25UnresolvedVirtualCall_241P12Il2CppObjectiPK10MethodInfo
S8:__GLOBAL__sub_I_runtime_misc_0_cpp
oOg:_Dictionary_2_System_Collections_IDictionary_GetEnumerator_m751864982_gshared
s6f:_SortKey_GetHashCode_m3547067087
hDb:__Z18Transfer_BlittableI18StreamedBinaryReadILb0EELb1E9BoundsIntEvRK29SerializationCommandArgumentsR31RuntimeSerializationCommandInfo
HJi:__ZL71SpriteState_t1362986479_CustomAttributesCacheGenerator_m_DisabledSpriteP21CustomAttributesCache
NEf:_PublicKey_DecodeDSA_m3490622362
qoc:__Z49Register_UnityEngine_Resources_GetBuiltinResourcev
lJg:_Type_GetMethod_m1479779718
f1c:_tt_cmap10_char_index
HUi:_TlsException__ctor_m3242533711
Aye:_BitConverterLE_GetUIntBytes_m795219058
l6:__Z18GetITerrainManagerv
Cce:_SortedList__ctor_m3676552745
ppj:__ZN15dense_hashtableINSt3__24pairIK10KeyWrapperIPK22Il2CppGenericParameterEP11Il2CppClassEES6_N6il2cpp5utils11PointerHashIS4_EEN14dense_hash_mapIS6_S9_SE_NS6_14EqualsComparerINS0_8equal_toIS5_EEEENS0_9allocatorISA_EEE9SelectKeyESJ_SL_E3endEv
Arj:__ZNK15dense_hashtableINSt3__24pairIK10KeyWrapperIPK11Il2CppClassEPKcEES6_N6il2cpp5utils11PointerHashIS3_EEN14dense_hash_mapIS6_S9_SE_NS6_14EqualsComparerINS0_8equal_toIS5_EEEENS0_9allocatorISA_EEE9SelectKeyESJ_SL_E8min_sizeEjj
kQ:__ZN11AudioSource24ClearExtensionPropertiesE12PropertyName
ycf:_Transform_1_EndInvoke_m332304766_gshared
Kma:__ZN9ShaderLab22SerializedBindChannels8TransferI19StreamedBinaryWriteILb0EEEEvRT_
c3g:__Z52RuntimeInvoker_Decimal_t2948259380_Int32_t2950945753PFvvEPK10MethodInfoPvPS4_
ctb:__ZN15SerializeTraitsI5RectTIiEE8TransferI14SafeBinaryReadEEvRS1_RT_
izc:__ZN5IMGUI20MoveWindowFromLayoutER8GUIStateiRK5RectTIfE
Z9g:__Z50RuntimeInvoker_SByte_t1669577662_Int64_t3736567304PFvvEPK10MethodInfoPvPS4_
w_:__ZNK10MonoScript22GetScriptFullClassNameEv
LZc:_UNITY_FT_Stream_ReadUShort
_wh:_Collection_1_System_Collections_IList_get_Item_m1677338752_gshared
Wmc:__Z51Register_UnityEngine_GUILayer_INTERNAL_CALL_HitTestv
Pia:__ZNSt3__26__treeINS_12__value_typeIN4core12basic_stringIcNS2_20StringStorageDefaultIcEEEES6_EENS_19__map_value_compareIS6_S7_NS_4lessIS6_EELb1EEE13stl_allocatorIS7_L18MemLabelIdentifier1ELi16EEE7destroyEPNS_11__tree_nodeIS7_PvEE
jle:_DerivedType_IsAssignableFrom_m1623073368
mGg:_Thread_get_ManagedThreadId_m1068113671
gxa:__Z13IsDepthFormat14GraphicsFormat
mgb:__ZN12AspectRatios8TransferI24GenerateTypeTreeTransferEEvRT_
LXd:_MonoType_GetFields_m4176012508
Veh:__Z73RuntimeInvoker_Single_t1397266774_Vector3_t3722313464_Vector3_t3722313464PFvvEPK10MethodInfoPvPS4_
IVc:__Z12FormatBufferPciPKcz
xVf:_CurrentSystemTimeZone_GetTimeZoneData_m2641861607
V5c:__ZN15SerializeTraitsI13dynamic_arrayI4PPtrIN13TextRendering4FontEELj4EEE19ResizeSTLStyleArrayERS5_i
GX:__ZN12LineRenderer5ResetEv
Kai:__ZL57FileSystemInfo_t3745885336_CustomAttributesCacheGeneratorP21CustomAttributesCache
Cpj:__ZN6il2cpp2vm5Class13GetArrayClassEP11Il2CppClassj
xtd:_StandaloneInputModule_set_inputActionsPerSecond_m4057208843
QJb:__ZN19RuntimeSceneManager18LoadSceneAsyncIntoER10UnitySceneRKN4core12basic_stringIcNS2_20StringStorageDefaultIcEEEENS_11LoadingModeEb
lVd:_TextWriter_Write_m164803641
YCc:__Z35Transfer_Blittable_FixedBufferFieldI9JSONWritetEvRK29SerializationCommandArgumentsR31RuntimeSerializationCommandInfo
pzc:__ZN11IMGUIModule12AddGUIScriptER8ListNodeI13MonoBehaviourE
ub:invoke_difi
Y3i:_GUILayoutUtility_BeginWindow_m2240221150
Pjk:_glDeleteSamplers__wrapper
Tda:__ZL50StaticRegisterSceneLoadedCallback_LightmapSettingsPv
gAf:_HybridDictionary_set_Item_m2997363718
ySb:__ZN29MotionVectorRenderLoopScratch15ThreadedCleanupEv
XMa:__ZNSt3__26__treeIiNS_4lessIiEE13stl_allocatorIiL18MemLabelIdentifier1ELi16EEE7destroyEPNS_11__tree_nodeIiPvEE
s3e:_InternalEnumerator_1_get_Current_m1477715453_AdjustorThunk
uka:__ZN15SerializeTraitsI13dynamic_arrayItLj2EEE19ResizeSTLStyleArrayERS1_i
lMg:_UInt64_System_IConvertible_ToUInt32_m2784653358
Nwa:__ZN21GLESGpuProgramApplier11ApplyVectorERKN20GpuProgramParameters14ValueParameterEPK8Vector4ft
WWb:__Z17PrepareSceneNodesP11CullResults
dCa:__ZN6prcoreL27StretchGenericFloatBilinearI18TexFormatRGBAFloatEEvPKNS_9InnerInfoE
mbj:_Quitscript_OnMouseDown_m3660950891
kRj:__ZN15dense_hashtableINSt3__24pairIK10KeyWrapperIP14Il2CppIUnknownEjEES5_N6il2cpp5utils11PointerHashIS3_EEN14dense_hash_mapIS5_jSB_NS5_14EqualsComparerINS0_8equal_toIS4_EEEENS0_9allocatorIS7_EEE9SelectKeyESG_SI_E12expand_arrayEjN21dense_hash_map_traits17integral_constantIbLb0EEE
tFd:_SByte_System_IConvertible_ToDecimal_m2548745278
LWc:_cff_size_done
vXb:__ZN29ExtractProjectionPlanesHelperILb1EE5ApplyERK10Matrix4x4fP5Plane
lcc:__ZN13ProduceHelperI7CubemapLb0EE7ProduceE10MemLabelId18ObjectCreationMode
E$b:__ZN6Camera34UpdatePreviousViewProjectionMatrixEv
Ena:__ZN9ShaderLab11ShaderState25RemoveUnsupportedProgramsEPK6Shader
q9c:__Z28Font_Get_Custom_PropMaterialP12Il2CppObject
Jpg:_Mathf_Abs_m3281243566
TUd:_SynchronizedWriter_WriteLine_m1552352268
vve:_DefaultDependencyAttribute__ctor_m502524668
$ch:__Z44RuntimeInvoker_X509KeyUsageFlags_t1431795504PFvvEPK10MethodInfoPvPS4_
rhc:__Z26scripting_class_has_parent17ScriptingClassPtrS_
Rca:__ZN13RuntimeStaticI21AssetReferenceStorageLb0EE16StaticInitializeEPv
xkd:__ZNSt3__26__treeINS_12__value_typeIN4core12basic_stringIcNS2_20StringStorageDefaultIcEEEEN11UnityEngine7Connect19RemoteSettingsValueEEENS_19__map_value_compareIS6_SA_NS_4lessIS6_EELb1EEE13stl_allocatorISA_L18MemLabelIdentifier6ELi16EEE16__construct_nodeERKNS_4pairIKS6_S9_EE
EMd:_Int32_System_IConvertible_ToByte_m3832391412_AdjustorThunk
SQ:__Z71Register_UnityEngine_AudioSource_INTERNAL_CALL_ClearExtensionPropertiesv
J6h:__ZL81RuntimeArray_CustomAttributesCacheGenerator_Array_GetValue_m116098292____indices0P21CustomAttributesCache
VC:__ZNK8Animator20IsInMatchTargetStateEv
s$e:_InternalEnumerator_1_System_Collections_IEnumerator_get_Current_m4088805473_gshared
Om:FUNCTION_TABLE_viiifiii
Wzc:__Z36Register_UnityEngine_GUI_set_changedv
OLe:_Context_GetServerContextSinkChain_m3154465897
yve:_FixedBufferAttribute_get_Length_m1478886548
wmf:_GetRayIntersectionAllCallback_EndInvoke_m1583561415
Q4i:_GUIStyle_get_fixedHeight_m2868324709
Gfe:_Convert_ToInt64_m2075293963
Z5j:__GLOBAL__sub_I_Il2CppCodeRegistration_cpp
rx:__ZN27AnimationLayerMixerPlayable18SetInputConnectionEP8Playablei
ax:__ZN7mecanim28TransformValueArrayBlendNodeEiiiRKNS_10ValueArrayERKNS_14ValueArrayMaskERS0_RS3_RNS_16ValueArrayWeightEf
Ybg:__ZN21InterfaceFuncInvoker2Ii20UICharInfo_t75501106S0_E6InvokeEjP11Il2CppClassP12Il2CppObjectS0_S0_
GQh:_List_1_GetIndex_m3112872964_gshared
VNh:_UnityAction_2_BeginInvoke_m1322091188_gshared
gzd:_Dropdown_set_value_m1048320169
Gnj:_CustomEventData_Finalize_m1724721833
CWa:__ZN20TierGraphicsSettings8TransferI18StreamedBinaryReadILb0EEEEvRT_
FMf:_SHA384Managed_adjustByteCounts_m2921970088
bNd:_Int32_System_IConvertible_ToUInt64_m2502338186_AdjustorThunk
yga:__Z33CleanupCubemapGPUUtilityMaterialsPv
T0a:__ZN14SafeBinaryRead8TransferINSt3__24pairIN9ShaderLab16FastPropertyNameE10ColorRGBAfEEEEvRT_PKc17TransferMetaFlags
Gmj:__ZL9rshift128PyS_
Pvc:_jsimd_h2v1_upsample
Q_d:__ZN23InterfaceActionInvoker1IP25SmallXmlParser_t973787839E6InvokeEjP11Il2CppClassP12Il2CppObjectS1_
K$g:_Enumerator_VerifyState_m169680537_AdjustorThunk
RIj:__ZN14dense_hash_mapI10KeyWrapperINSt3__24pairIPK12PropertyInfoP11Il2CppClassEEEj17ReflectionMapHashIS8_ENS9_14EqualsComparerINS1_8equal_toIS8_EEEENS1_9allocatorINS2_IKS9_jEEEEE13set_empty_keyERSH_
Xg:_glRenderbufferStorage
MRh:_List_1_Sort_m3734202732_gshared
ync:__Z45Register_UnityEngine_Input_get_touchSupportedv
Pid:__ZN11UnityEngine15PlatformWrapper28GetTextureFormatSupportFlagsEv
M$c:_sfnt_is_postscript
bLe:_RemotingConfiguration_RegisterWellKnownClientType_m1237674062
_1i:_Uri_EscapeString_m3864445955
yXc:_cf2_setError
XKi:__ZL78LayoutRebuilder_t541313304_CustomAttributesCacheGenerator_U3CU3Ef__mgU24cache0P21CustomAttributesCache
Sab:__ZN14SafeBinaryRead21TransferSTLStyleArrayI13dynamic_arrayI12BoneWeights4Lj16EEEEvRT_17TransferMetaFlags
M6e:_Enumerator_MoveNext_m465222849_AdjustorThunk
OMb:__ZZ23InitPlayerLoopCallbacksvEN35PreUpdateSendMouseEventsRegistrator7ForwardEv
ZNf:_X509Certificate__ctor_m1321742168
iij:__ZL25UnresolvedVirtualCall_192P12Il2CppObject6Guid_tS1_PK10MethodInfo
pif:_U3CMouseDragOutsideRectU3Ec__Iterator1_System_Collections_Generic_IEnumeratorU3CobjectU3E_get_Current_m3688496850
HFa:__ZNK6Camera25GetNormalizedViewportRectEP13RenderTextureb
hzd:_Dropdown_Awake_m3140021404
ih:_glDisable
noh:__Z52RuntimeInvoker_Void_t1185182177_UriScheme_t722425697PFvvEPK10MethodInfoPvPS4_
OMi:__ZL72EventTrigger_t2527451695_CustomAttributesCacheGenerator_m_LifecycleEventP21CustomAttributesCache
X_a:__ZN13RenderTexture8TransferI24GenerateTypeTreeTransferEEvRT_
ddi:__ZL53IsVolatile_t2097058663_CustomAttributesCacheGeneratorP21CustomAttributesCache
Izg:_Vector2_get_sqrMagnitude_m837837635
kLa:__ZN4PPtrI9Texture2DE8TransferI14SafeBinaryReadEEvRT_
O_j:__ZN6il2cpp5utils11StringUtils15StringDuplicateEPKDsj
NE:__ZZN8Animator15InitializeClassEvEN37FunctorImpl_417kDidModifyOverrideClip4CallEPviR11MessageData
O$i:_Regex_Match_m4145799399
_v:__ZN17AnimationPlayable17ProcessRootMotionEP35AnimationPlayableEvaluationConstantP32AnimationPlayableEvaluationInputP33AnimationPlayableEvaluationOutput
hTf:_String_IsNullOrEmpty_m2969720369
Tcf:_Enumerator_MoveNext_m2602845255_gshared
ekj:_TextGenerator_GetPreferredHeight_m3514897836
Iuf:_BigInteger_LowestSetBit_m3082714978
v1g:__Z78RuntimeInvoker_Int16_t2552820387_RuntimeObject_Int32_t2950945753_RuntimeObjectPFvvEPK10MethodInfoPvPS4_
xok:b118
yok:b119
mui:__ZL81Object_t631007953_CustomAttributesCacheGenerator_Object_set_hideFlags_m1648752846P21CustomAttributesCache
MNb:__ZNK8Material12GetPassCountEv
wLf:_RSAParameters_t1728406613_marshal_pinvoke
$Jf:_Interval_IsDisjoint_m1532171337_AdjustorThunk
qok:b112
edk:_bitshift64Ashr
sok:b114
tok:b115
uok:b116
wok:b117
uuj:__ZN30dense_hashtable_const_iteratorINSt3__24pairIK10KeyWrapperIN6il2cpp5utils13dynamic_arrayIPK10Il2CppTypeLj4EEEEPFvvEEESA_NS3_8metadata19Il2CppSignatureHashEN14dense_hash_mapISA_SD_SG_NSA_14EqualsComparerINSF_22Il2CppSignatureCompareEEENS0_9allocatorISE_EEE9SelectKeyESK_SM_E30advance_past_empty_and_deletedEv
Hek:dynCall_diii
lkf:_LayoutUtility_GetFlexibleWidth_m22831835
IRe:_BinaryFormatter__ctor_m971003555
wUe:_ArrayReadOnlyList_1_ReadOnlyError_m865416608_gshared
xdh:__Z91RuntimeInvoker_Void_t1185182177_Int32_t2950945753_Int32U26_t1369213839_Int32U26_t1369213839PFvvEPK10MethodInfoPvPS4_
fmg:_DisplaysUpdatedDelegate_EndInvoke_m3857124817
sae:_CollectionBase_System_Collections_IList_get_Item_m3743372945
R4f:_CultureInfo_get_Name_m3662098416
Lnj:_CustomEventData_Add_m3993893123
Gya:__ZN4crnd12crn_unpacker22decode_alpha_endpointsEv
t1h:_Queue_1__ctor_m2068090025_gshared
aYb:__Z23CullDynamicObjectsUmbraPK4AABBPKN5Umbra15OcclusionBufferER9IndexList
EHe:_SslStreamBase_RaiseRemoteCertificateValidation2_m2908038766
t1c:_tt_cmap4_char_next
HMg:_UIntPtr__ctor_m4250165422_AdjustorThunk
I_:__ZN4core8hash_mapIi17ThreadedAwakeDataNS_4hashIiEENSt3__28equal_toIiEEE4growEi
s1g:__Z50RuntimeInvoker_Boolean_t97287965_Int16_t2552820387PFvvEPK10MethodInfoPvPS4_
Pee:_Convert_ToDecimal_m1233667008
Nhh:__Z44RuntimeInvoker_RuntimeObject_Ray_t3785851493PFvvEPK10MethodInfoPvPS4_
S1e:_InternalEnumerator_1_MoveNext_m2734554195_gshared
H_:__ZN4core8hash_mapIi17ThreadedAwakeDataNS_4hashIiEENSt3__28equal_toIiEEE4growEv
w8:__GLOBAL__sub_I_runtime_assetbundles_1_cpp
Ize:_MD5SHA1_HashCore_m4171647335
dJ:__ZN4FMOD7Channel11setPositionEjj
bi:_glBindSampler
h2j:_GC_reclaim_block
RBe:_ClientContext_get_ClientHelloProtocol_m1654639078
fi:_glGetVertexAttribiv
idf:_Enumerator_System_Collections_IEnumerator_get_Current_m1975949486_gshared
e_i:_PatternCompiler_EmitSub_m193323684
vbh:__Z74RuntimeInvoker_RuntimeObject_RuntimeObject_SByte_t1669577662_RuntimeObjectPFvvEPK10MethodInfoPvPS4_
Kad:__ZN2UI11CanvasGroup23VirtualRedirectTransferER18StreamedBinaryReadILb0EE
CNd:_Int64_System_IConvertible_ToByte_m375085029
IGc:__ZN8JSONRead8TransferIbEEvRT_PKc17TransferMetaFlagsb
$kg:_CullingGroup_t2096318768_marshal_pinvoke
bIg:_TimeSpan_ToString_m1128692466
gwg:_RequireComponent__ctor_m886241599
O6i:_AesManaged_CreateEncryptor_m2294080233
fXj:__ZN6il2cpp2os6Thread20SetExplicitApartmentENS0_14ApartmentStateE
E3i:_Event_GetHashCode_m3559153592
lzc:__Z26RegisterModuleICalls_IMGUIv
uHf:_X509ChainElementCollection_System_Collections_ICollection_CopyTo_m1179155153
QVc:__ZN19ControllerHitReport13onObstacleHitERKN5physx23PxControllerObstacleHitE
N9g:__Z51RuntimeInvoker_Int16_t2552820387_Single_t1397266774PFvvEPK10MethodInfoPvPS4_
M0j:_GC_promote_black_lists
xee:_Convert_ToChar_m3757390865
wHc:__Z29Transfer_Blittable_ArrayFieldI8JSONRead8Vector4fEvRT_R9ArrayInfoRK23StaticTransferFieldInfo
ko:FUNCTION_TABLE_vf
Vie:_Binder_GetDerivedLevel_m3216810447
Ko:FUNCTION_TABLE_vd
g6e:_Enumerator_System_Collections_IDictionaryEnumerator_get_Value_m3325938730_gshared
Mo:FUNCTION_TABLE_vi
Q9:__ZN13RuntimeStaticI37UnityShaderCompilerExtPluginConfigureLb0EE16StaticInitializeEPv
ikd:__ZN11UnityEngine7Connect17DeviceStatusEvent20SetDeviceAspectRatioEf
iDg:_StringBuilder_AppendFormat_m2403596038
NHd:_DSASignatureDeformatter_SetHashAlgorithm_m3186995552
XCh:_ReadOnlyCollection_1_System_Collections_Generic_ICollectionU3CTU3E_Clear_m2772202961_gshared
LEc:__ZN9JSONWrite8TransferI13dynamic_arrayI4AABBLj4EEEEvRT_PKc17TransferMetaFlags
C7i:_EventTrigger_get_lifecycleEvent_m3324346053
mF:__ZNK8Animator17HasBoundPlayablesEv
ETc:__ZN17Physics2DSettings8TransferI24GenerateTypeTreeTransferEEvRT_
ewc:_null_convert_24
kve:_ResourceSet_ReadResources_m3663669011
vwh:_Collection_1_GetEnumerator_m3990758110_gshared
LFg:_SynchronizationContext_SetSynchronizationContext_m1249070039
Rni:__ZL74X509Crl_t1148767388_CustomAttributesCacheGenerator_U3CU3Ef__switchU24map13P21CustomAttributesCache
F_h:_List_1_AddEnumerable_m1267044261_gshared
T0c:_tt_cmap13_char_index
Czj:__ZN6il2cpp2vm7Runtime9SetConfigEPKc
xBc:__ZN5Unity9rapidjson12PrettyWriterI16TempBufferWriterNS0_4UTF8IcEES4_13JSONAllocatorE10StartArrayEv
va:invoke_iiifiii
vvg:_RectTransform_INTERNAL_get_pivot_m2970933031
INh:_UnityAction_1_Invoke_m927447181_gshared
IPj:__ZN6il2cpp2vm9Exception11FromNameMsgEPK11Il2CppImagePKcS6_S6_
ZSj:__ZNSt3__26__treeINS_12__value_typeIP24Il2CppReflectionAssemblyPvEENS_19__map_value_compareIS3_S5_NS_4lessIS3_EELb1EEENS_9allocatorIS5_EEE12__find_equalIS3_EERPNS_16__tree_node_baseIS4_EESH_RKT_
rn:FUNCTION_TABLE_fiiifii
Sfa:__Z14GetTimeManagerv
zkg:_Color32_op_Implicit_m213813866
Xug:_RectOffset_set_top_m713260669
x6b:__ZneRK20SpriteTilingPropertyS1_
z7h:__ZL61ArrayReadOnlyList_1_t221793636_CustomAttributesCacheGeneratorP21CustomAttributesCache
Dmd:__ZN19TransportJavaScript7CleanupEv
IQa:__Z12GUIDToStringRK9UnityGUIDPc
Pca:__ZN15FileSystemEntry4LockE12FileLockModeP12FileAccessor
Emk:_emscripten_glDrawArrays__wrapper
kNd:_Int32_Equals_m2976157357
seh:__Z110RuntimeInvoker_Int32_t2950945753_Int32_t2950945753_Int32_t2950945753_Int32U26_t1369213839_Int32U26_t1369213839PFvvEPK10MethodInfoPvPS4_
v$h:_List_1_System_Collections_IList_get_IsReadOnly_m1601400230_gshared
G9d:_BitArray_get_IsSynchronized_m3546284417
CM:__ZN11AudioSource22UnmuteActiveVideoSinksEv
FUi:_TlsException__ctor_m3717683709
L_j:__ZN4utf88internal20is_overlong_sequenceIiEEbjT_
xtj:__ZN6il2cpp2vm13MetadataCache8RegisterEPK22Il2CppCodeRegistrationPK26Il2CppMetadataRegistrationPK20Il2CppCodeGenOptions
Btf:_SortKeyBuffer__ctor_m1384677558
Wzd:_U3CDelayedDestroyDropdownListU3Ec__Iterator0_System_Collections_IEnumerator_get_Current_m1619733476
bli:__ZL79Convert_t2465617642_CustomAttributesCacheGenerator_Convert_ToUInt16_m4064261444P21CustomAttributesCache
nSa:__Z9SetLocalR15TransformAccessRKN4math7_float4Ey
ZTb:__Z30SetupBakedOcclusionForGeometrybRK26SharedLightmapSettingsDataRK15LightmapIndicesR17ShaderPassContext
$ne:_MethodBuilder_get_Attributes_m2740229145
Elc:__Z41Register_UnityEngine_Cursor_get_lockStatev
vTb:__Z14SetupLightmapsRK8Vector4fS1_R17ShaderPassContext
pHj:__ZN14dense_hash_mapI10KeyWrapperIPK14Il2CppAssemblyEPK22Il2CppMonoAssemblyNameN6il2cpp5utils11PointerHashIS2_EENS4_14EqualsComparerINSt3__28equal_toIS3_EEEENSD_9allocatorINSD_4pairIKS4_S7_EEEEE13set_empty_keyERSJ_
Q$a:__ZL20InitializeGUIShadersv
R6f:_Guid_CompareTo_m243656946
V3b:__Z20DestroyObjectDelayedP6Objectf
TW:__ZN20DynamicHeapAllocatorI17LowLevelAllocatorED0Ev
ROd:_IntPtr_ToPointer_m4157623054
sw:__ZNK17AnimationPlayable27GetNextCompatibleDescendantEi
W8b:__ZN11TimeManagerC2E10MemLabelId18ObjectCreationMode
TQb:__ZN9DepthPassD2Ev
XH:__ZN11AudioFilter6GetDSPEv
Syf:_SymmetricTransform_CFB_m1051508796
pJe:_UrlAttribute_GetPropertiesForNewContext_m2281450996
vLf:_RSACryptoServiceProvider_OnKeyGenerated_m863837376
rXh:_List_1_get_Capacity_m3047075120_gshared
sjh:__Z31RuntimeInvoker_Mode_t1066900953PFvvEPK10MethodInfoPvPS4_
qnf:_Scrollbar_OnDrag_m4289602768
Cba:__ZN19RuntimeSceneManager14CanUnloadSceneEP10UnityScene
VQb:__Z22ExtractRenderNodeQueueRK11CullResults15ExtractionFlagsR15RenderNodeQueue
aYg:_GenericEqualityComparer_1_GetHashCode_m457148860_gshared
ujg:_Camera_set_orthographic_m2855749523
w2j:_GC_print_hblkfreelist
aYj:__ZN6il2cpp2vm6Method7GetNameEPK10MethodInfo
Zsa:__ZN9GfxDevice16CreateTimerQueryEv
aH:__ZN24AudioScriptBufferManagerC2Ev
EIc:__ZN11UnityEngine9Analytics18SceneLoadTimeEvent12ToJsonStringER9JSONWrite
c7c:__ZNSt3__26vectorIh13stl_allocatorIhL18MemLabelIdentifier1ELi16EEE8__appendEj
w1e:_InternalEnumerator_1_System_Collections_IEnumerator_get_Current_m3854084659_AdjustorThunk
LAc:__ZN8JSONRead32GetValueForKeyWithNameConversionEPKN5Unity9rapidjson12GenericValueINS1_4UTF8IcEE13JSONAllocatorEEPKc
zTe:_U3CGetEnumeratorU3Ec__Iterator0_System_Collections_IEnumerator_get_Current_m283764921_gshared
$Vg:_EqualityComparer_1_System_Collections_IEqualityComparer_GetHashCode_m3578195399_gshared
e7c:__ZN20TextRenderingPrivate8FontImpl16ResetPackingDataEv
U3f:_CultureInfo_get_IcuName_m2258611679
vCc:__Z18Transfer_BlittableI9JSONWriteLb0EfEvRK29SerializationCommandArgumentsR31RuntimeSerializationCommandInfo
Txa:__Z21GetAsyncUploadManagerv
Uj:_emscripten_glDetachShader
jnj:_CustomEventData_Add_m2564314129
Bcf:_Transform_1_BeginInvoke_m3697921475_gshared
Kvg:_Vector2_op_Subtraction_m73004381
Hxa:__ZN17GenericDynamicVBO20ReleaseChunkInternalERK21DynamicVBOChunkHandlejj
p9c:__ZL27CleanupModule_TextRenderingv
F9j:_fmodl
$Ze:_InternalEnumerator_1__ctor_m39232262_gshared
Tyf:_SymmetricTransform_OFB_m3842617151
nAb:__Z18Transfer_BlittableI18StreamedBinaryReadILb1EELb1E4AABBEvRK29SerializationCommandArgumentsR31RuntimeSerializationCommandInfo
aW:__Z37RegisterModuleICalls_CloudWebServicesv
PNa:__ZNSt3__26vectorIiNS_9allocatorIiEEE21__push_back_slow_pathIKiEEvRT_
VJb:__ZN19RuntimeSceneManager11CreateSceneEv
ckg:_Color__ctor_m286683560
i2h:_Collection_1_System_Collections_Generic_ICollectionU3CTU3E_get_IsReadOnly_m2395676620_gshared
NZi:_PatternCompiler_Emit_m1540115729
D$c:_ps_get_standard_strings
YTb:__Z27SetupBakedOcclusionForLightbRK15SharedLightDataR17ShaderPassContext
p6j:__ZN6il2cpp2os5Mutex6UnlockEv
fTd:_NullStream_get_Position_m4048431226
eBg:_EncoderFallbackException__ctor_m1051987327
izh:__ZN21InterfaceFuncInvoker1I19Vector2_t2156229523iE6InvokeEjP11Il2CppClassP12Il2CppObjecti
oEe:_Context_set_RandomSC_m2364786761
wgi:__ZL73AsymmetricSignatureDeformatter_t2681190756_CustomAttributesCacheGeneratorP21CustomAttributesCache
OAh:_Collection_1_CopyTo_m2335349786_gshared
Quf:_BigInteger_ToString_m3278248272
_Zf:_Decimal_System_IConvertible_ToBoolean_m1123794670
Lmh:__Z98RuntimeInvoker_Int32_t2950945753_RaycastResult_t3360306849_RaycastResult_t3360306849_RuntimeObjectPFvvEPK10MethodInfoPvPS4_
Tba:__Z17CommitBatchDeleteR11BatchDelete
wkf:_Mask__ctor_m1269055150
Eji:__ZL99WaitHandle_t1743403487_CustomAttributesCacheGenerator_WaitHandle_t1743403487____Handle_PropertyInfoP21CustomAttributesCache
MDf:_WebRequest_AddPrefix_m3187775913
pFi:__ZL98PointerEventData_t3807901092_CustomAttributesCacheGenerator_PointerEventData_get_button_m359423249P21CustomAttributesCache
h7j:__ZNSt3__26__treeINS_12__value_typeIPFvvEPK10MethodInfoEENS_19__map_value_compareIS3_S7_NS_4lessIS3_EELb1EEENS_9allocatorIS7_EEE4findIS3_EENS_15__tree_iteratorIS7_PNS_11__tree_nodeIS7_PvEEiEERKT_
G5f:_NumberFormatInfo_get_CurrencyNegativePattern_m2134016253
npi:__ZL85UriParser_t3890150400_CustomAttributesCacheGenerator_UriParser_OnRegister_m3283921560P21CustomAttributesCache
vGi:__ZL59Dropdown_t2274391225_CustomAttributesCacheGenerator_m_ValueP21CustomAttributesCache
pOb:__Z18RenderImageFiltersR10RenderLoopb
Ydd:__Z43CanvasRenderer_Get_Custom_PropMaterialCountP12Il2CppObject
hUb:__ZNSt3__227__insertion_sort_incompleteIR23CompareReflectionProbesP31RuntimeReflectionProbeBlendInfoEEbT0_S5_T_
jXh:_List_1_Remove_m1457733883_gshared
RHc:__ZN8JSONRead21TransferSTLStyleArrayI13dynamic_arrayI11QuaternionfLj4EEEEvRT_17TransferMetaFlags
Lp:__ZN6Object23VirtualRedirectTransferER19StreamedBinaryWriteILb1EE
Qjc:__ZNK9BlobWrite24HasOffsetPtrWithDebugPtrEv
k5h:__ZL80String_t_CustomAttributesCacheGenerator_String_FormatHelper_m3913915042____args3P21CustomAttributesCache
Ghc:__ZN19RuntimeSceneManager32LoadSceneAsyncByNameOrBuildIndexERKN4core12basic_stringIcNS0_20StringStorageDefaultIcEEEEiNS_11LoadingModeEb
Sge:_Convert_ToUInt64_m1745056470
wze:_MD4Managed_Encode_m386285215
gda:__ZN10InputEventD2Ev
zyb:__Z18Transfer_BlittableI19StreamedBinaryWriteILb0EELb0E5RectTIfEEvRK29SerializationCommandArgumentsR31RuntimeSerializationCommandInfo
bQf:_SecurityElement_get_Children_m1231540612
N0e:_InternalEnumerator_1_MoveNext_m1590908934_AdjustorThunk
Knd:__ZN22UnityWebRequestManagerD2Ev
s3i:_Event_get_character_m1666742088
Prh:__Z112RuntimeInvoker_Boolean_t97287965_CustomAttributeNamedArgument_t287865710_CustomAttributeNamedArgument_t287865710PFvvEPK10MethodInfoPvPS4_
k9j:_isalpha
Qnf:_U3CClickRepeatU3Ec__Iterator0_Dispose_m4248496038
tee:_Convert_ToChar_m1442101407
GHe:_SslClientStream_OnLocalPrivateKeySelection_m1934775249
J4i:_GUILayoutEntry_CalcWidth_m3962591050
fuc:_UNITY_png_read_filter_row_paeth_multibyte_pixel
eCd:__ZN21InterfaceFuncInvoker1IP19Graphic_t1660335611iE6InvokeEjP11Il2CppClassP12Il2CppObjecti
TJc:__ZNK12b2MotorJoint17GetReactionTorqueEf
YYf:_DateTimeOffset_get_Offset_m2040541042_AdjustorThunk
Cxi:__ZL80Logger_t274032455_CustomAttributesCacheGenerator_U3ClogHandlerU3Ek__BackingFieldP21CustomAttributesCache
yxj:__ZN6il2cpp2vmL17IsSocketAsyncCallEP14Il2CppDelegate
fce:_Slot_t3975888750_marshal_pinvoke_back
j_j:__ZN6il2cpp2vm6String6NewLenEPKcj
PHb:__ZN17PersistentManager9AddStreamEv
_Wj:__ZN6il2cpp2os6Thread12GetApartmentEv
tKa:__ZN9GfxDevice28UpdateComputeConstantBuffersEjP12ObjectHandleI18ConstantBuffer_TagPvEjjPKhPKjS8_PKi
kl:_time
oxd:_ContentSizeFitter_set_verticalFit_m1831566876
TNf:_TripleDESCryptoServiceProvider_CreateDecryptor_m740960117
xxc:__ZN16memory_pool_implILi28EE15AutoPoolWrapper12UninitializeEPv
Rih:__Z122RuntimeInvoker_Void_t1185182177_Color_t2555686324_Single_t1397266774_SByte_t1669577662_SByte_t1669577662_SByte_t1669577662PFvvEPK10MethodInfoPvPS4_
Bpg:_Material_EnableKeyword_m329692301
lYc:_cf2_stack_free
PMf:_SHA512Managed_HashCore_m2377807474
kOd:_Int64_Parse_m3309897583
z4f:_CompareInfo_IndexOf_m667936183
g$h:_List_1__ctor_m2203182218_gshared
Ov:__ZN7mecanim9animation19EvaluateFloatValuesEPKNS0_18ClipMuscleConstantEPKNS_18ValueArrayConstantEPKNS0_12ClipBindingsEPKNS0_10ClipOutputEPNS0_18AnimationNodeStateEfbb
Ztg:_Rect_get_min_m847841034_AdjustorThunk
zD:__ZN8Animator31ClearInternalControllerPlayableEv
SIa:__ZN26SinglePassStereoSupportExt18AfterSetViewMatrixEv
Gig:_Bounds__ctor_m1937678907_AdjustorThunk
Vwg:_SetupCoroutine_InvokeMember_m2661944898
VYg:_HashSet_1__ctor_m620629637_gshared
nEf:_X509EnhancedKeyUsageExtension_ToString_m350388564
toe:_MethodBuilder_get_Module_m2693263127
bDj:__ZN15dense_hashtableINSt3__24pairIK10KeyWrapperINS1_IPK9FieldInfoP11Il2CppClassEEEjEES9_17ReflectionMapHashIS8_EN14dense_hash_mapIS9_jSD_NS9_14EqualsComparerINS0_8equal_toIS8_EEEENS0_9allocatorISB_EEE9SelectKeyESI_SK_E4findERSA_
Y8d:_SimpleEnumerator_MoveNext_m3113120129
kFd:_RuntimeTypeHandle_GetHashCode_m3999856879_AdjustorThunk
UJb:__ZN13LoadOperationC2E10MemLabelId
eff:_InputField_SendOnValueChanged_m2560301445
O0i:_CapturingGroup_get_Name_m3747712535
DZb:__ZN13RenderTexture19SetAutoGenerateMipsEb
nza:__Z20GetTextureFormatInfo13TextureFormat
pnj:_CustomEventData_AddByte_m3440715081
yBf:_TypeConverterAttribute_Equals_m1580461255
AAe:_RSAManaged_ToXmlString_m2369501989
zy:__ZN26AnimatorControllerPlayable8GetFloatEiRf
gif:_InputField_get_layoutPriority_m2945430764
jWf:_DateTime_System_IConvertible_ToSingle_m2193708681_AdjustorThunk
_Jf:_Interval_get_Size_m4163671410_AdjustorThunk
S$i:_Regex_ToString_m1548107455
Qdg:_NoAllocHelpers_SafeLength_TisVector2_t2156229523_m3807819939_gshared
abd:__ZN2UI14CanvasRenderer13AwakeFromLoadE17AwakeFromLoadMode
c5h:__ZL64String_t_CustomAttributesCacheGenerator_String_Split_m3580120853P21CustomAttributesCache
oBb:__ZN18StreamedBinaryReadILb1EE5AlignEv
H4j:__ZN6il2cpp5utils10MemoryPool6MallocEj
uG:__ZN11SoundHandle8InstanceD2Ev
Wue:_ResourceEnumerator_Reset_m3754276504
uga:__ZN31CanvasBatchIntermediateRenderer13StaticDestroyEPv
T$:__ZNSt3__23mapIiP15MonoScriptCacheNS_4lessIiEE13stl_allocatorINS_4pairIKiS2_EEL18MemLabelIdentifier78ELi16EEEixERS7_
Uvj:__ZNK15dense_hashtableINSt3__24pairIK10KeyWrapperIPK11Il2CppClassEPKcEES6_N6il2cpp5utils11PointerHashIS3_EEN14dense_hash_mapIS6_S9_SE_NS6_14EqualsComparerINS0_8equal_toIS5_EEEENS0_9allocatorISA_EEE9SelectKeyESJ_SL_E10test_emptyERK24dense_hashtable_iteratorISA_S6_SE_SN_SJ_SL_E
